
/tmp/arduino_build_82070/LCM300Q_CmdRawRead.ino.elf:     file format elf32-littlearm


Disassembly of section .text:

00000000 <_VectorsFlash>:
       0:	00 80 00 20 bd 01 00 00 71 22 00 00 35 22 00 00     ... ....q"..5"..
      10:	35 22 00 00 35 22 00 00 35 22 00 00 35 22 00 00     5"..5"..5"..5"..
      20:	35 22 00 00 35 22 00 00 35 22 00 00 71 22 00 00     5"..5"..5"..q"..
      30:	71 22 00 00 35 22 00 00 89 3d 00 00 79 3e 00 00     q"..5"...=..y>..
      40:	71 22 00 00 71 22 00 00 71 22 00 00 71 22 00 00     q"..q"..q"..q"..
      50:	71 22 00 00 71 22 00 00 71 22 00 00 71 22 00 00     q"..q"..q"..q"..
      60:	71 22 00 00 71 22 00 00 71 22 00 00 71 22 00 00     q"..q"..q"..q"..
      70:	71 22 00 00 71 22 00 00 71 22 00 00 71 22 00 00     q"..q"..q"..q"..
      80:	71 22 00 00 71 22 00 00 71 22 00 00 71 22 00 00     q"..q"..q"..q"..
      90:	71 22 00 00 71 22 00 00 71 22 00 00 71 22 00 00     q"..q"..q"..q"..
      a0:	11 21 00 00 21 21 00 00 71 22 00 00 71 22 00 00     .!..!!..q"..q"..
      b0:	71 22 00 00 71 22 00 00 71 22 00 00 71 22 00 00     q"..q"..q"..q"..
      c0:	71 22 00 00 71 22 00 00 71 22 00 00 71 22 00 00     q"..q"..q"..q"..
      d0:	71 22 00 00 71 22 00 00 71 22 00 00 71 22 00 00     q"..q"..q"..q"..
      e0:	71 22 00 00 71 22 00 00 71 22 00 00 71 22 00 00     q"..q"..q"..q"..
      f0:	71 22 00 00 4d 39 00 00 71 22 00 00 91 3a 00 00     q"..M9..q"...:..
     100:	71 22 00 00 d5 3b 00 00 71 22 00 00 71 22 00 00     q"...;..q"..q"..
     110:	71 22 00 00 71 22 00 00 71 22 00 00 71 22 00 00     q"..q"..q"..q"..
     120:	71 22 00 00 71 22 00 00 71 22 00 00 71 22 00 00     q"..q"..q"..q"..
     130:	71 22 00 00 71 22 00 00 71 22 00 00 71 22 00 00     q"..q"..q"..q"..
     140:	71 22 00 00 71 22 00 00 71 22 00 00 71 22 00 00     q"..q"..q"..q"..
     150:	71 22 00 00 71 22 00 00 71 22 00 00 71 22 00 00     q"..q"..q"..q"..
     160:	71 22 00 00 91 28 00 00 71 22 00 00 71 22 00 00     q"...(..q"..q"..
     170:	71 22 00 00 71 22 00 00 71 22 00 00 71 22 00 00     q"..q"..q"..q"..
     180:	71 22 00 00 71 22 00 00 71 22 00 00 71 22 00 00     q"..q"..q"..q"..
     190:	71 22 00 00 71 22 00 00 71 22 00 00 71 22 00 00     q"..q"..q"..q"..
     1a0:	71 22 00 00 71 22 00 00 71 22 00 00 71 22 00 00     q"..q"..q"..q"..
     1b0:	71 22 00 00 71 22 00 00 71 22 00 00                 q"..q"..q"..

000001bc <ResetHandler>:
	volatile int n;
#endif
	//volatile int count;

#ifdef KINETISK
	WDOG_UNLOCK = WDOG_UNLOCK_SEQ1;
     1bc:	4b56      	ldr	r3, [pc, #344]	; (318 <ResetHandler+0x15c>)
     1be:	f24c 5220 	movw	r2, #50464	; 0xc520
#else
// hopefully all others fit into startup section (below 0x400)
__attribute__ ((section(".startup"),optimize("-Os")))
#endif
void ResetHandler(void)
{
     1c2:	b510      	push	{r4, lr}
	volatile int n;
#endif
	//volatile int count;

#ifdef KINETISK
	WDOG_UNLOCK = WDOG_UNLOCK_SEQ1;
     1c4:	801a      	strh	r2, [r3, #0]
	WDOG_UNLOCK = WDOG_UNLOCK_SEQ2;
     1c6:	f64d 1228 	movw	r2, #55592	; 0xd928
     1ca:	801a      	strh	r2, [r3, #0]
	__asm__ volatile ("nop");
     1cc:	bf00      	nop
	__asm__ volatile ("nop");
     1ce:	bf00      	nop
#endif
	// programs using the watchdog timer or needing to initialize hardware as
	// early as possible can implement startup_early_hook()
	startup_early_hook();
     1d0:	f002 f852 	bl	2278 <startup_early_hook>
	// enable clocks to always-used peripherals
#if defined(__MK20DX128__)
	SIM_SCGC5 = 0x00043F82;		// clocks active to all GPIO
	SIM_SCGC6 = SIM_SCGC6_RTC | SIM_SCGC6_FTM0 | SIM_SCGC6_FTM1 | SIM_SCGC6_ADC0 | SIM_SCGC6_FTFL;
#elif defined(__MK20DX256__)
	SIM_SCGC3 = SIM_SCGC3_ADC1 | SIM_SCGC3_FTM2;
     1d4:	4b51      	ldr	r3, [pc, #324]	; (31c <ResetHandler+0x160>)
     1d6:	f04f 6210 	mov.w	r2, #150994944	; 0x9000000
     1da:	601a      	str	r2, [r3, #0]
	SIM_SCGC5 = 0x00043F82;		// clocks active to all GPIO
     1dc:	4a50      	ldr	r2, [pc, #320]	; (320 <ResetHandler+0x164>)
     1de:	609a      	str	r2, [r3, #8]
	SIM_SCGC6 = SIM_SCGC6_RTC | SIM_SCGC6_FTM0 | SIM_SCGC6_FTM1 | SIM_SCGC6_ADC0 | SIM_SCGC6_FTFL;
     1e0:	4a50      	ldr	r2, [pc, #320]	; (324 <ResetHandler+0x168>)
     1e2:	60da      	str	r2, [r3, #12]
	UART0_C2 = UART_C2_TE;
	PORTB_PCR17 = PORT_PCR_MUX(3);
#endif
#ifdef KINETISK
	// if the RTC oscillator isn't enabled, get it started early
	if (!(RTC_CR & RTC_CR_OSCE)) {
     1e4:	4a50      	ldr	r2, [pc, #320]	; (328 <ResetHandler+0x16c>)
     1e6:	6813      	ldr	r3, [r2, #0]
     1e8:	f413 7380 	ands.w	r3, r3, #256	; 0x100
     1ec:	d104      	bne.n	1f8 <ResetHandler+0x3c>
		RTC_SR = 0;
     1ee:	494f      	ldr	r1, [pc, #316]	; (32c <ResetHandler+0x170>)
     1f0:	600b      	str	r3, [r1, #0]
		RTC_CR = RTC_CR_SC16P | RTC_CR_SC4P | RTC_CR_OSCE;
     1f2:	f44f 53a8 	mov.w	r3, #5376	; 0x1500
     1f6:	6013      	str	r3, [r2, #0]
	}
#endif
	// release I/O pins hold, if we woke up from VLLS mode
	if (PMC_REGSC & PMC_REGSC_ACKISO) PMC_REGSC |= PMC_REGSC_ACKISO;
     1f8:	4b4d      	ldr	r3, [pc, #308]	; (330 <ResetHandler+0x174>)
     1fa:	781a      	ldrb	r2, [r3, #0]
     1fc:	0711      	lsls	r1, r2, #28
     1fe:	d503      	bpl.n	208 <ResetHandler+0x4c>
     200:	781a      	ldrb	r2, [r3, #0]
     202:	f042 0208 	orr.w	r2, r2, #8
     206:	701a      	strb	r2, [r3, #0]
    // since this is a write once register, make it visible to all F_CPU's
    // so we can into other sleep modes in the future at any speed
#if defined(__MK66FX1M0__)
	SMC_PMPROT = SMC_PMPROT_AHSRUN | SMC_PMPROT_AVLP | SMC_PMPROT_ALLS | SMC_PMPROT_AVLLS;
#else
	SMC_PMPROT = SMC_PMPROT_AVLP | SMC_PMPROT_ALLS | SMC_PMPROT_AVLLS;
     208:	4b4a      	ldr	r3, [pc, #296]	; (334 <ResetHandler+0x178>)
#endif
    
	// TODO: do this while the PLL is waiting to lock....
	while (dest < &_edata) *dest++ = *src++;
     20a:	494b      	ldr	r1, [pc, #300]	; (338 <ResetHandler+0x17c>)
    // since this is a write once register, make it visible to all F_CPU's
    // so we can into other sleep modes in the future at any speed
#if defined(__MK66FX1M0__)
	SMC_PMPROT = SMC_PMPROT_AHSRUN | SMC_PMPROT_AVLP | SMC_PMPROT_ALLS | SMC_PMPROT_AVLLS;
#else
	SMC_PMPROT = SMC_PMPROT_AVLP | SMC_PMPROT_ALLS | SMC_PMPROT_AVLLS;
     20c:	222a      	movs	r2, #42	; 0x2a
     20e:	701a      	strb	r2, [r3, #0]
     210:	4a4a      	ldr	r2, [pc, #296]	; (33c <ResetHandler+0x180>)
     212:	4b4b      	ldr	r3, [pc, #300]	; (340 <ResetHandler+0x184>)
#endif
    
	// TODO: do this while the PLL is waiting to lock....
	while (dest < &_edata) *dest++ = *src++;
     214:	428b      	cmp	r3, r1
     216:	d204      	bcs.n	222 <ResetHandler+0x66>
     218:	f852 0f04 	ldr.w	r0, [r2, #4]!
     21c:	f843 0b04 	str.w	r0, [r3], #4
     220:	e7f8      	b.n	214 <ResetHandler+0x58>
     222:	4b48      	ldr	r3, [pc, #288]	; (344 <ResetHandler+0x188>)
	dest = &_sbss;
	while (dest < &_ebss) *dest++ = 0;
     224:	4948      	ldr	r1, [pc, #288]	; (348 <ResetHandler+0x18c>)
     226:	2200      	movs	r2, #0
     228:	428b      	cmp	r3, r1
     22a:	d202      	bcs.n	232 <ResetHandler+0x76>
     22c:	f843 2b04 	str.w	r2, [r3], #4
     230:	e7fa      	b.n	228 <ResetHandler+0x6c>

	// default all interrupts to medium priority level
	for (i=0; i < NVIC_NUM_INTERRUPTS + 16; i++) _VectorsRam[i] = _VectorsFlash[i];
     232:	4946      	ldr	r1, [pc, #280]	; (34c <ResetHandler+0x190>)
     234:	4a46      	ldr	r2, [pc, #280]	; (350 <ResetHandler+0x194>)
     236:	2300      	movs	r3, #0
     238:	f852 0023 	ldr.w	r0, [r2, r3, lsl #2]
     23c:	f841 0023 	str.w	r0, [r1, r3, lsl #2]
     240:	3301      	adds	r3, #1
     242:	2b6f      	cmp	r3, #111	; 0x6f
     244:	d1f8      	bne.n	238 <ResetHandler+0x7c>
     246:	4b43      	ldr	r3, [pc, #268]	; (354 <ResetHandler+0x198>)
	for (i=0; i < NVIC_NUM_INTERRUPTS; i++) NVIC_SET_PRIORITY(i, 128);
     248:	4a43      	ldr	r2, [pc, #268]	; (358 <ResetHandler+0x19c>)
     24a:	2180      	movs	r1, #128	; 0x80
     24c:	f803 1b01 	strb.w	r1, [r3], #1
     250:	4293      	cmp	r3, r2
     252:	d1fb      	bne.n	24c <ResetHandler+0x90>
	SCB_VTOR = (uint32_t)_VectorsRam;	// use vector table in RAM
     254:	4b41      	ldr	r3, [pc, #260]	; (35c <ResetHandler+0x1a0>)
     256:	4a3d      	ldr	r2, [pc, #244]	; (34c <ResetHandler+0x190>)
     258:	601a      	str	r2, [r3, #0]
	//  C6[PLLS] bit is written to 0
	//  C2[LP] bit is written to 1
#else
    #if defined(KINETISK)
    // enable capacitors for crystal
    OSC0_CR = OSC_SC8P | OSC_SC2P | OSC_ERCLKEN;
     25a:	4b41      	ldr	r3, [pc, #260]	; (360 <ResetHandler+0x1a4>)
     25c:	228a      	movs	r2, #138	; 0x8a
     25e:	701a      	strb	r2, [r3, #0]
    #elif defined(KINETISL)
    // enable capacitors for crystal
    OSC0_CR = OSC_SC8P | OSC_SC2P | OSC_ERCLKEN;
    #endif
	// enable osc, 8-32 MHz range, low power mode
	MCG_C2 = MCG_C2_RANGE0(2) | MCG_C2_EREFS;
     260:	f5a3 5380 	sub.w	r3, r3, #4096	; 0x1000
     264:	2224      	movs	r2, #36	; 0x24
     266:	705a      	strb	r2, [r3, #1]
	// switch to crystal as clock source, FLL input = 16 MHz / 512
	MCG_C1 =  MCG_C1_CLKS(2) | MCG_C1_FRDIV(4);
     268:	22a0      	movs	r2, #160	; 0xa0
     26a:	701a      	strb	r2, [r3, #0]
	// wait for crystal oscillator to begin
	while ((MCG_S & MCG_S_OSCINIT0) == 0) ;
     26c:	799a      	ldrb	r2, [r3, #6]
     26e:	0792      	lsls	r2, r2, #30
     270:	d5fc      	bpl.n	26c <ResetHandler+0xb0>
	// wait for FLL to use oscillator
	while ((MCG_S & MCG_S_IREFST) != 0) ;
     272:	799a      	ldrb	r2, [r3, #6]
     274:	06d4      	lsls	r4, r2, #27
     276:	d4fc      	bmi.n	272 <ResetHandler+0xb6>
	// wait for MCGOUT to use oscillator
	while ((MCG_S & MCG_S_CLKST_MASK) != MCG_S_CLKST(2)) ;
     278:	4a3a      	ldr	r2, [pc, #232]	; (364 <ResetHandler+0x1a8>)
     27a:	7993      	ldrb	r3, [r2, #6]
     27c:	f003 030c 	and.w	r3, r3, #12
     280:	2b08      	cmp	r3, #8
     282:	4b38      	ldr	r3, [pc, #224]	; (364 <ResetHandler+0x1a8>)
     284:	d1f9      	bne.n	27a <ResetHandler+0xbe>
    #endif
   #else
    #if F_CPU == 72000000
	MCG_C5 = MCG_C5_PRDIV0(5);		 // config PLL input for 16 MHz Crystal / 6 = 2.667 Hz
    #else
	MCG_C5 = MCG_C5_PRDIV0(3);		 // config PLL input for 16 MHz Crystal / 4 = 4 MHz
     286:	2203      	movs	r2, #3
     288:	711a      	strb	r2, [r3, #4]
    #elif F_CPU == 120000000
	MCG_C6 = MCG_C6_PLLS | MCG_C6_VDIV0(6); // config PLL for 120 MHz output
    #elif F_CPU == 72000000
	MCG_C6 = MCG_C6_PLLS | MCG_C6_VDIV0(3); // config PLL for 72 MHz output
    #elif F_CPU == 96000000 || F_CPU == 48000000 || F_CPU == 24000000
	MCG_C6 = MCG_C6_PLLS | MCG_C6_VDIV0(0); // config PLL for 96 MHz output
     28a:	2240      	movs	r2, #64	; 0x40
     28c:	715a      	strb	r2, [r3, #5]
    #error "This clock speed isn't supported..."
    #endif
   #endif

	// wait for PLL to start using xtal as its input
	while (!(MCG_S & MCG_S_PLLST)) ;
     28e:	799a      	ldrb	r2, [r3, #6]
     290:	0690      	lsls	r0, r2, #26
     292:	d5fc      	bpl.n	28e <ResetHandler+0xd2>
	// wait for PLL to lock
	while (!(MCG_S & MCG_S_LOCK0)) ;
     294:	4a33      	ldr	r2, [pc, #204]	; (364 <ResetHandler+0x1a8>)
     296:	7991      	ldrb	r1, [r2, #6]
     298:	4b32      	ldr	r3, [pc, #200]	; (364 <ResetHandler+0x1a8>)
     29a:	0649      	lsls	r1, r1, #25
     29c:	d5fb      	bpl.n	296 <ResetHandler+0xda>
	#endif
	SIM_CLKDIV2 = SIM_CLKDIV2_USBDIV(2) | SIM_CLKDIV2_USBFRAC;
#elif F_CPU == 48000000
	// config divisors: 48 MHz core, 48 MHz bus, 24 MHz flash, USB = 96 / 2
  #if defined(KINETISK)
	SIM_CLKDIV1 = SIM_CLKDIV1_OUTDIV1(1) | SIM_CLKDIV1_OUTDIV2(1) | SIM_CLKDIV1_OUTDIV3(1) |  SIM_CLKDIV1_OUTDIV4(3);
     29e:	4a32      	ldr	r2, [pc, #200]	; (368 <ResetHandler+0x1ac>)
     2a0:	4932      	ldr	r1, [pc, #200]	; (36c <ResetHandler+0x1b0>)
     2a2:	6011      	str	r1, [r2, #0]
	SIM_CLKDIV2 = SIM_CLKDIV2_USBDIV(1);
     2a4:	2102      	movs	r1, #2
     2a6:	6051      	str	r1, [r2, #4]
#error "Error, F_CPU must be 192, 180, 168, 144, 120, 96, 72, 48, 24, 16, 8, 4, or 2 MHz"
#endif

#if F_CPU > 16000000
	// switch to PLL as clock source, FLL input = 16 MHz / 512
	MCG_C1 = MCG_C1_CLKS(0) | MCG_C1_FRDIV(4);
     2a8:	2220      	movs	r2, #32
     2aa:	701a      	strb	r2, [r3, #0]
	// wait for PLL clock to be used
	while ((MCG_S & MCG_S_CLKST_MASK) != MCG_S_CLKST(3)) ;
     2ac:	799a      	ldrb	r2, [r3, #6]
     2ae:	f002 020c 	and.w	r2, r2, #12
     2b2:	2a0c      	cmp	r2, #12
     2b4:	d1fa      	bne.n	2ac <ResetHandler+0xf0>
	// USB uses PLL clock, trace is CPU clock, CLKOUT=OSCERCLK0
	#if defined(KINETISK)
	#if F_CPU == 216000000 || F_CPU == 180000000
	SIM_SOPT2 = SIM_SOPT2_USBSRC | SIM_SOPT2_IRC48SEL | SIM_SOPT2_TRACECLKSEL | SIM_SOPT2_CLKOUTSEL(6);
	#else
	SIM_SOPT2 = SIM_SOPT2_USBSRC | SIM_SOPT2_PLLFLLSEL | SIM_SOPT2_TRACECLKSEL | SIM_SOPT2_CLKOUTSEL(6);
     2b6:	4b2e      	ldr	r3, [pc, #184]	; (370 <ResetHandler+0x1b4>)
     2b8:	4a2e      	ldr	r2, [pc, #184]	; (374 <ResetHandler+0x1b8>)
     2ba:	601a      	str	r2, [r3, #0]
    // since we are not going into "stop mode" i removed it
	SMC_PMCTRL = SMC_PMCTRL_RUNM(2); // VLPR mode :-)
#endif

	// initialize the SysTick counter
	SYST_RVR = (F_CPU / 1000) - 1;
     2bc:	4b2e      	ldr	r3, [pc, #184]	; (378 <ResetHandler+0x1bc>)
     2be:	f64b 327f 	movw	r2, #47999	; 0xbb7f
     2c2:	601a      	str	r2, [r3, #0]
	SYST_CVR = 0;
     2c4:	2200      	movs	r2, #0
     2c6:	605a      	str	r2, [r3, #4]
	SYST_CSR = SYST_CSR_CLKSOURCE | SYST_CSR_TICKINT | SYST_CSR_ENABLE;
     2c8:	2207      	movs	r2, #7
     2ca:	f843 2c04 	str.w	r2, [r3, #-4]
	SCB_SHPR3 = 0x20200000;  // Systick = priority 32
     2ce:	4a2b      	ldr	r2, [pc, #172]	; (37c <ResetHandler+0x1c0>)
     2d0:	f8c3 2d0c 	str.w	r2, [r3, #3340]	; 0xd0c

	//init_pins();
	__enable_irq();
     2d4:	b662      	cpsie	i

	_init_Teensyduino_internal_();
     2d6:	f002 f999 	bl	260c <_init_Teensyduino_internal_>

#if defined(KINETISK)
	// RTC initialization
	if (RTC_SR & RTC_SR_TIF) {
     2da:	4b14      	ldr	r3, [pc, #80]	; (32c <ResetHandler+0x170>)
     2dc:	681b      	ldr	r3, [r3, #0]
     2de:	07da      	lsls	r2, r3, #31
     2e0:	d505      	bpl.n	2ee <ResetHandler+0x132>
		// compiled-in time will be stale.  Write a special
		// flag into the VBAT register file indicating the
		// RTC is set with known-stale time and should be
		// updated when fresh time is known.
		#if ARDUINO >= 10600
		rtc_set((uint32_t)&__rtc_localtime);
     2e2:	4827      	ldr	r0, [pc, #156]	; (380 <ResetHandler+0x1c4>)
     2e4:	f002 f856 	bl	2394 <rtc_set>
		#else
		rtc_set(TIME_T);
		#endif
		*(uint32_t *)0x4003E01C = 0x5A94C3A5;
     2e8:	4b26      	ldr	r3, [pc, #152]	; (384 <ResetHandler+0x1c8>)
     2ea:	4a27      	ldr	r2, [pc, #156]	; (388 <ResetHandler+0x1cc>)
     2ec:	601a      	str	r2, [r3, #0]
	}
	if ((RCM_SRS0 & RCM_SRS0_PIN) && (*(uint32_t *)0x4003E01C == 0x5A94C3A5)) {
     2ee:	4b27      	ldr	r3, [pc, #156]	; (38c <ResetHandler+0x1d0>)
     2f0:	781b      	ldrb	r3, [r3, #0]
     2f2:	065b      	lsls	r3, r3, #25
     2f4:	d509      	bpl.n	30a <ResetHandler+0x14e>
     2f6:	4c23      	ldr	r4, [pc, #140]	; (384 <ResetHandler+0x1c8>)
     2f8:	4b23      	ldr	r3, [pc, #140]	; (388 <ResetHandler+0x1cc>)
     2fa:	6822      	ldr	r2, [r4, #0]
     2fc:	429a      	cmp	r2, r3
     2fe:	d104      	bne.n	30a <ResetHandler+0x14e>
		// Our compiled-in time will be very fresh, so set
		// the RTC with this, and clear the VBAT resister file
		// data so we don't mess with the time after it's been
		// set well.
		#if ARDUINO >= 10600
		rtc_set((uint32_t)&__rtc_localtime);
     300:	481f      	ldr	r0, [pc, #124]	; (380 <ResetHandler+0x1c4>)
     302:	f002 f847 	bl	2394 <rtc_set>
		#else
		rtc_set(TIME_T);
		#endif
		*(uint32_t *)0x4003E01C = 0;
     306:	2300      	movs	r3, #0
     308:	6023      	str	r3, [r4, #0]
	}
#endif

	__libc_init_array();
     30a:	f004 fa3f 	bl	478c <__libc_init_array>

	startup_late_hook();
     30e:	f001 ffb9 	bl	2284 <startup_late_hook>
	main();
     312:	f003 f937 	bl	3584 <main>
     316:	e7fe      	b.n	316 <ResetHandler+0x15a>
     318:	4005200e 	.word	0x4005200e
     31c:	40048030 	.word	0x40048030
     320:	00043f82 	.word	0x00043f82
     324:	2b000001 	.word	0x2b000001
     328:	4003d010 	.word	0x4003d010
     32c:	4003d014 	.word	0x4003d014
     330:	4007d002 	.word	0x4007d002
     334:	4007e000 	.word	0x4007e000
     338:	1fff9828 	.word	0x1fff9828
     33c:	00009270 	.word	0x00009270
     340:	1fff8720 	.word	0x1fff8720
     344:	1fff9828 	.word	0x1fff9828
     348:	1fff9c00 	.word	0x1fff9c00
     34c:	1fff8200 	.word	0x1fff8200
     350:	00000000 	.word	0x00000000
     354:	e000e400 	.word	0xe000e400
     358:	e000e45f 	.word	0xe000e45f
     35c:	e000ed08 	.word	0xe000ed08
     360:	40065000 	.word	0x40065000
     364:	40064000 	.word	0x40064000
     368:	40048044 	.word	0x40048044
     36c:	11130000 	.word	0x11130000
     370:	40048004 	.word	0x40048004
     374:	000510c0 	.word	0x000510c0
     378:	e000e014 	.word	0xe000e014
     37c:	20200000 	.word	0x20200000
     380:	5ab53c44 	.word	0x5ab53c44
     384:	4003e01c 	.word	0x4003e01c
     388:	5a94c3a5 	.word	0x5a94c3a5
     38c:	4007f000 	.word	0x4007f000
     390:	ffffffff 	.word	0xffffffff
     394:	ffffffff 	.word	0xffffffff
     398:	ffffffff 	.word	0xffffffff
     39c:	ffffffff 	.word	0xffffffff
     3a0:	ffffffff 	.word	0xffffffff
     3a4:	ffffffff 	.word	0xffffffff
     3a8:	ffffffff 	.word	0xffffffff
     3ac:	ffffffff 	.word	0xffffffff
     3b0:	ffffffff 	.word	0xffffffff
     3b4:	ffffffff 	.word	0xffffffff
     3b8:	ffffffff 	.word	0xffffffff
     3bc:	ffffffff 	.word	0xffffffff
     3c0:	ffffffff 	.word	0xffffffff
     3c4:	ffffffff 	.word	0xffffffff
     3c8:	ffffffff 	.word	0xffffffff
     3cc:	ffffffff 	.word	0xffffffff
     3d0:	ffffffff 	.word	0xffffffff
     3d4:	ffffffff 	.word	0xffffffff
     3d8:	ffffffff 	.word	0xffffffff
     3dc:	ffffffff 	.word	0xffffffff
     3e0:	ffffffff 	.word	0xffffffff
     3e4:	ffffffff 	.word	0xffffffff
     3e8:	ffffffff 	.word	0xffffffff
     3ec:	ffffffff 	.word	0xffffffff
     3f0:	ffffffff 	.word	0xffffffff
     3f4:	ffffffff 	.word	0xffffffff
     3f8:	ffffffff 	.word	0xffffffff
     3fc:	ffffffff 	.word	0xffffffff

00000400 <flashconfigbytes>:
     400:	ffffffff ffffffff ffffffff fffff9de     ................

00000410 <__do_global_dtors_aux>:
     410:	b510      	push	{r4, lr}
     412:	4c05      	ldr	r4, [pc, #20]	; (428 <__do_global_dtors_aux+0x18>)
     414:	7823      	ldrb	r3, [r4, #0]
     416:	b933      	cbnz	r3, 426 <__do_global_dtors_aux+0x16>
     418:	4b04      	ldr	r3, [pc, #16]	; (42c <__do_global_dtors_aux+0x1c>)
     41a:	b113      	cbz	r3, 422 <__do_global_dtors_aux+0x12>
     41c:	4804      	ldr	r0, [pc, #16]	; (430 <__do_global_dtors_aux+0x20>)
     41e:	f3af 8000 	nop.w
     422:	2301      	movs	r3, #1
     424:	7023      	strb	r3, [r4, #0]
     426:	bd10      	pop	{r4, pc}
     428:	1fff9828 	.word	0x1fff9828
     42c:	00000000 	.word	0x00000000
     430:	0000926c 	.word	0x0000926c

00000434 <frame_dummy>:
     434:	4b08      	ldr	r3, [pc, #32]	; (458 <frame_dummy+0x24>)
     436:	b510      	push	{r4, lr}
     438:	b11b      	cbz	r3, 442 <frame_dummy+0xe>
     43a:	4908      	ldr	r1, [pc, #32]	; (45c <frame_dummy+0x28>)
     43c:	4808      	ldr	r0, [pc, #32]	; (460 <frame_dummy+0x2c>)
     43e:	f3af 8000 	nop.w
     442:	4808      	ldr	r0, [pc, #32]	; (464 <frame_dummy+0x30>)
     444:	6803      	ldr	r3, [r0, #0]
     446:	b903      	cbnz	r3, 44a <frame_dummy+0x16>
     448:	bd10      	pop	{r4, pc}
     44a:	4b07      	ldr	r3, [pc, #28]	; (468 <frame_dummy+0x34>)
     44c:	2b00      	cmp	r3, #0
     44e:	d0fb      	beq.n	448 <frame_dummy+0x14>
     450:	e8bd 4010 	ldmia.w	sp!, {r4, lr}
     454:	4718      	bx	r3
     456:	bf00      	nop
     458:	00000000 	.word	0x00000000
     45c:	1fff982c 	.word	0x1fff982c
     460:	0000926c 	.word	0x0000926c
     464:	1fff9828 	.word	0x1fff9828
     468:	00000000 	.word	0x00000000

0000046c <Print::availableForWrite()>:
  public:
	constexpr Print() : write_error(0) {}
	virtual size_t write(uint8_t b) = 0;
	size_t write(const char *str)			{ return write((const uint8_t *)str, strlen(str)); }
	virtual size_t write(const uint8_t *buffer, size_t size);
	virtual int availableForWrite(void)		{ return 0; }
     46c:	2000      	movs	r0, #0
     46e:	4770      	bx	lr

00000470 <Systronix_LCM300::~Systronix_LCM300()>:
#define MFR_IOUT_MAX_CMD	0xA6	// linear returns 0xD3A0 = 14.5 amps




class Systronix_LCM300
     470:	b510      	push	{r4, lr}
     472:	4604      	mov	r4, r0
     474:	3008      	adds	r0, #8
     476:	f000 fcc1 	bl	dfc <i2c_t3::~i2c_t3()>
     47a:	4620      	mov	r0, r4
     47c:	bd10      	pop	{r4, pc}
     47e:	bf00      	nop

00000480 <setup>:

Systronix_LCM300 lcm300_58;    // supply at default address

/* ========== SETUP ========== */
void setup(void) 
{
     480:	b570      	push	{r4, r5, r6, lr}
     482:	b086      	sub	sp, #24
        uint8_t paritytype(void) { return usb_cdc_line_coding[1] >> 8; } // 0=none, 1=odd, 2=even
        uint8_t numbits(void) { return usb_cdc_line_coding[1] >> 16; }
        uint8_t dtr(void) { return (usb_cdc_line_rtsdtr & USB_SERIAL_DTR) ? 1 : 0; }
        uint8_t rts(void) { return (usb_cdc_line_rtsdtr & USB_SERIAL_RTS) ? 1 : 0; }
        operator bool() { return usb_configuration &&
		(usb_cdc_line_rtsdtr & (USB_SERIAL_DTR | USB_SERIAL_RTS)) &&
     484:	4937      	ldr	r1, [pc, #220]	; (564 <setup+0xe4>)
     486:	4c38      	ldr	r4, [pc, #224]	; (568 <setup+0xe8>)
		((uint32_t)(systick_millis_count - usb_cdc_line_rtsdtr_millis) >= 25);
     488:	4a38      	ldr	r2, [pc, #224]	; (56c <setup+0xec>)
     48a:	4e39      	ldr	r6, [pc, #228]	; (570 <setup+0xf0>)

  
  Serial.begin(115200);     // use max baud rate
  // Teensy3 doesn't reset with Serial Monitor as do Teensy2/++2, or wait for Serial Monitor window
  // Wait here for 10 seconds to see if we will use Serial Monitor, so output is not lost
  while((!Serial) && (millis()<10000));    // wait until serial monitor is open or timeout, which seems to fall through
     48c:	f242 700f 	movw	r0, #9999	; 0x270f
        uint8_t paritytype(void) { return usb_cdc_line_coding[1] >> 8; } // 0=none, 1=odd, 2=even
        uint8_t numbits(void) { return usb_cdc_line_coding[1] >> 16; }
        uint8_t dtr(void) { return (usb_cdc_line_rtsdtr & USB_SERIAL_DTR) ? 1 : 0; }
        uint8_t rts(void) { return (usb_cdc_line_rtsdtr & USB_SERIAL_RTS) ? 1 : 0; }
        operator bool() { return usb_configuration &&
		(usb_cdc_line_rtsdtr & (USB_SERIAL_DTR | USB_SERIAL_RTS)) &&
     490:	780b      	ldrb	r3, [r1, #0]
     492:	f013 0fff 	tst.w	r3, #255	; 0xff
     496:	d05d      	beq.n	554 <setup+0xd4>
     498:	7823      	ldrb	r3, [r4, #0]
        uint8_t stopbits(void) { uint8_t b = usb_cdc_line_coding[1]; if (!b) b = 1; return b; }
        uint8_t paritytype(void) { return usb_cdc_line_coding[1] >> 8; } // 0=none, 1=odd, 2=even
        uint8_t numbits(void) { return usb_cdc_line_coding[1] >> 16; }
        uint8_t dtr(void) { return (usb_cdc_line_rtsdtr & USB_SERIAL_DTR) ? 1 : 0; }
        uint8_t rts(void) { return (usb_cdc_line_rtsdtr & USB_SERIAL_RTS) ? 1 : 0; }
        operator bool() { return usb_configuration &&
     49a:	f013 0f03 	tst.w	r3, #3
     49e:	d059      	beq.n	554 <setup+0xd4>
		(usb_cdc_line_rtsdtr & (USB_SERIAL_DTR | USB_SERIAL_RTS)) &&
		((uint32_t)(systick_millis_count - usb_cdc_line_rtsdtr_millis) >= 25);
     4a0:	6813      	ldr	r3, [r2, #0]
     4a2:	6835      	ldr	r5, [r6, #0]
        uint8_t paritytype(void) { return usb_cdc_line_coding[1] >> 8; } // 0=none, 1=odd, 2=even
        uint8_t numbits(void) { return usb_cdc_line_coding[1] >> 16; }
        uint8_t dtr(void) { return (usb_cdc_line_rtsdtr & USB_SERIAL_DTR) ? 1 : 0; }
        uint8_t rts(void) { return (usb_cdc_line_rtsdtr & USB_SERIAL_RTS) ? 1 : 0; }
        operator bool() { return usb_configuration &&
		(usb_cdc_line_rtsdtr & (USB_SERIAL_DTR | USB_SERIAL_RTS)) &&
     4a4:	1b5b      	subs	r3, r3, r5
     4a6:	2b18      	cmp	r3, #24
     4a8:	d954      	bls.n	554 <setup+0xd4>
#define BYTE 0
#endif

class __FlashStringHelper;

class Print
     4aa:	4b32      	ldr	r3, [pc, #200]	; (574 <setup+0xf4>)
     4ac:	791a      	ldrb	r2, [r3, #4]
     4ae:	f88d 2008 	strb.w	r2, [sp, #8]
#define Stream_h

#include <inttypes.h>
#include "Print.h"

class Stream : public Print
     4b2:	689a      	ldr	r2, [r3, #8]
     4b4:	9203      	str	r2, [sp, #12]
     4b6:	7b1a      	ldrb	r2, [r3, #12]
     4b8:	f88d 2010 	strb.w	r2, [sp, #16]
#if I2C_BUS_NUM >= 4
    extern "C" void i2c3_isr(void);
#endif
extern "C" void i2c_isr_handler(struct i2cStruct* i2c, uint8_t bus);

class i2c_t3 : public Stream
     4bc:	4a2e      	ldr	r2, [pc, #184]	; (578 <setup+0xf8>)
     4be:	9201      	str	r2, [sp, #4]
     4c0:	7b5a      	ldrb	r2, [r3, #13]
     4c2:	f88d 2011 	strb.w	r2, [sp, #17]
     4c6:	691b      	ldr	r3, [r3, #16]
     4c8:	9305      	str	r3, [sp, #20]

  // start LCM300 library
  lcm300_58.setup (LCM300_BASE_MIN, Wire1, (char*)"Wire1");
     4ca:	4d2c      	ldr	r5, [pc, #176]	; (57c <setup+0xfc>)
     4cc:	4b2c      	ldr	r3, [pc, #176]	; (580 <setup+0x100>)
     4ce:	aa01      	add	r2, sp, #4
     4d0:	2158      	movs	r1, #88	; 0x58
     4d2:	4628      	mov	r0, r5
     4d4:	f000 fab2 	bl	a3c <Systronix_LCM300::setup(unsigned char, i2c_t3, char*)>
     4d8:	a801      	add	r0, sp, #4
     4da:	f000 fc8f 	bl	dfc <i2c_t3::~i2c_t3()>

	Serial.printf ("LCM300Q Library Test Code at 0x%.2X", lcm300_58.base_get());
     4de:	4628      	mov	r0, r5
     4e0:	f000 fa32 	bl	948 <Systronix_LCM300::base_get()>
     4e4:	4c27      	ldr	r4, [pc, #156]	; (584 <setup+0x104>)
     4e6:	4602      	mov	r2, r0
     4e8:	4927      	ldr	r1, [pc, #156]	; (588 <setup+0x108>)
     4ea:	4620      	mov	r0, r4
     4ec:	f002 fff6 	bl	34dc <Print::printf(char const*, ...)>
//  Serial.println(lcm300_58.BaseAddr, HEX);

  lcm300_58.begin(I2C_PINS_29_30);
     4f0:	2102      	movs	r1, #2
     4f2:	4628      	mov	r0, r5
     4f4:	f000 fa0c 	bl	910 <Systronix_LCM300::begin(i2c_pins)>
  lcm300_58.init();
     4f8:	4628      	mov	r0, r5
     4fa:	f000 fa27 	bl	94c <Systronix_LCM300::init()>
   
//  int8_t flag = -1;  // I2C returns 0 if no error
  
  dtime = 2000;      // msec between samples, 1000 = 1 sec, 60,000 = 1 minute
     4fe:	4d23      	ldr	r5, [pc, #140]	; (58c <setup+0x10c>)
     500:	f44f 63fa 	mov.w	r3, #2000	; 0x7d0
     504:	802b      	strh	r3, [r5, #0]
{
  public:
	constexpr Print() : write_error(0) {}
	virtual size_t write(uint8_t b) = 0;
	size_t write(const char *str)			{ return write((const uint8_t *)str, strlen(str)); }
     506:	6823      	ldr	r3, [r4, #0]
     508:	685b      	ldr	r3, [r3, #4]
     50a:	220d      	movs	r2, #13
     50c:	4920      	ldr	r1, [pc, #128]	; (590 <setup+0x110>)
     50e:	4620      	mov	r0, r4
     510:	4798      	blx	r3
	size_t print(char c)				{ return write((uint8_t)c); }
	size_t print(const char s[])			{ return write(s); }
	size_t print(const __FlashStringHelper *f)	{ return write((const char *)f); }

	size_t print(uint8_t b)				{ return printNumber(b, 10, 0); }
	size_t print(int n)				{ return print((long)n); }
     512:	882b      	ldrh	r3, [r5, #0]
     514:	491f      	ldr	r1, [pc, #124]	; (594 <setup+0x114>)
     516:	fba1 3103 	umull	r3, r1, r1, r3
     51a:	0989      	lsrs	r1, r1, #6
     51c:	4620      	mov	r0, r4
     51e:	f003 f827 	bl	3570 <Print::print(long)>
class Print
{
  public:
	constexpr Print() : write_error(0) {}
	virtual size_t write(uint8_t b) = 0;
	size_t write(const char *str)			{ return write((const uint8_t *)str, strlen(str)); }
     522:	6823      	ldr	r3, [r4, #0]
     524:	685b      	ldr	r3, [r3, #4]
     526:	2206      	movs	r2, #6
     528:	491b      	ldr	r1, [pc, #108]	; (598 <setup+0x118>)
     52a:	4620      	mov	r0, r4
     52c:	4798      	blx	r3
     52e:	6823      	ldr	r3, [r4, #0]
     530:	685b      	ldr	r3, [r3, #4]
     532:	220f      	movs	r2, #15
     534:	4919      	ldr	r1, [pc, #100]	; (59c <setup+0x11c>)
     536:	4620      	mov	r0, r4
     538:	4798      	blx	r3
	size_t print(double n, int digits = 2)		{ return printFloat(n, digits); }
	size_t print(const Printable &obj)		{ return obj.printTo(*this); }
	size_t println(void);
	size_t println(const String &s)			{ return print(s) + println(); }
	size_t println(char c)				{ return print(c) + println(); }
	size_t println(const char s[])			{ return print(s) + println(); }
     53a:	4620      	mov	r0, r4
     53c:	f002 ffb6 	bl	34ac <Print::println()>
class Print
{
  public:
	constexpr Print() : write_error(0) {}
	virtual size_t write(uint8_t b) = 0;
	size_t write(const char *str)			{ return write((const uint8_t *)str, strlen(str)); }
     540:	6823      	ldr	r3, [r4, #0]
     542:	685b      	ldr	r3, [r3, #4]
     544:	2201      	movs	r2, #1
     546:	4916      	ldr	r1, [pc, #88]	; (5a0 <setup+0x120>)
     548:	4620      	mov	r0, r4
     54a:	4798      	blx	r3
	size_t print(double n, int digits = 2)		{ return printFloat(n, digits); }
	size_t print(const Printable &obj)		{ return obj.printTo(*this); }
	size_t println(void);
	size_t println(const String &s)			{ return print(s) + println(); }
	size_t println(char c)				{ return print(c) + println(); }
	size_t println(const char s[])			{ return print(s) + println(); }
     54c:	4620      	mov	r0, r4
     54e:	f002 ffad 	bl	34ac <Print::println()>
 
  Serial.println("Setup Complete!");
  Serial.println(" "); 
  

}
     552:	e005      	b.n	560 <setup+0xe0>
	// do not remove this "redundant" code without
	// carefully verifying the case mentioned here:
	//
	// https://forum.pjrc.com/threads/17469-millis%28%29-on-teensy-3?p=104924&viewfull=1#post104924
	//
	volatile uint32_t ret = systick_millis_count; // single aligned 32 bit is atomic
     554:	6813      	ldr	r3, [r2, #0]
     556:	9300      	str	r3, [sp, #0]
	return ret;
     558:	9b00      	ldr	r3, [sp, #0]

  
  Serial.begin(115200);     // use max baud rate
  // Teensy3 doesn't reset with Serial Monitor as do Teensy2/++2, or wait for Serial Monitor window
  // Wait here for 10 seconds to see if we will use Serial Monitor, so output is not lost
  while((!Serial) && (millis()<10000));    // wait until serial monitor is open or timeout, which seems to fall through
     55a:	4283      	cmp	r3, r0
     55c:	d998      	bls.n	490 <setup+0x10>
     55e:	e7a4      	b.n	4aa <setup+0x2a>
 
  Serial.println("Setup Complete!");
  Serial.println(" "); 
  

}
     560:	b006      	add	sp, #24
     562:	bd70      	pop	{r4, r5, r6, pc}
     564:	1fff99f4 	.word	0x1fff99f4
     568:	1fff9a04 	.word	0x1fff9a04
     56c:	1fff9910 	.word	0x1fff9910
     570:	1fff9bf8 	.word	0x1fff9bf8
     574:	1fff98e8 	.word	0x1fff98e8
     578:	00008cfc 	.word	0x00008cfc
     57c:	1fff9858 	.word	0x1fff9858
     580:	00008a58 	.word	0x00008a58
     584:	1fff8dc8 	.word	0x1fff8dc8
     588:	00008a60 	.word	0x00008a60
     58c:	1fff98c0 	.word	0x1fff98c0
     590:	00008a84 	.word	0x00008a84
     594:	10624dd3 	.word	0x10624dd3
     598:	00008a94 	.word	0x00008a94
     59c:	00008a9c 	.word	0x00008a9c
     5a0:	00008c6c 	.word	0x00008c6c

000005a4 <loop>:

bool verbose = false; // don't print out detailed info about the PMBus command transaction

/* ========== LOOP ========== */
void loop(void) 
{
     5a4:	e92d 4ff0 	stmdb	sp!, {r4, r5, r6, r7, r8, r9, sl, fp, lr}
     5a8:	b085      	sub	sp, #20
	// do not remove this "redundant" code without
	// carefully verifying the case mentioned here:
	//
	// https://forum.pjrc.com/threads/17469-millis%28%29-on-teensy-3?p=104924&viewfull=1#post104924
	//
	volatile uint32_t ret = systick_millis_count; // single aligned 32 bit is atomic
     5aa:	4ba9      	ldr	r3, [pc, #676]	; (850 <loop+0x2ac>)
     5ac:	681b      	ldr	r3, [r3, #0]
     5ae:	9303      	str	r3, [sp, #12]
	return ret;
     5b0:	9b03      	ldr	r3, [sp, #12]
//  int16_t temp0;
//  int8_t stat=-1;  // status flag
//  float temp;
  

  Serial.printf("@%u\r\n", millis()/1000);
     5b2:	4aa8      	ldr	r2, [pc, #672]	; (854 <loop+0x2b0>)
     5b4:	fba2 3203 	umull	r3, r2, r2, r3
     5b8:	4ea7      	ldr	r6, [pc, #668]	; (858 <loop+0x2b4>)
     5ba:	0992      	lsrs	r2, r2, #6
     5bc:	49a7      	ldr	r1, [pc, #668]	; (85c <loop+0x2b8>)
     5be:	4630      	mov	r0, r6
     5c0:	f002 ff8c 	bl	34dc <Print::printf(char const*, ...)>
  
  

  read_cnt = 4;
     5c4:	f8df 92f8 	ldr.w	r9, [pc, #760]	; 8c0 <loop+0x31c>
     5c8:	2404      	movs	r4, #4
     5ca:	f8c9 4000 	str.w	r4, [r9]
  result = lcm300_58.command_raw_read (PMBUS_REVISION_CMD, read_cnt, raw_chars);
     5ce:	4da4      	ldr	r5, [pc, #656]	; (860 <loop+0x2bc>)
     5d0:	f8df 82f0 	ldr.w	r8, [pc, #752]	; 8c4 <loop+0x320>
     5d4:	462b      	mov	r3, r5
     5d6:	4622      	mov	r2, r4
     5d8:	2198      	movs	r1, #152	; 0x98
     5da:	4640      	mov	r0, r8
     5dc:	f000 fa48 	bl	a70 <Systronix_LCM300::command_raw_read(int, unsigned int, char*)>
     5e0:	4fa0      	ldr	r7, [pc, #640]	; (864 <loop+0x2c0>)
     5e2:	7038      	strb	r0, [r7, #0]
  Serial.printf("PMBus rev: %s\r\n\n", raw_chars);
     5e4:	462a      	mov	r2, r5
     5e6:	49a0      	ldr	r1, [pc, #640]	; (868 <loop+0x2c4>)
     5e8:	4630      	mov	r0, r6
     5ea:	f002 ff77 	bl	34dc <Print::printf(char const*, ...)>
  delay(50);
     5ee:	2032      	movs	r0, #50	; 0x32
     5f0:	f001 fff6 	bl	25e0 <delay>

  read_cnt = 2;
     5f4:	2202      	movs	r2, #2
     5f6:	f8c9 2000 	str.w	r2, [r9]
  result = lcm300_58.command_raw_read (VOUT_MODE_CMD, read_cnt, raw_chars);
     5fa:	462b      	mov	r3, r5
     5fc:	2120      	movs	r1, #32
     5fe:	4640      	mov	r0, r8
     600:	f000 fa36 	bl	a70 <Systronix_LCM300::command_raw_read(int, unsigned int, char*)>
     604:	7038      	strb	r0, [r7, #0]
  Serial.printf("Vout Mode: %s\r\n\n", raw_chars);  
     606:	462a      	mov	r2, r5
     608:	4998      	ldr	r1, [pc, #608]	; (86c <loop+0x2c8>)
     60a:	4630      	mov	r0, r6
     60c:	f002 ff66 	bl	34dc <Print::printf(char const*, ...)>
  delay(50);
     610:	2032      	movs	r0, #50	; 0x32
     612:	f001 ffe5 	bl	25e0 <delay>

  read_cnt = 4;
     616:	f8c9 4000 	str.w	r4, [r9]
  result = lcm300_58.command_raw_read (READ_TEMPERATURE_2_CMD, read_cnt, raw_chars);
     61a:	462b      	mov	r3, r5
     61c:	4622      	mov	r2, r4
     61e:	218d      	movs	r1, #141	; 0x8d
     620:	4640      	mov	r0, r8
     622:	f000 fa25 	bl	a70 <Systronix_LCM300::command_raw_read(int, unsigned int, char*)>
     626:	7038      	strb	r0, [r7, #0]
  Serial.printf("Temperature 2: %s\r\n\n", raw_chars);  
     628:	462a      	mov	r2, r5
     62a:	4991      	ldr	r1, [pc, #580]	; (870 <loop+0x2cc>)
     62c:	4630      	mov	r0, r6
     62e:	f002 ff55 	bl	34dc <Print::printf(char const*, ...)>
  delay(50);
     632:	2032      	movs	r0, #50	; 0x32
     634:	f001 ffd4 	bl	25e0 <delay>

  read_cnt = 4;
     638:	f8c9 4000 	str.w	r4, [r9]
  result = lcm300_58.command_raw_read (VOUT_COMMAND_CMD, read_cnt, raw_chars);
     63c:	462b      	mov	r3, r5
     63e:	4622      	mov	r2, r4
     640:	2121      	movs	r1, #33	; 0x21
     642:	4640      	mov	r0, r8
     644:	f000 fa14 	bl	a70 <Systronix_LCM300::command_raw_read(int, unsigned int, char*)>
     648:	7038      	strb	r0, [r7, #0]
  Serial.printf("Vout Set Command: %s\r\n\n", raw_chars);  
     64a:	462a      	mov	r2, r5
     64c:	4989      	ldr	r1, [pc, #548]	; (874 <loop+0x2d0>)
     64e:	4630      	mov	r0, r6
     650:	f002 ff44 	bl	34dc <Print::printf(char const*, ...)>
  delay(50);
     654:	2032      	movs	r0, #50	; 0x32
     656:	f001 ffc3 	bl	25e0 <delay>

  read_cnt = 4;
     65a:	f8c9 4000 	str.w	r4, [r9]
  result = lcm300_58.command_raw_read (READ_VOUT_CMD, read_cnt, raw_chars);
     65e:	462b      	mov	r3, r5
     660:	4622      	mov	r2, r4
     662:	218b      	movs	r1, #139	; 0x8b
     664:	4640      	mov	r0, r8
     666:	f000 fa03 	bl	a70 <Systronix_LCM300::command_raw_read(int, unsigned int, char*)>
     66a:	7038      	strb	r0, [r7, #0]
  Serial.printf("Read Vout: %s\r\n\n", raw_chars);  
     66c:	462a      	mov	r2, r5
     66e:	4982      	ldr	r1, [pc, #520]	; (878 <loop+0x2d4>)
     670:	4630      	mov	r0, r6
     672:	f002 ff33 	bl	34dc <Print::printf(char const*, ...)>
  delay(50);
     676:	2032      	movs	r0, #50	; 0x32
     678:	f001 ffb2 	bl	25e0 <delay>

  read_cnt = 4;
     67c:	f8c9 4000 	str.w	r4, [r9]
  result = lcm300_58.command_raw_read (MFR_VOUT_MIN_CMD, read_cnt, raw_chars);
     680:	462b      	mov	r3, r5
     682:	4622      	mov	r2, r4
     684:	21a4      	movs	r1, #164	; 0xa4
     686:	4640      	mov	r0, r8
     688:	f000 f9f2 	bl	a70 <Systronix_LCM300::command_raw_read(int, unsigned int, char*)>
     68c:	7038      	strb	r0, [r7, #0]
  Serial.printf("Vout Min: %s\r\n\n", raw_chars);  
     68e:	462a      	mov	r2, r5
     690:	497a      	ldr	r1, [pc, #488]	; (87c <loop+0x2d8>)
     692:	4630      	mov	r0, r6
     694:	f002 ff22 	bl	34dc <Print::printf(char const*, ...)>
  
  read_cnt = 4;
     698:	f8c9 4000 	str.w	r4, [r9]
  result = lcm300_58.command_raw_read (MFR_VOUT_MAX_CMD, read_cnt, raw_chars);
     69c:	462b      	mov	r3, r5
     69e:	4622      	mov	r2, r4
     6a0:	21a5      	movs	r1, #165	; 0xa5
     6a2:	4640      	mov	r0, r8
     6a4:	f000 f9e4 	bl	a70 <Systronix_LCM300::command_raw_read(int, unsigned int, char*)>
     6a8:	7038      	strb	r0, [r7, #0]
  Serial.printf("Mfr Vout Max: %s\r\n\n", raw_chars);  
     6aa:	462a      	mov	r2, r5
     6ac:	4974      	ldr	r1, [pc, #464]	; (880 <loop+0x2dc>)
     6ae:	4630      	mov	r0, r6
     6b0:	f002 ff14 	bl	34dc <Print::printf(char const*, ...)>

  read_cnt = 4;
     6b4:	f8c9 4000 	str.w	r4, [r9]
  result = lcm300_58.command_raw_read (VOUT_MAX_CMD, read_cnt, raw_chars);
     6b8:	462b      	mov	r3, r5
     6ba:	4622      	mov	r2, r4
     6bc:	2124      	movs	r1, #36	; 0x24
     6be:	4640      	mov	r0, r8
     6c0:	f000 f9d6 	bl	a70 <Systronix_LCM300::command_raw_read(int, unsigned int, char*)>
     6c4:	7038      	strb	r0, [r7, #0]
  Serial.printf("Vout Max: %s\r\n\n", raw_chars);  
     6c6:	462a      	mov	r2, r5
     6c8:	496e      	ldr	r1, [pc, #440]	; (884 <loop+0x2e0>)
     6ca:	4630      	mov	r0, r6
     6cc:	f002 ff06 	bl	34dc <Print::printf(char const*, ...)>

  read_cnt = 4;
     6d0:	f8c9 4000 	str.w	r4, [r9]
  result = lcm300_58.command_raw_read (MFR_IOUT_MAX_CMD, read_cnt, raw_chars);
     6d4:	462b      	mov	r3, r5
     6d6:	4622      	mov	r2, r4
     6d8:	21a6      	movs	r1, #166	; 0xa6
     6da:	4640      	mov	r0, r8
     6dc:	f000 f9c8 	bl	a70 <Systronix_LCM300::command_raw_read(int, unsigned int, char*)>
     6e0:	7038      	strb	r0, [r7, #0]
  Serial.printf("%u Iout Max: %s\r\n\n", raw_chars);   
     6e2:	462a      	mov	r2, r5
     6e4:	4968      	ldr	r1, [pc, #416]	; (888 <loop+0x2e4>)
     6e6:	4630      	mov	r0, r6
     6e8:	f002 fef8 	bl	34dc <Print::printf(char const*, ...)>

  read_cnt = 4;
     6ec:	f8c9 4000 	str.w	r4, [r9]
  result = lcm300_58.command_raw_read (READ_IOUT_CMD, read_cnt, raw_chars);
     6f0:	462b      	mov	r3, r5
     6f2:	4622      	mov	r2, r4
     6f4:	218c      	movs	r1, #140	; 0x8c
     6f6:	4640      	mov	r0, r8
     6f8:	f000 f9ba 	bl	a70 <Systronix_LCM300::command_raw_read(int, unsigned int, char*)>
     6fc:	7038      	strb	r0, [r7, #0]
  Serial.printf("Iout: %s\r\n\n", raw_chars);  
     6fe:	462a      	mov	r2, r5
     700:	4962      	ldr	r1, [pc, #392]	; (88c <loop+0x2e8>)
     702:	4630      	mov	r0, r6
     704:	f002 feea 	bl	34dc <Print::printf(char const*, ...)>

  read_cnt = 4;
     708:	f8c9 4000 	str.w	r4, [r9]
  result = lcm300_58.command_raw_read (MFR_IOUT_MAX_CMD, read_cnt, raw_chars);
     70c:	462b      	mov	r3, r5
     70e:	4622      	mov	r2, r4
     710:	21a6      	movs	r1, #166	; 0xa6
     712:	4640      	mov	r0, r8
     714:	f000 f9ac 	bl	a70 <Systronix_LCM300::command_raw_read(int, unsigned int, char*)>
     718:	7038      	strb	r0, [r7, #0]
  Serial.printf("Iout Max: %s\r\n\n", raw_chars);  
     71a:	462a      	mov	r2, r5
     71c:	495c      	ldr	r1, [pc, #368]	; (890 <loop+0x2ec>)
     71e:	4630      	mov	r0, r6
     720:	f002 fedc 	bl	34dc <Print::printf(char const*, ...)>

  read_cnt = 4;
     724:	f8c9 4000 	str.w	r4, [r9]
  result = lcm300_58.command_raw_read (READ_FAN_SPEED_CMD, read_cnt, raw_chars);
     728:	462b      	mov	r3, r5
     72a:	4622      	mov	r2, r4
     72c:	2190      	movs	r1, #144	; 0x90
     72e:	4640      	mov	r0, r8
     730:	f000 f99e 	bl	a70 <Systronix_LCM300::command_raw_read(int, unsigned int, char*)>
     734:	7038      	strb	r0, [r7, #0]
  Serial.printf("Fan speed: %s\r\n", raw_chars); 
     736:	462a      	mov	r2, r5
     738:	4956      	ldr	r1, [pc, #344]	; (894 <loop+0x2f0>)
     73a:	4630      	mov	r0, r6
     73c:	f002 fece 	bl	34dc <Print::printf(char const*, ...)>

  read_cnt = 4;
     740:	f8c9 4000 	str.w	r4, [r9]
  result = lcm300_58.command_raw_read (READ_POUT_CMD, read_cnt, raw_chars);
     744:	462b      	mov	r3, r5
     746:	4622      	mov	r2, r4
     748:	2196      	movs	r1, #150	; 0x96
     74a:	4640      	mov	r0, r8
     74c:	f000 f990 	bl	a70 <Systronix_LCM300::command_raw_read(int, unsigned int, char*)>
     750:	7038      	strb	r0, [r7, #0]
  Serial.printf("Pout, watts: %s\r\n", raw_chars); 
     752:	462a      	mov	r2, r5
     754:	4950      	ldr	r1, [pc, #320]	; (898 <loop+0x2f4>)
     756:	4630      	mov	r0, r6
     758:	f002 fec0 	bl	34dc <Print::printf(char const*, ...)>

  // some ascii commands and their output
  verbose = false;  // detailed debug data or not?
     75c:	f8df a168 	ldr.w	sl, [pc, #360]	; 8c8 <loop+0x324>
     760:	2300      	movs	r3, #0
     762:	f88a 3000 	strb.w	r3, [sl]
  Serial.printf("\r\nASCII commands:\r\n");
     766:	494d      	ldr	r1, [pc, #308]	; (89c <loop+0x2f8>)
     768:	4630      	mov	r0, r6
     76a:	f002 feb7 	bl	34dc <Print::printf(char const*, ...)>
  result = lcm300_58.command_ascii_read(MFR_ID_CMD, 7, ascii, verbose);
     76e:	4d4c      	ldr	r5, [pc, #304]	; (8a0 <loop+0x2fc>)
     770:	f89a 3000 	ldrb.w	r3, [sl]
     774:	9300      	str	r3, [sp, #0]
     776:	462b      	mov	r3, r5
     778:	2207      	movs	r2, #7
     77a:	2199      	movs	r1, #153	; 0x99
     77c:	4640      	mov	r0, r8
     77e:	f000 fa01 	bl	b84 <Systronix_LCM300::command_ascii_read(int, unsigned int, char*, bool)>
     782:	7038      	strb	r0, [r7, #0]
  Serial.printf("mfr ID: %s\r\n", ascii);
     784:	462a      	mov	r2, r5
     786:	4947      	ldr	r1, [pc, #284]	; (8a4 <loop+0x300>)
     788:	4630      	mov	r0, r6
     78a:	f002 fea7 	bl	34dc <Print::printf(char const*, ...)>

  read_cnt = 10;
     78e:	f04f 0b0a 	mov.w	fp, #10
     792:	f8c9 b000 	str.w	fp, [r9]
  result = lcm300_58.command_ascii_read (MFR_MODEL_CMD, read_cnt, ascii, verbose);
     796:	f89a 3000 	ldrb.w	r3, [sl]
     79a:	9300      	str	r3, [sp, #0]
     79c:	462b      	mov	r3, r5
     79e:	465a      	mov	r2, fp
     7a0:	219a      	movs	r1, #154	; 0x9a
     7a2:	4640      	mov	r0, r8
     7a4:	f000 f9ee 	bl	b84 <Systronix_LCM300::command_ascii_read(int, unsigned int, char*, bool)>
     7a8:	7038      	strb	r0, [r7, #0]
  Serial.printf("model: %s\r\n", ascii);
     7aa:	462a      	mov	r2, r5
     7ac:	493e      	ldr	r1, [pc, #248]	; (8a8 <loop+0x304>)
     7ae:	4630      	mov	r0, r6
     7b0:	f002 fe94 	bl	34dc <Print::printf(char const*, ...)>

  read_cnt = 4;
     7b4:	f8c9 4000 	str.w	r4, [r9]
  result = lcm300_58.command_ascii_read (MFR_REVISION_CMD, read_cnt, ascii, verbose);
     7b8:	f89a 3000 	ldrb.w	r3, [sl]
     7bc:	9300      	str	r3, [sp, #0]
     7be:	462b      	mov	r3, r5
     7c0:	4622      	mov	r2, r4
     7c2:	219b      	movs	r1, #155	; 0x9b
     7c4:	4640      	mov	r0, r8
     7c6:	f000 f9dd 	bl	b84 <Systronix_LCM300::command_ascii_read(int, unsigned int, char*, bool)>
     7ca:	7038      	strb	r0, [r7, #0]
  Serial.printf("revision: %s\r\n", ascii);
     7cc:	462a      	mov	r2, r5
     7ce:	4937      	ldr	r1, [pc, #220]	; (8ac <loop+0x308>)
     7d0:	4630      	mov	r0, r6
     7d2:	f002 fe83 	bl	34dc <Print::printf(char const*, ...)>
 
  read_cnt = 10;
     7d6:	f8c9 b000 	str.w	fp, [r9]
  result = lcm300_58.command_ascii_read (MFR_LOCATION_CMD, read_cnt, ascii, verbose);
     7da:	f89a 3000 	ldrb.w	r3, [sl]
     7de:	9300      	str	r3, [sp, #0]
     7e0:	462b      	mov	r3, r5
     7e2:	465a      	mov	r2, fp
     7e4:	219c      	movs	r1, #156	; 0x9c
     7e6:	4640      	mov	r0, r8
     7e8:	f000 f9cc 	bl	b84 <Systronix_LCM300::command_ascii_read(int, unsigned int, char*, bool)>
     7ec:	7038      	strb	r0, [r7, #0]
  Serial.printf("location: %s\r\n", ascii); 
     7ee:	462a      	mov	r2, r5
     7f0:	492f      	ldr	r1, [pc, #188]	; (8b0 <loop+0x30c>)
     7f2:	4630      	mov	r0, r6
     7f4:	f002 fe72 	bl	34dc <Print::printf(char const*, ...)>

  read_cnt = 8;
     7f8:	2208      	movs	r2, #8
     7fa:	f8c9 2000 	str.w	r2, [r9]
  result = lcm300_58.command_ascii_read (MFR_DATE_CMD, read_cnt, ascii, verbose);
     7fe:	f89a 3000 	ldrb.w	r3, [sl]
     802:	9300      	str	r3, [sp, #0]
     804:	462b      	mov	r3, r5
     806:	219d      	movs	r1, #157	; 0x9d
     808:	4640      	mov	r0, r8
     80a:	f000 f9bb 	bl	b84 <Systronix_LCM300::command_ascii_read(int, unsigned int, char*, bool)>
     80e:	7038      	strb	r0, [r7, #0]
  Serial.printf("Mfg Date: %s\r\n", ascii); 
     810:	462a      	mov	r2, r5
     812:	4928      	ldr	r1, [pc, #160]	; (8b4 <loop+0x310>)
     814:	4630      	mov	r0, r6
     816:	f002 fe61 	bl	34dc <Print::printf(char const*, ...)>

  read_cnt = 10;
     81a:	f8c9 b000 	str.w	fp, [r9]
  result = lcm300_58.command_ascii_read (MFR_SERIAL_CMD, read_cnt, ascii, verbose);
     81e:	f89a 3000 	ldrb.w	r3, [sl]
     822:	9300      	str	r3, [sp, #0]
     824:	462b      	mov	r3, r5
     826:	465a      	mov	r2, fp
     828:	219e      	movs	r1, #158	; 0x9e
     82a:	4640      	mov	r0, r8
     82c:	f000 f9aa 	bl	b84 <Systronix_LCM300::command_ascii_read(int, unsigned int, char*, bool)>
     830:	7038      	strb	r0, [r7, #0]
  Serial.printf("Mfg Serial: %s\r\n", ascii); 
     832:	462a      	mov	r2, r5
     834:	4920      	ldr	r1, [pc, #128]	; (8b8 <loop+0x314>)
     836:	4630      	mov	r0, r6
     838:	f002 fe50 	bl	34dc <Print::printf(char const*, ...)>


  Serial.println();
     83c:	4630      	mov	r0, r6
     83e:	f002 fe35 	bl	34ac <Print::println()>
  
  
  delay(dtime);
     842:	4b1e      	ldr	r3, [pc, #120]	; (8bc <loop+0x318>)
     844:	8818      	ldrh	r0, [r3, #0]
     846:	f001 fecb 	bl	25e0 <delay>
}
     84a:	b005      	add	sp, #20
     84c:	e8bd 8ff0 	ldmia.w	sp!, {r4, r5, r6, r7, r8, r9, sl, fp, pc}
     850:	1fff9910 	.word	0x1fff9910
     854:	10624dd3 	.word	0x10624dd3
     858:	1fff8dc8 	.word	0x1fff8dc8
     85c:	00008aac 	.word	0x00008aac
     860:	1fff9844 	.word	0x1fff9844
     864:	1fff98e5 	.word	0x1fff98e5
     868:	00008ab4 	.word	0x00008ab4
     86c:	00008ac8 	.word	0x00008ac8
     870:	00008adc 	.word	0x00008adc
     874:	00008af4 	.word	0x00008af4
     878:	00008b0c 	.word	0x00008b0c
     87c:	00008b20 	.word	0x00008b20
     880:	00008b30 	.word	0x00008b30
     884:	00008b34 	.word	0x00008b34
     888:	00008b44 	.word	0x00008b44
     88c:	00008b58 	.word	0x00008b58
     890:	00008b64 	.word	0x00008b64
     894:	00008b74 	.word	0x00008b74
     898:	00008b84 	.word	0x00008b84
     89c:	00008b98 	.word	0x00008b98
     8a0:	1fff98c4 	.word	0x1fff98c4
     8a4:	00008bac 	.word	0x00008bac
     8a8:	00008bbc 	.word	0x00008bbc
     8ac:	00008bc8 	.word	0x00008bc8
     8b0:	00008bd8 	.word	0x00008bd8
     8b4:	00008be8 	.word	0x00008be8
     8b8:	00008bf8 	.word	0x00008bf8
     8bc:	1fff98c0 	.word	0x1fff98c0
     8c0:	1fff9854 	.word	0x1fff9854
     8c4:	1fff9858 	.word	0x1fff9858
     8c8:	1fff98e4 	.word	0x1fff98e4

000008cc <_GLOBAL__sub_I_DEBUG>:
     8cc:	b508      	push	{r3, lr}
     8ce:	480a      	ldr	r0, [pc, #40]	; (8f8 <_GLOBAL__sub_I_DEBUG+0x2c>)
     8d0:	4b0a      	ldr	r3, [pc, #40]	; (8fc <_GLOBAL__sub_I_DEBUG+0x30>)
     8d2:	6043      	str	r3, [r0, #4]
#define BYTE 0
#endif

class __FlashStringHelper;

class Print
     8d4:	4b0a      	ldr	r3, [pc, #40]	; (900 <_GLOBAL__sub_I_DEBUG+0x34>)
     8d6:	791a      	ldrb	r2, [r3, #4]
     8d8:	7302      	strb	r2, [r0, #12]
     8da:	689a      	ldr	r2, [r3, #8]
     8dc:	6102      	str	r2, [r0, #16]
     8de:	7b1a      	ldrb	r2, [r3, #12]
     8e0:	7502      	strb	r2, [r0, #20]
     8e2:	4a08      	ldr	r2, [pc, #32]	; (904 <_GLOBAL__sub_I_DEBUG+0x38>)
     8e4:	6082      	str	r2, [r0, #8]
     8e6:	7b5a      	ldrb	r2, [r3, #13]
     8e8:	7542      	strb	r2, [r0, #21]
     8ea:	691b      	ldr	r3, [r3, #16]
     8ec:	6183      	str	r3, [r0, #24]
//};

//static data tmp48;      // LCM300Q at base address 0x48


Systronix_LCM300 lcm300_58;    // supply at default address
     8ee:	4a06      	ldr	r2, [pc, #24]	; (908 <_GLOBAL__sub_I_DEBUG+0x3c>)
     8f0:	4906      	ldr	r1, [pc, #24]	; (90c <_GLOBAL__sub_I_DEBUG+0x40>)
     8f2:	f003 ff39 	bl	4768 <__aeabi_atexit>
     8f6:	bd08      	pop	{r3, pc}
     8f8:	1fff9858 	.word	0x1fff9858
     8fc:	00008c0c 	.word	0x00008c0c
     900:	1fff98fc 	.word	0x1fff98fc
     904:	00008cfc 	.word	0x00008cfc
     908:	1fff87fc 	.word	0x1fff87fc
     90c:	00000471 	.word	0x00000471

00000910 <Systronix_LCM300::begin(i2c_pins)>:
/*!
	@brief  Join the I2C bus as a master at BaseAddr, 100 kHz clock
*/

void Systronix_LCM300::begin (i2c_pins pins)
	{
     910:	b510      	push	{r4, lr}
     912:	b086      	sub	sp, #24
     914:	4604      	mov	r4, r0
    //             I2C_RATE_1500, I2C_RATE_1800, I2C_RATE_2000, I2C_RATE_2400,
    //             I2C_RATE_2800, I2C_RATE_3000
    //      opMode = I2C_OP_MODE_IMM, I2C_OP_MODE_ISR, I2C_OP_MODE_DMA (ignored for Slave mode, defaults to ISR)
    //
    inline void begin(i2c_mode mode, uint8_t address, i2c_pins pins, i2c_pullup pullup, uint32_t rate, i2c_op_mode opMode=I2C_OP_MODE_ISR)
        { begin_(i2c, bus, mode, address, 0, pins, pullup, rate, opMode); }
     916:	7d40      	ldrb	r0, [r0, #21]
     918:	2301      	movs	r3, #1
     91a:	9304      	str	r3, [sp, #16]
     91c:	4b08      	ldr	r3, [pc, #32]	; (940 <Systronix_LCM300::begin(i2c_pins)+0x30>)
     91e:	9303      	str	r3, [sp, #12]
     920:	2200      	movs	r2, #0
     922:	9202      	str	r2, [sp, #8]
     924:	9101      	str	r1, [sp, #4]
     926:	9200      	str	r2, [sp, #0]
     928:	4613      	mov	r3, r2
     92a:	4601      	mov	r1, r0
     92c:	69a0      	ldr	r0, [r4, #24]
     92e:	f000 fc4b 	bl	11c8 <i2c_t3::begin_(i2cStruct*, unsigned char, i2c_mode, unsigned char, unsigned char, i2c_pins, i2c_pullup, unsigned long, i2c_op_mode)>
    //                       zero (the default in cases where timeout is not specified).  The default is
    //                       initially zero (infinite wait).
    // return: none
    // parameters:
    //      timeout = timeout in microseconds
    inline void setDefaultTimeout(uint32_t timeout) { i2c->defTimeout = timeout; }
     932:	69a3      	ldr	r3, [r4, #24]
     934:	4a03      	ldr	r2, [pc, #12]	; (944 <Systronix_LCM300::begin(i2c_pins)+0x34>)
     936:	f8c3 2268 	str.w	r2, [r3, #616]	; 0x268
	_wire.begin(I2C_MASTER, 0x00, pins, I2C_PULLUP_EXT, I2C_RATE_100);	// join I2C as master
//	Serial.printf("LCM300 lib begin %s\r\n", _wire_name);
	_wire.setDefaultTimeout(200000); // 200ms
	}
     93a:	b006      	add	sp, #24
     93c:	bd10      	pop	{r4, pc}
     93e:	bf00      	nop
     940:	000186a0 	.word	0x000186a0
     944:	00030d40 	.word	0x00030d40

00000948 <Systronix_LCM300::base_get()>:
//

uint8_t Systronix_LCM300::base_get(void)
	{
	return _base;
	}
     948:	7800      	ldrb	r0, [r0, #0]
     94a:	4770      	bx	lr

0000094c <Systronix_LCM300::init()>:
//
// Attempts to write the pointer register.  If successful, sets control.exists true, else false.
//

uint8_t Systronix_LCM300::init (void)
	{
     94c:	b530      	push	{r4, r5, lr}
     94e:	b083      	sub	sp, #12
     950:	4604      	mov	r4, r0
	_wire.beginTransmission (_base);					// base address
     952:	f100 0508 	add.w	r5, r0, #8
     956:	7801      	ldrb	r1, [r0, #0]
     958:	4628      	mov	r0, r5
     95a:	f000 fda1 	bl	14a0 <i2c_t3::beginTransmission(unsigned char)>
    inline uint8_t endTransmission(i2c_stop sendStop, uint32_t timeout) { return endTransmission(i2c, bus, sendStop, timeout); }
    //
    // Master Transmit - blocking routine, transmits Tx buffer to slave
    // return: 0=success, 1=data too long, 2=recv addr NACK, 3=recv data NACK, 4=other error
    //
    inline uint8_t endTransmission(void) { return endTransmission(i2c, bus, I2C_STOP, 0); }
     95e:	7d62      	ldrb	r2, [r4, #21]
     960:	2300      	movs	r3, #0
     962:	9300      	str	r3, [sp, #0]
     964:	2301      	movs	r3, #1
     966:	69a1      	ldr	r1, [r4, #24]
     968:	4628      	mov	r0, r5
     96a:	f001 f87b 	bl	1a64 <i2c_t3::endTransmission(i2cStruct*, unsigned char, i2c_stop, unsigned long)>

	if (_wire.endTransmission())						// returns 0 if got an ACK from LCM300
     96e:	b120      	cbz	r0, 97a <Systronix_LCM300::init()+0x2e>
		{
		error.exists = false;							// unsuccessful i2c transaction
     970:	2300      	movs	r3, #0
     972:	f884 3020 	strb.w	r3, [r4, #32]
		return FAIL;
     976:	23ff      	movs	r3, #255	; 0xff
     978:	e003      	b.n	982 <Systronix_LCM300::init()+0x36>
     97a:	4603      	mov	r3, r0
		}
	
	error.exists = true;								// if here, we appear to have communicated with
     97c:	2201      	movs	r2, #1
     97e:	f884 2020 	strb.w	r2, [r4, #32]
	return SUCCESS;										// the LCM300
	}
     982:	4618      	mov	r0, r3
     984:	b003      	add	sp, #12
     986:	bd30      	pop	{r4, r5, pc}

00000988 <Systronix_LCM300::tally_transaction(unsigned char)>:

TODO use i2c_t3 error or status enumeration here in the switch/case
*/

void Systronix_LCM300::tally_transaction (uint8_t value)
	{
     988:	b430      	push	{r4, r5}
	if (value && (error.total_error_count < UINT64_MAX))
     98a:	2900      	cmp	r1, #0
     98c:	d050      	beq.n	a30 <Systronix_LCM300::tally_transaction(unsigned char)+0xa8>
     98e:	460b      	mov	r3, r1
     990:	e9d0 4514 	ldrd	r4, r5, [r0, #80]	; 0x50
     994:	f1b5 3fff 	cmp.w	r5, #4294967295	; 0xffffffff
     998:	bf08      	it	eq
     99a:	f1b4 3fff 	cmpeq.w	r4, #4294967295	; 0xffffffff
     99e:	d004      	beq.n	9aa <Systronix_LCM300::tally_transaction(unsigned char)+0x22>
		error.total_error_count++; 			// every time here incr total error count
     9a0:	3401      	adds	r4, #1
     9a2:	f145 0500 	adc.w	r5, r5, #0
     9a6:	e9c0 4514 	strd	r4, r5, [r0, #80]	; 0x50

	error.error_val = value;
     9aa:	f880 3021 	strb.w	r3, [r0, #33]	; 0x21

	switch (value)
     9ae:	2b0c      	cmp	r3, #12
     9b0:	d83a      	bhi.n	a28 <Systronix_LCM300::tally_transaction(unsigned char)+0xa0>
     9b2:	e8df f003 	tbb	[pc, r3]
     9b6:	1507      	.short	0x1507
     9b8:	1d19211d 	.word	0x1d19211d
     9bc:	2d292521 	.word	0x2d292521
     9c0:	312d      	.short	0x312d
     9c2:	35          	.byte	0x35
     9c3:	00          	.byte	0x00
		{
		case SUCCESS:
			if (error.successful_count < UINT64_MAX)
     9c4:	e9d0 2316 	ldrd	r2, r3, [r0, #88]	; 0x58
     9c8:	f1b3 3fff 	cmp.w	r3, #4294967295	; 0xffffffff
     9cc:	bf08      	it	eq
     9ce:	f1b2 3fff 	cmpeq.w	r2, #4294967295	; 0xffffffff
     9d2:	d031      	beq.n	a38 <Systronix_LCM300::tally_transaction(unsigned char)+0xb0>
				error.successful_count++;
     9d4:	3201      	adds	r2, #1
     9d6:	f143 0300 	adc.w	r3, r3, #0
     9da:	e9c0 2316 	strd	r2, r3, [r0, #88]	; 0x58
     9de:	e02b      	b.n	a38 <Systronix_LCM300::tally_transaction(unsigned char)+0xb0>
			break;
		case 1:								// i2c_t3 and Wire: data too long from endTransmission() (rx/tx buffers are 259 bytes - slave addr + 2 cmd bytes + 256 data)
			error.data_len_error_count++;
     9e0:	6a83      	ldr	r3, [r0, #40]	; 0x28
     9e2:	3301      	adds	r3, #1
     9e4:	6283      	str	r3, [r0, #40]	; 0x28
			break;
     9e6:	e027      	b.n	a38 <Systronix_LCM300::tally_transaction(unsigned char)+0xb0>
#if defined I2C_T3_H
		case I2C_TIMEOUT:
			error.timeout_count++;			// 4 from i2c_t3; timeout from call to status() (read)
     9e8:	6ac3      	ldr	r3, [r0, #44]	; 0x2c
     9ea:	3301      	adds	r3, #1
     9ec:	62c3      	str	r3, [r0, #44]	; 0x2c
#else
		case 4:
			error.other_error_count++;		// i2c_t3 and Wire: from endTransmission() "other error"
#endif
			break;
     9ee:	e023      	b.n	a38 <Systronix_LCM300::tally_transaction(unsigned char)+0xb0>
		case 2:								// i2c_t3 and Wire: from endTransmission()
		case I2C_ADDR_NAK:					// 5 from i2c_t3
			error.rcv_addr_nack_count++;
     9f0:	6b03      	ldr	r3, [r0, #48]	; 0x30
     9f2:	3301      	adds	r3, #1
     9f4:	6303      	str	r3, [r0, #48]	; 0x30
			break;
     9f6:	e01f      	b.n	a38 <Systronix_LCM300::tally_transaction(unsigned char)+0xb0>
		case 3:								// i2c_t3 and Wire: from endTransmission()
		case I2C_DATA_NAK:					// 6 from i2c_t3
			error.rcv_data_nack_count++;
     9f8:	6b43      	ldr	r3, [r0, #52]	; 0x34
     9fa:	3301      	adds	r3, #1
     9fc:	6343      	str	r3, [r0, #52]	; 0x34
			break;
     9fe:	e01b      	b.n	a38 <Systronix_LCM300::tally_transaction(unsigned char)+0xb0>
		case I2C_ARB_LOST:					// 7 from i2c_t3; arbitration lost from call to status() (read)
			error.arbitration_lost_count++;
     a00:	6b83      	ldr	r3, [r0, #56]	; 0x38
     a02:	3301      	adds	r3, #1
     a04:	6383      	str	r3, [r0, #56]	; 0x38
			break;
     a06:	e017      	b.n	a38 <Systronix_LCM300::tally_transaction(unsigned char)+0xb0>
		case I2C_BUF_OVF:
			error.buffer_overflow_count++;
     a08:	6bc3      	ldr	r3, [r0, #60]	; 0x3c
     a0a:	3301      	adds	r3, #1
     a0c:	63c3      	str	r3, [r0, #60]	; 0x3c
			break;
     a0e:	e013      	b.n	a38 <Systronix_LCM300::tally_transaction(unsigned char)+0xb0>
		case I2C_SLAVE_TX:
		case I2C_SLAVE_RX:
			error.other_error_count++;		// 9 & 10 from i2c_t3; these are not errors, I think
     a10:	6c03      	ldr	r3, [r0, #64]	; 0x40
     a12:	3301      	adds	r3, #1
     a14:	6403      	str	r3, [r0, #64]	; 0x40
			break;
     a16:	e00f      	b.n	a38 <Systronix_LCM300::tally_transaction(unsigned char)+0xb0>
		case WR_INCOMPLETE:					// 11; Wire.write failed to write all of the data to tx_buffer
			error.incomplete_write_count++;
     a18:	6a43      	ldr	r3, [r0, #36]	; 0x24
     a1a:	3301      	adds	r3, #1
     a1c:	6243      	str	r3, [r0, #36]	; 0x24
			break;
     a1e:	e00b      	b.n	a38 <Systronix_LCM300::tally_transaction(unsigned char)+0xb0>
		case SILLY_PROGRAMMER:				// 12
			error.silly_programmer_error++;
     a20:	6cc3      	ldr	r3, [r0, #76]	; 0x4c
     a22:	3301      	adds	r3, #1
     a24:	64c3      	str	r3, [r0, #76]	; 0x4c
			break;
     a26:	e007      	b.n	a38 <Systronix_LCM300::tally_transaction(unsigned char)+0xb0>
		default:
			error.unknown_error_count++;
     a28:	6c43      	ldr	r3, [r0, #68]	; 0x44
     a2a:	3301      	adds	r3, #1
     a2c:	6443      	str	r3, [r0, #68]	; 0x44
			break;
		}
	}
     a2e:	e003      	b.n	a38 <Systronix_LCM300::tally_transaction(unsigned char)+0xb0>
void Systronix_LCM300::tally_transaction (uint8_t value)
	{
	if (value && (error.total_error_count < UINT64_MAX))
		error.total_error_count++; 			// every time here incr total error count

	error.error_val = value;
     a30:	2300      	movs	r3, #0
     a32:	f880 3021 	strb.w	r3, [r0, #33]	; 0x21
     a36:	e7c5      	b.n	9c4 <Systronix_LCM300::tally_transaction(unsigned char)+0x3c>
			break;
		default:
			error.unknown_error_count++;
			break;
		}
	}
     a38:	bc30      	pop	{r4, r5}
     a3a:	4770      	bx	lr

00000a3c <Systronix_LCM300::setup(unsigned char, i2c_t3, char*)>:
	@todo	Test base address for legal range 0x58 - 0x5F
			Add constructor(void) for default address of 0x5F
*/

uint8_t Systronix_LCM300::setup (uint8_t base, i2c_t3 wire, char* name)
	{
     a3c:	b510      	push	{r4, lr}
	if ((LCM300_BASE_MIN > base) || (LCM300_BASE_MAX < base))
     a3e:	f1a1 0458 	sub.w	r4, r1, #88	; 0x58
     a42:	b2e4      	uxtb	r4, r4
     a44:	2c07      	cmp	r4, #7
     a46:	d904      	bls.n	a52 <Systronix_LCM300::setup(unsigned char, i2c_t3, char*)+0x16>
		{
		tally_transaction (SILLY_PROGRAMMER);
     a48:	210c      	movs	r1, #12
     a4a:	f7ff ff9d 	bl	988 <Systronix_LCM300::tally_transaction(unsigned char)>
		return FAIL;
     a4e:	20ff      	movs	r0, #255	; 0xff
     a50:	bd10      	pop	{r4, pc}
		}

	_base = base;
     a52:	7001      	strb	r1, [r0, #0]
     a54:	7911      	ldrb	r1, [r2, #4]
     a56:	7301      	strb	r1, [r0, #12]
     a58:	6891      	ldr	r1, [r2, #8]
     a5a:	6101      	str	r1, [r0, #16]
     a5c:	7b11      	ldrb	r1, [r2, #12]
     a5e:	7501      	strb	r1, [r0, #20]
#if I2C_BUS_NUM >= 4
    extern "C" void i2c3_isr(void);
#endif
extern "C" void i2c_isr_handler(struct i2cStruct* i2c, uint8_t bus);

class i2c_t3 : public Stream
     a60:	7b51      	ldrb	r1, [r2, #13]
     a62:	7541      	strb	r1, [r0, #21]
     a64:	6912      	ldr	r2, [r2, #16]
     a66:	6182      	str	r2, [r0, #24]
	_wire = wire;
	_wire_name = wire_name = name;		// protected and public
     a68:	6603      	str	r3, [r0, #96]	; 0x60
     a6a:	6043      	str	r3, [r0, #4]
	return SUCCESS;
     a6c:	2000      	movs	r0, #0
	}
     a6e:	bd10      	pop	{r4, pc}

00000a70 <Systronix_LCM300::command_raw_read(int, unsigned int, char*)>:

@return SUCCESS, FAIL, or ABSENT
*/

uint8_t Systronix_LCM300::command_raw_read (int cmd, size_t count, char *data)
	{
     a70:	e92d 47f0 	stmdb	sp!, {r4, r5, r6, r7, r8, r9, sl, lr}
     a74:	b082      	sub	sp, #8
	uint8_t ret_val;
	char char_read;

	if (!error.exists)								// exit immediately if device does not exist
     a76:	f890 4020 	ldrb.w	r4, [r0, #32]
     a7a:	2c00      	cmp	r4, #0
     a7c:	d071      	beq.n	b62 <Systronix_LCM300::command_raw_read(int, unsigned int, char*)+0xf2>
     a7e:	461f      	mov	r7, r3
     a80:	4616      	mov	r6, r2
     a82:	460d      	mov	r5, r1
     a84:	4604      	mov	r4, r0
		return ABSENT;

	_wire.beginTransmission (_base);						// base address
     a86:	f100 0808 	add.w	r8, r0, #8
     a8a:	7801      	ldrb	r1, [r0, #0]
     a8c:	4640      	mov	r0, r8
     a8e:	f000 fd07 	bl	14a0 <i2c_t3::beginTransmission(unsigned char)>
    //
    size_t write(uint8_t data);
    inline size_t write(unsigned long n) { return write((uint8_t)n); }
    inline size_t write(long n)          { return write((uint8_t)n); }
    inline size_t write(unsigned int n)  { return write((uint8_t)n); }
    inline size_t write(int n)           { return write((uint8_t)n); }
     a92:	68a3      	ldr	r3, [r4, #8]
     a94:	681b      	ldr	r3, [r3, #0]
     a96:	b2e9      	uxtb	r1, r5
     a98:	4640      	mov	r0, r8
     a9a:	4798      	blx	r3
	ret_val = _wire.write (cmd);							// PMBus command code

	if (1 != ret_val)
     a9c:	b2c0      	uxtb	r0, r0
     a9e:	2801      	cmp	r0, #1
     aa0:	d005      	beq.n	aae <Systronix_LCM300::command_raw_read(int, unsigned int, char*)+0x3e>
		{
		tally_transaction (WR_INCOMPLETE);				// increment the appropriate counter
     aa2:	210b      	movs	r1, #11
     aa4:	4620      	mov	r0, r4
     aa6:	f7ff ff6f 	bl	988 <Systronix_LCM300::tally_transaction(unsigned char)>
		return FAIL;
     aaa:	20ff      	movs	r0, #255	; 0xff
     aac:	e05a      	b.n	b64 <Systronix_LCM300::command_raw_read(int, unsigned int, char*)+0xf4>
    //                   if command should end with a STOP (I2C_STOP) or not (I2C_NOSTOP).
    // return: 0=success, 1=data too long, 2=recv addr NACK, 3=recv data NACK, 4=other error
    // parameters:
    //      i2c_stop = I2C_NOSTOP, I2C_STOP
    //
    inline uint8_t endTransmission(i2c_stop sendStop) { return endTransmission(i2c, bus, sendStop, 0); }
     aae:	7d62      	ldrb	r2, [r4, #21]
     ab0:	f04f 0900 	mov.w	r9, #0
     ab4:	f8cd 9000 	str.w	r9, [sp]
     ab8:	464b      	mov	r3, r9
     aba:	69a1      	ldr	r1, [r4, #24]
     abc:	4640      	mov	r0, r8
     abe:	f000 ffd1 	bl	1a64 <i2c_t3::endTransmission(i2cStruct*, unsigned char, i2c_stop, unsigned long)>
		}

	_wire.endTransmission(I2C_NOSTOP); 					// don't send a stop condition, PMBus wants a repeated start

	Serial.printf("cmd 0x%X, ", cmd);
     ac2:	462a      	mov	r2, r5
     ac4:	4929      	ldr	r1, [pc, #164]	; (b6c <Systronix_LCM300::command_raw_read(int, unsigned int, char*)+0xfc>)
     ac6:	482a      	ldr	r0, [pc, #168]	; (b70 <Systronix_LCM300::command_raw_read(int, unsigned int, char*)+0x100>)
     ac8:	f002 fd08 	bl	34dc <Print::printf(char const*, ...)>
    //      address = target 7bit slave address
    //      length = number of bytes requested
    //      i2c_stop = I2C_NOSTOP, I2C_STOP
    //
    inline size_t requestFrom(uint8_t addr, size_t len, i2c_stop sendStop)
        { return requestFrom_(i2c, bus, addr, len, sendStop, 0); }
     acc:	7822      	ldrb	r2, [r4, #0]
     ace:	7d61      	ldrb	r1, [r4, #21]
     ad0:	f8cd 9004 	str.w	r9, [sp, #4]
     ad4:	2301      	movs	r3, #1
     ad6:	9300      	str	r3, [sp, #0]
     ad8:	4633      	mov	r3, r6
     ada:	69a0      	ldr	r0, [r4, #24]
     adc:	f000 ffd6 	bl	1a8c <i2c_t3::requestFrom_(i2cStruct*, unsigned char, unsigned char, unsigned int, i2c_stop, unsigned long)>

	// now try to read the ascii data at that read command location

	if (count != _wire.requestFrom(_base, count, I2C_STOP))
     ae0:	4286      	cmp	r6, r0
     ae2:	d011      	beq.n	b08 <Systronix_LCM300::command_raw_read(int, unsigned int, char*)+0x98>
{
  public:
	constexpr Print() : write_error(0) {}
	virtual size_t write(uint8_t b) = 0;
	size_t write(const char *str)			{ return write((const uint8_t *)str, strlen(str)); }
     ae4:	4d22      	ldr	r5, [pc, #136]	; (b70 <Systronix_LCM300::command_raw_read(int, unsigned int, char*)+0x100>)
     ae6:	682b      	ldr	r3, [r5, #0]
     ae8:	685b      	ldr	r3, [r3, #4]
     aea:	2228      	movs	r2, #40	; 0x28
     aec:	4921      	ldr	r1, [pc, #132]	; (b74 <Systronix_LCM300::command_raw_read(int, unsigned int, char*)+0x104>)
     aee:	4628      	mov	r0, r5
     af0:	4798      	blx	r3
	size_t print(double n, int digits = 2)		{ return printFloat(n, digits); }
	size_t print(const Printable &obj)		{ return obj.printTo(*this); }
	size_t println(void);
	size_t println(const String &s)			{ return print(s) + println(); }
	size_t println(char c)				{ return print(c) + println(); }
	size_t println(const char s[])			{ return print(s) + println(); }
     af2:	4628      	mov	r0, r5
     af4:	f002 fcda 	bl	34ac <Print::println()>
    // Return Status - returns current status of I2C (enum return value)
    // return: I2C_WAITING, I2C_SENDING, I2C_SEND_ADDR, I2C_RECEIVING,
    //         I2C_TIMEOUT, I2C_ADDR_NAK, I2C_DATA_NAK, I2C_ARB_LOST,
    //         I2C_SLAVE_TX, I2C_SLAVE_RX
    //
    inline i2c_status status(void) { return i2c->currentStatus; }
     af8:	69a3      	ldr	r3, [r4, #24]
     afa:	f893 1251 	ldrb.w	r1, [r3, #593]	; 0x251
		{
		Serial.println("raw read wrong number of bytes available");
		ret_val = _wire.status();						// to get error value
		tally_transaction (ret_val);					// increment the appropriate counter
     afe:	4620      	mov	r0, r4
     b00:	f7ff ff42 	bl	988 <Systronix_LCM300::tally_transaction(unsigned char)>
		return FAIL;
     b04:	20ff      	movs	r0, #255	; 0xff
     b06:	e02d      	b.n	b64 <Systronix_LCM300::command_raw_read(int, unsigned int, char*)+0xf4>
		}

	Serial.printf(" read %i bytes\r\n", count);	
     b08:	4632      	mov	r2, r6
     b0a:	491b      	ldr	r1, [pc, #108]	; (b78 <Systronix_LCM300::command_raw_read(int, unsigned int, char*)+0x108>)
     b0c:	4818      	ldr	r0, [pc, #96]	; (b70 <Systronix_LCM300::command_raw_read(int, unsigned int, char*)+0x100>)
     b0e:	f002 fce5 	bl	34dc <Print::printf(char const*, ...)>

    // ------------------------------------------------------------------------------------------------------
    // Available - returns number of remaining available bytes in Rx buffer
    // return: #bytes available
    //
    inline int available(void) { return i2c->rxBufferLength - i2c->rxBufferIndex; }
     b12:	69a0      	ldr	r0, [r4, #24]
     b14:	f8d0 2138 	ldr.w	r2, [r0, #312]	; 0x138
     b18:	f8d0 3134 	ldr.w	r3, [r0, #308]	; 0x134

	uint8_t index=0;
	while (_wire.available())
     b1c:	429a      	cmp	r2, r3
     b1e:	d01a      	beq.n	b56 <Systronix_LCM300::command_raw_read(int, unsigned int, char*)+0xe6>
     b20:	2600      	movs	r6, #0
		{
		char_read = _wire.readByte();
		Serial.printf("%u:0x%02X/%c ", index, char_read, char_read);
     b22:	f8df a05c 	ldr.w	sl, [pc, #92]	; b80 <Systronix_LCM300::command_raw_read(int, unsigned int, char*)+0x110>
     b26:	f8df 9048 	ldr.w	r9, [pc, #72]	; b70 <Systronix_LCM300::command_raw_read(int, unsigned int, char*)+0x100>
    static uint8_t readByte_(struct i2cStruct* i2c);
    //
    // Read Byte - returns next data byte (uint8_t) from Rx buffer
    // return: data, 0 if buffer empty
    //
    inline uint8_t readByte(void) { return readByte_(i2c); }
     b2a:	f000 fff7 	bl	1b1c <i2c_t3::readByte_(i2cStruct*)>
     b2e:	4605      	mov	r5, r0
     b30:	fa5f f886 	uxtb.w	r8, r6
     b34:	9000      	str	r0, [sp, #0]
     b36:	4603      	mov	r3, r0
     b38:	4642      	mov	r2, r8
     b3a:	4651      	mov	r1, sl
     b3c:	4648      	mov	r0, r9
     b3e:	f002 fccd 	bl	34dc <Print::printf(char const*, ...)>
		data[index++] = char_read;
     b42:	f807 5008 	strb.w	r5, [r7, r8]

    // ------------------------------------------------------------------------------------------------------
    // Available - returns number of remaining available bytes in Rx buffer
    // return: #bytes available
    //
    inline int available(void) { return i2c->rxBufferLength - i2c->rxBufferIndex; }
     b46:	69a0      	ldr	r0, [r4, #24]
     b48:	f8d0 2138 	ldr.w	r2, [r0, #312]	; 0x138
     b4c:	f8d0 3134 	ldr.w	r3, [r0, #308]	; 0x134
     b50:	3601      	adds	r6, #1
		}

	Serial.printf(" read %i bytes\r\n", count);	

	uint8_t index=0;
	while (_wire.available())
     b52:	429a      	cmp	r2, r3
     b54:	d1e9      	bne.n	b2a <Systronix_LCM300::command_raw_read(int, unsigned int, char*)+0xba>
		char_read = _wire.readByte();
		Serial.printf("%u:0x%02X/%c ", index, char_read, char_read);
		data[index++] = char_read;
		}

	Serial.printf ("\n");
     b56:	4909      	ldr	r1, [pc, #36]	; (b7c <Systronix_LCM300::command_raw_read(int, unsigned int, char*)+0x10c>)
     b58:	4805      	ldr	r0, [pc, #20]	; (b70 <Systronix_LCM300::command_raw_read(int, unsigned int, char*)+0x100>)
     b5a:	f002 fcbf 	bl	34dc <Print::printf(char const*, ...)>
	return SUCCESS;
     b5e:	2000      	movs	r0, #0
     b60:	e000      	b.n	b64 <Systronix_LCM300::command_raw_read(int, unsigned int, char*)+0xf4>
	{
	uint8_t ret_val;
	char char_read;

	if (!error.exists)								// exit immediately if device does not exist
		return ABSENT;
     b62:	20fd      	movs	r0, #253	; 0xfd
		data[index++] = char_read;
		}

	Serial.printf ("\n");
	return SUCCESS;
	}
     b64:	b002      	add	sp, #8
     b66:	e8bd 87f0 	ldmia.w	sp!, {r4, r5, r6, r7, r8, r9, sl, pc}
     b6a:	bf00      	nop
     b6c:	00008c14 	.word	0x00008c14
     b70:	1fff8dc8 	.word	0x1fff8dc8
     b74:	00008c20 	.word	0x00008c20
     b78:	00008c4c 	.word	0x00008c4c
     b7c:	00008cd4 	.word	0x00008cd4
     b80:	00008c60 	.word	0x00008c60

00000b84 <Systronix_LCM300::command_ascii_read(int, unsigned int, char*, bool)>:
@param debug print out detailed cmd value, length byte, # read, hex values + char if printable 
@return SUCCESS, FAIL, or ABSENT
*/

uint8_t Systronix_LCM300::command_ascii_read (int cmd, size_t length, char *data, bool debug)
	{
     b84:	e92d 47f0 	stmdb	sp!, {r4, r5, r6, r7, r8, r9, sl, lr}
     b88:	b082      	sub	sp, #8
     b8a:	f89d 7028 	ldrb.w	r7, [sp, #40]	; 0x28
	uint8_t ret_val;
	size_t count;							// # bytes to read, generally length + 2
	char char_read;
	char char_print = 0x20;

	if (!error.exists)						// exit immediately if device does not exist
     b8e:	f890 4020 	ldrb.w	r4, [r0, #32]
     b92:	2c00      	cmp	r4, #0
     b94:	f000 80af 	beq.w	cf6 <Systronix_LCM300::command_ascii_read(int, unsigned int, char*, bool)+0x172>
     b98:	461e      	mov	r6, r3
     b9a:	460d      	mov	r5, r1
     b9c:	4604      	mov	r4, r0
		return ABSENT;


	_wire.beginTransmission (_base);						// base address
     b9e:	f100 0808 	add.w	r8, r0, #8
     ba2:	7801      	ldrb	r1, [r0, #0]
     ba4:	4640      	mov	r0, r8
     ba6:	f000 fc7b 	bl	14a0 <i2c_t3::beginTransmission(unsigned char)>
    //
    size_t write(uint8_t data);
    inline size_t write(unsigned long n) { return write((uint8_t)n); }
    inline size_t write(long n)          { return write((uint8_t)n); }
    inline size_t write(unsigned int n)  { return write((uint8_t)n); }
    inline size_t write(int n)           { return write((uint8_t)n); }
     baa:	fa5f f985 	uxtb.w	r9, r5
     bae:	68a3      	ldr	r3, [r4, #8]
     bb0:	681b      	ldr	r3, [r3, #0]
     bb2:	4649      	mov	r1, r9
     bb4:	4640      	mov	r0, r8
     bb6:	4798      	blx	r3
	ret_val = _wire.write (cmd);							// PMBus command code

	if (1 != ret_val)
     bb8:	b2c0      	uxtb	r0, r0
     bba:	2801      	cmp	r0, #1
     bbc:	d005      	beq.n	bca <Systronix_LCM300::command_ascii_read(int, unsigned int, char*, bool)+0x46>
		{
		tally_transaction (WR_INCOMPLETE);				// increment the appropriate counter
     bbe:	210b      	movs	r1, #11
     bc0:	4620      	mov	r0, r4
     bc2:	f7ff fee1 	bl	988 <Systronix_LCM300::tally_transaction(unsigned char)>
		return FAIL;
     bc6:	20ff      	movs	r0, #255	; 0xff
     bc8:	e0bd      	b.n	d46 <Systronix_LCM300::command_ascii_read(int, unsigned int, char*, bool)+0x1c2>
    //                   if command should end with a STOP (I2C_STOP) or not (I2C_NOSTOP).
    // return: 0=success, 1=data too long, 2=recv addr NACK, 3=recv data NACK, 4=other error
    // parameters:
    //      i2c_stop = I2C_NOSTOP, I2C_STOP
    //
    inline uint8_t endTransmission(i2c_stop sendStop) { return endTransmission(i2c, bus, sendStop, 0); }
     bca:	7d62      	ldrb	r2, [r4, #21]
     bcc:	2300      	movs	r3, #0
     bce:	9300      	str	r3, [sp, #0]
     bd0:	69a1      	ldr	r1, [r4, #24]
     bd2:	4640      	mov	r0, r8
     bd4:	f000 ff46 	bl	1a64 <i2c_t3::endTransmission(i2cStruct*, unsigned char, i2c_stop, unsigned long)>
		}

	_wire.endTransmission(I2C_NOSTOP); 					// don't send a stop condition, PMBus wants a repeated start

	if (debug) Serial.printf("ascii read, cmd: 0x%X\r\n", cmd);
     bd8:	2f00      	cmp	r7, #0
     bda:	f000 809f 	beq.w	d1c <Systronix_LCM300::command_ascii_read(int, unsigned int, char*, bool)+0x198>
     bde:	462a      	mov	r2, r5
     be0:	495a      	ldr	r1, [pc, #360]	; (d4c <Systronix_LCM300::command_ascii_read(int, unsigned int, char*, bool)+0x1c8>)
     be2:	485b      	ldr	r0, [pc, #364]	; (d50 <Systronix_LCM300::command_ascii_read(int, unsigned int, char*, bool)+0x1cc>)
     be4:	f002 fc7a 	bl	34dc <Print::printf(char const*, ...)>
    //      address = target 7bit slave address
    //      length = number of bytes requested
    //      i2c_stop = I2C_NOSTOP, I2C_STOP
    //
    inline size_t requestFrom(uint8_t addr, size_t len, i2c_stop sendStop)
        { return requestFrom_(i2c, bus, addr, len, sendStop, 0); }
     be8:	7822      	ldrb	r2, [r4, #0]
     bea:	7d61      	ldrb	r1, [r4, #21]
     bec:	2300      	movs	r3, #0
     bee:	9301      	str	r3, [sp, #4]
     bf0:	2301      	movs	r3, #1
     bf2:	9300      	str	r3, [sp, #0]
     bf4:	69a0      	ldr	r0, [r4, #24]
     bf6:	f000 ff49 	bl	1a8c <i2c_t3::requestFrom_(i2cStruct*, unsigned char, unsigned char, unsigned int, i2c_stop, unsigned long)>
	// now try to read the ascii data at that read command location

	// 0th byte is the length of the ascii data, always >=2 and < 16 for LCM300
	// add length byte and one more for good measure
	count = 1;
	if (count != _wire.requestFrom(_base, count, I2C_STOP))
     bfa:	2801      	cmp	r0, #1
     bfc:	d07f      	beq.n	cfe <Systronix_LCM300::command_ascii_read(int, unsigned int, char*, bool)+0x17a>
		{
		Serial.printf("ascii read of 1st byte failed\r\n");
     bfe:	4955      	ldr	r1, [pc, #340]	; (d54 <Systronix_LCM300::command_ascii_read(int, unsigned int, char*, bool)+0x1d0>)
     c00:	4853      	ldr	r0, [pc, #332]	; (d50 <Systronix_LCM300::command_ascii_read(int, unsigned int, char*, bool)+0x1cc>)
     c02:	f002 fc6b 	bl	34dc <Print::printf(char const*, ...)>
		data[0] = '\0';	// null term
     c06:	2300      	movs	r3, #0
     c08:	7033      	strb	r3, [r6, #0]
		return FAIL;
     c0a:	20ff      	movs	r0, #255	; 0xff
     c0c:	e09b      	b.n	d46 <Systronix_LCM300::command_ascii_read(int, unsigned int, char*, bool)+0x1c2>
		// should read length of ascii data avail at this command
		char_read = _wire.readByte();
		if (debug) Serial.printf("ascii length byte = %u\r\n", (uint8_t) char_read);
		}

	_wire.beginTransmission (_base);						// base address
     c0e:	7821      	ldrb	r1, [r4, #0]
     c10:	4640      	mov	r0, r8
     c12:	f000 fc45 	bl	14a0 <i2c_t3::beginTransmission(unsigned char)>
    //
    size_t write(uint8_t data);
    inline size_t write(unsigned long n) { return write((uint8_t)n); }
    inline size_t write(long n)          { return write((uint8_t)n); }
    inline size_t write(unsigned int n)  { return write((uint8_t)n); }
    inline size_t write(int n)           { return write((uint8_t)n); }
     c16:	68a3      	ldr	r3, [r4, #8]
     c18:	681b      	ldr	r3, [r3, #0]
     c1a:	4649      	mov	r1, r9
     c1c:	4640      	mov	r0, r8
     c1e:	4798      	blx	r3
	ret_val = _wire.write (cmd);							// PMBus command code

	if (1 != ret_val)
     c20:	b2c0      	uxtb	r0, r0
     c22:	2801      	cmp	r0, #1
     c24:	d005      	beq.n	c32 <Systronix_LCM300::command_ascii_read(int, unsigned int, char*, bool)+0xae>
		{
		tally_transaction (WR_INCOMPLETE);				// increment the appropriate counter
     c26:	210b      	movs	r1, #11
     c28:	4620      	mov	r0, r4
     c2a:	f7ff fead 	bl	988 <Systronix_LCM300::tally_transaction(unsigned char)>
		return FAIL;
     c2e:	20ff      	movs	r0, #255	; 0xff
     c30:	e089      	b.n	d46 <Systronix_LCM300::command_ascii_read(int, unsigned int, char*, bool)+0x1c2>
    //                   if command should end with a STOP (I2C_STOP) or not (I2C_NOSTOP).
    // return: 0=success, 1=data too long, 2=recv addr NACK, 3=recv data NACK, 4=other error
    // parameters:
    //      i2c_stop = I2C_NOSTOP, I2C_STOP
    //
    inline uint8_t endTransmission(i2c_stop sendStop) { return endTransmission(i2c, bus, sendStop, 0); }
     c32:	7d62      	ldrb	r2, [r4, #21]
     c34:	f04f 0900 	mov.w	r9, #0
     c38:	f8cd 9000 	str.w	r9, [sp]
     c3c:	464b      	mov	r3, r9
     c3e:	69a1      	ldr	r1, [r4, #24]
     c40:	4640      	mov	r0, r8
     c42:	f000 ff0f 	bl	1a64 <i2c_t3::endTransmission(i2cStruct*, unsigned char, i2c_stop, unsigned long)>
		}

	_wire.endTransmission(I2C_NOSTOP); 					// don't send a stop condition, PMBus wants a repeated start

	// now read the ascii data based on length we already read, but we re-read the length byte
	count = char_read + 1;	// length of ascii data including length byte
     c46:	3501      	adds	r5, #1
    //      address = target 7bit slave address
    //      length = number of bytes requested
    //      i2c_stop = I2C_NOSTOP, I2C_STOP
    //
    inline size_t requestFrom(uint8_t addr, size_t len, i2c_stop sendStop)
        { return requestFrom_(i2c, bus, addr, len, sendStop, 0); }
     c48:	7822      	ldrb	r2, [r4, #0]
     c4a:	7d61      	ldrb	r1, [r4, #21]
     c4c:	f8cd 9004 	str.w	r9, [sp, #4]
     c50:	2301      	movs	r3, #1
     c52:	9300      	str	r3, [sp, #0]
     c54:	462b      	mov	r3, r5
     c56:	69a0      	ldr	r0, [r4, #24]
     c58:	f000 ff18 	bl	1a8c <i2c_t3::requestFrom_(i2cStruct*, unsigned char, unsigned char, unsigned int, i2c_stop, unsigned long)>
	if (count != _wire.requestFrom(_base, count, I2C_STOP))
     c5c:	4285      	cmp	r5, r0
     c5e:	d00b      	beq.n	c78 <Systronix_LCM300::command_ascii_read(int, unsigned int, char*, bool)+0xf4>
		{
		Serial.printf("ascii data chars failed");
     c60:	493d      	ldr	r1, [pc, #244]	; (d58 <Systronix_LCM300::command_ascii_read(int, unsigned int, char*, bool)+0x1d4>)
     c62:	483b      	ldr	r0, [pc, #236]	; (d50 <Systronix_LCM300::command_ascii_read(int, unsigned int, char*, bool)+0x1cc>)
     c64:	f002 fc3a 	bl	34dc <Print::printf(char const*, ...)>
    // Return Status - returns current status of I2C (enum return value)
    // return: I2C_WAITING, I2C_SENDING, I2C_SEND_ADDR, I2C_RECEIVING,
    //         I2C_TIMEOUT, I2C_ADDR_NAK, I2C_DATA_NAK, I2C_ARB_LOST,
    //         I2C_SLAVE_TX, I2C_SLAVE_RX
    //
    inline i2c_status status(void) { return i2c->currentStatus; }
     c68:	69a3      	ldr	r3, [r4, #24]
     c6a:	f893 1251 	ldrb.w	r1, [r3, #593]	; 0x251
		ret_val = _wire.status();				// to get error value
		tally_transaction (ret_val);					// increment the appropriate counter
     c6e:	4620      	mov	r0, r4
     c70:	f7ff fe8a 	bl	988 <Systronix_LCM300::tally_transaction(unsigned char)>
		return FAIL;
     c74:	20ff      	movs	r0, #255	; 0xff
     c76:	e066      	b.n	d46 <Systronix_LCM300::command_ascii_read(int, unsigned int, char*, bool)+0x1c2>
		}
	else
		{
		if (debug) Serial.printf("%u ascii chars read\r\n", (uint8_t)count);	
     c78:	2f00      	cmp	r7, #0
     c7a:	d05c      	beq.n	d36 <Systronix_LCM300::command_ascii_read(int, unsigned int, char*, bool)+0x1b2>
     c7c:	b2ea      	uxtb	r2, r5
     c7e:	4937      	ldr	r1, [pc, #220]	; (d5c <Systronix_LCM300::command_ascii_read(int, unsigned int, char*, bool)+0x1d8>)
     c80:	4833      	ldr	r0, [pc, #204]	; (d50 <Systronix_LCM300::command_ascii_read(int, unsigned int, char*, bool)+0x1cc>)
     c82:	f002 fc2b 	bl	34dc <Print::printf(char const*, ...)>

    // ------------------------------------------------------------------------------------------------------
    // Available - returns number of remaining available bytes in Rx buffer
    // return: #bytes available
    //
    inline int available(void) { return i2c->rxBufferLength - i2c->rxBufferIndex; }
     c86:	69a0      	ldr	r0, [r4, #24]
     c88:	f8d0 3138 	ldr.w	r3, [r0, #312]	; 0x138
     c8c:	f8d0 2134 	ldr.w	r2, [r0, #308]	; 0x134
		}

	uint8_t index=0;
	while (_wire.available())
     c90:	429a      	cmp	r2, r3
     c92:	d02b      	beq.n	cec <Systronix_LCM300::command_ascii_read(int, unsigned int, char*, bool)+0x168>
@param debug print out detailed cmd value, length byte, # read, hex values + char if printable 
@return SUCCESS, FAIL, or ABSENT
*/

uint8_t Systronix_LCM300::command_ascii_read (int cmd, size_t length, char *data, bool debug)
	{
     c94:	2500      	movs	r5, #0
			}
		else
			{
			char_print = char_read;	// printable ascii	
			}
		if (debug) Serial.printf("%u:0x%02X/%c ", index, char_read, char_print);
     c96:	f8df 90cc 	ldr.w	r9, [pc, #204]	; d64 <Systronix_LCM300::command_ascii_read(int, unsigned int, char*, bool)+0x1e0>
     c9a:	f8df 80b4 	ldr.w	r8, [pc, #180]	; d50 <Systronix_LCM300::command_ascii_read(int, unsigned int, char*, bool)+0x1cc>
    static int read_(struct i2cStruct* i2c);
    //
    // Read - returns next data byte (signed int) from Rx buffer
    // return: data, -1 if buffer empty
    //
    inline int read(void) { return read_(i2c); }
     c9e:	f000 ff11 	bl	1ac4 <i2c_t3::read_(i2cStruct*)>
		}

	uint8_t index=0;
	while (_wire.available())
		{
		char_read = _wire.read();
     ca2:	fa5f fa80 	uxtb.w	sl, r0
		if ((char_read < 0x20) || (char_read > 0x7E)) 
     ca6:	f1aa 0220 	sub.w	r2, sl, #32
     caa:	b2d2      	uxtb	r2, r2
			{
			char_print = 0x20;	// unprintable? Use space
			}
		else
			{
			char_print = char_read;	// printable ascii	
     cac:	2a5e      	cmp	r2, #94	; 0x5e
     cae:	bf94      	ite	ls
     cb0:	4653      	movls	r3, sl
     cb2:	2320      	movhi	r3, #32
			}
		if (debug) Serial.printf("%u:0x%02X/%c ", index, char_read, char_print);
     cb4:	b137      	cbz	r7, cc4 <Systronix_LCM300::command_ascii_read(int, unsigned int, char*, bool)+0x140>
     cb6:	9300      	str	r3, [sp, #0]
     cb8:	4653      	mov	r3, sl
     cba:	462a      	mov	r2, r5
     cbc:	4649      	mov	r1, r9
     cbe:	4640      	mov	r0, r8
     cc0:	f002 fc0c 	bl	34dc <Print::printf(char const*, ...)>
		if (0 == index)
     cc4:	b115      	cbz	r5, ccc <Systronix_LCM300::command_ascii_read(int, unsigned int, char*, bool)+0x148>
			{
				// discard length in byte 0
			}
		else 
			{
				data[index-1] = char_read;
     cc6:	1973      	adds	r3, r6, r5
     cc8:	f803 ac01 	strb.w	sl, [r3, #-1]
			}
		index++;
     ccc:	3501      	adds	r5, #1
     cce:	b2ed      	uxtb	r5, r5

    // ------------------------------------------------------------------------------------------------------
    // Available - returns number of remaining available bytes in Rx buffer
    // return: #bytes available
    //
    inline int available(void) { return i2c->rxBufferLength - i2c->rxBufferIndex; }
     cd0:	69a0      	ldr	r0, [r4, #24]
     cd2:	f8d0 2138 	ldr.w	r2, [r0, #312]	; 0x138
     cd6:	f8d0 3134 	ldr.w	r3, [r0, #308]	; 0x134
		{
		if (debug) Serial.printf("%u ascii chars read\r\n", (uint8_t)count);	
		}

	uint8_t index=0;
	while (_wire.available())
     cda:	429a      	cmp	r2, r3
     cdc:	d1df      	bne.n	c9e <Systronix_LCM300::command_ascii_read(int, unsigned int, char*, bool)+0x11a>
				data[index-1] = char_read;
			}
		index++;
		}

	if (index > 2)
     cde:	2d02      	cmp	r5, #2
     ce0:	d903      	bls.n	cea <Systronix_LCM300::command_ascii_read(int, unsigned int, char*, bool)+0x166>
		data[index-1] = '\0'; 	// null term
     ce2:	1973      	adds	r3, r6, r5
     ce4:	2200      	movs	r2, #0
     ce6:	f803 2c01 	strb.w	r2, [r3, #-1]

	if (debug) Serial.println();
     cea:	b137      	cbz	r7, cfa <Systronix_LCM300::command_ascii_read(int, unsigned int, char*, bool)+0x176>
     cec:	4818      	ldr	r0, [pc, #96]	; (d50 <Systronix_LCM300::command_ascii_read(int, unsigned int, char*, bool)+0x1cc>)
     cee:	f002 fbdd 	bl	34ac <Print::println()>
	return SUCCESS;
     cf2:	2000      	movs	r0, #0
     cf4:	e027      	b.n	d46 <Systronix_LCM300::command_ascii_read(int, unsigned int, char*, bool)+0x1c2>
	size_t count;							// # bytes to read, generally length + 2
	char char_read;
	char char_print = 0x20;

	if (!error.exists)						// exit immediately if device does not exist
		return ABSENT;
     cf6:	20fd      	movs	r0, #253	; 0xfd
     cf8:	e025      	b.n	d46 <Systronix_LCM300::command_ascii_read(int, unsigned int, char*, bool)+0x1c2>

	if (index > 2)
		data[index-1] = '\0'; 	// null term

	if (debug) Serial.println();
	return SUCCESS;
     cfa:	2000      	movs	r0, #0
     cfc:	e023      	b.n	d46 <Systronix_LCM300::command_ascii_read(int, unsigned int, char*, bool)+0x1c2>
    static uint8_t readByte_(struct i2cStruct* i2c);
    //
    // Read Byte - returns next data byte (uint8_t) from Rx buffer
    // return: data, 0 if buffer empty
    //
    inline uint8_t readByte(void) { return readByte_(i2c); }
     cfe:	69a0      	ldr	r0, [r4, #24]
     d00:	f000 ff0c 	bl	1b1c <i2c_t3::readByte_(i2cStruct*)>
     d04:	4605      	mov	r5, r0
		}
	else
		{
		// should read length of ascii data avail at this command
		char_read = _wire.readByte();
		if (debug) Serial.printf("ascii length byte = %u\r\n", (uint8_t) char_read);
     d06:	4602      	mov	r2, r0
     d08:	4915      	ldr	r1, [pc, #84]	; (d60 <Systronix_LCM300::command_ascii_read(int, unsigned int, char*, bool)+0x1dc>)
     d0a:	4811      	ldr	r0, [pc, #68]	; (d50 <Systronix_LCM300::command_ascii_read(int, unsigned int, char*, bool)+0x1cc>)
     d0c:	f002 fbe6 	bl	34dc <Print::printf(char const*, ...)>
     d10:	e77d      	b.n	c0e <Systronix_LCM300::command_ascii_read(int, unsigned int, char*, bool)+0x8a>
     d12:	69a0      	ldr	r0, [r4, #24]
     d14:	f000 ff02 	bl	1b1c <i2c_t3::readByte_(i2cStruct*)>
     d18:	4605      	mov	r5, r0
     d1a:	e778      	b.n	c0e <Systronix_LCM300::command_ascii_read(int, unsigned int, char*, bool)+0x8a>
    //      address = target 7bit slave address
    //      length = number of bytes requested
    //      i2c_stop = I2C_NOSTOP, I2C_STOP
    //
    inline size_t requestFrom(uint8_t addr, size_t len, i2c_stop sendStop)
        { return requestFrom_(i2c, bus, addr, len, sendStop, 0); }
     d1c:	7822      	ldrb	r2, [r4, #0]
     d1e:	7d61      	ldrb	r1, [r4, #21]
     d20:	2300      	movs	r3, #0
     d22:	9301      	str	r3, [sp, #4]
     d24:	2301      	movs	r3, #1
     d26:	9300      	str	r3, [sp, #0]
     d28:	69a0      	ldr	r0, [r4, #24]
     d2a:	f000 feaf 	bl	1a8c <i2c_t3::requestFrom_(i2cStruct*, unsigned char, unsigned char, unsigned int, i2c_stop, unsigned long)>
	// now try to read the ascii data at that read command location

	// 0th byte is the length of the ascii data, always >=2 and < 16 for LCM300
	// add length byte and one more for good measure
	count = 1;
	if (count != _wire.requestFrom(_base, count, I2C_STOP))
     d2e:	2801      	cmp	r0, #1
     d30:	f47f af65 	bne.w	bfe <Systronix_LCM300::command_ascii_read(int, unsigned int, char*, bool)+0x7a>
     d34:	e7ed      	b.n	d12 <Systronix_LCM300::command_ascii_read(int, unsigned int, char*, bool)+0x18e>

    // ------------------------------------------------------------------------------------------------------
    // Available - returns number of remaining available bytes in Rx buffer
    // return: #bytes available
    //
    inline int available(void) { return i2c->rxBufferLength - i2c->rxBufferIndex; }
     d36:	69a0      	ldr	r0, [r4, #24]
     d38:	f8d0 3138 	ldr.w	r3, [r0, #312]	; 0x138
     d3c:	f8d0 2134 	ldr.w	r2, [r0, #308]	; 0x134
		{
		if (debug) Serial.printf("%u ascii chars read\r\n", (uint8_t)count);	
		}

	uint8_t index=0;
	while (_wire.available())
     d40:	429a      	cmp	r2, r3
     d42:	d1a7      	bne.n	c94 <Systronix_LCM300::command_ascii_read(int, unsigned int, char*, bool)+0x110>

	if (index > 2)
		data[index-1] = '\0'; 	// null term

	if (debug) Serial.println();
	return SUCCESS;
     d44:	2000      	movs	r0, #0
	}
     d46:	b002      	add	sp, #8
     d48:	e8bd 87f0 	ldmia.w	sp!, {r4, r5, r6, r7, r8, r9, sl, pc}
     d4c:	00008c70 	.word	0x00008c70
     d50:	1fff8dc8 	.word	0x1fff8dc8
     d54:	00008c88 	.word	0x00008c88
     d58:	00008ca8 	.word	0x00008ca8
     d5c:	00008cc0 	.word	0x00008cc0
     d60:	00008cd8 	.word	0x00008cd8
     d64:	00008c60 	.word	0x00008c60

00000d68 <i2c_t3::available()>:
     d68:	6903      	ldr	r3, [r0, #16]
     d6a:	f8d3 0138 	ldr.w	r0, [r3, #312]	; 0x138
     d6e:	f8d3 3134 	ldr.w	r3, [r3, #308]	; 0x134
     d72:	1ac0      	subs	r0, r0, r3
     d74:	4770      	bx	lr
     d76:	bf00      	nop

00000d78 <i2c_t3::flush()>:
    inline uint8_t peekByte(void) { return peekByte_(i2c); }

    // ------------------------------------------------------------------------------------------------------
    // Flush (not implemented)
    //
    inline void flush(void) {}
     d78:	4770      	bx	lr
     d7a:	bf00      	nop

00000d7c <i2c_t3::write(unsigned char)>:
// parameters:
//      data = data byte
//
size_t i2c_t3::write(uint8_t data)
{
    if(i2c->txBufferLength < I2C_TX_BUFFER_LENGTH)
     d7c:	6903      	ldr	r3, [r0, #16]
     d7e:	f8d3 2244 	ldr.w	r2, [r3, #580]	; 0x244
     d82:	f5b2 7f81 	cmp.w	r2, #258	; 0x102
     d86:	d809      	bhi.n	d9c <i2c_t3::write(unsigned char)+0x20>
    {
        i2c->txBuffer[i2c->txBufferLength++] = data;
     d88:	f8d3 2244 	ldr.w	r2, [r3, #580]	; 0x244
     d8c:	1c50      	adds	r0, r2, #1
     d8e:	f8c3 0244 	str.w	r0, [r3, #580]	; 0x244
     d92:	4413      	add	r3, r2
     d94:	f883 113c 	strb.w	r1, [r3, #316]	; 0x13c
        return 1;
     d98:	2001      	movs	r0, #1
     d9a:	4770      	bx	lr
	int getWriteError() { return write_error; }
	void clearWriteError() { setWriteError(0); }
	int printf(const char *format, ...);
	int printf(const __FlashStringHelper *format, ...);
  protected:
	void setWriteError(int err = 1) { write_error = err; }
     d9c:	2301      	movs	r3, #1
     d9e:	7103      	strb	r3, [r0, #4]
    }
    setWriteError();
    return 0;
     da0:	2000      	movs	r0, #0
}
     da2:	4770      	bx	lr

00000da4 <i2c_t3::write(unsigned char const*, unsigned int)>:
// parameters:
//      data = pointer to uint8_t array of data
//      length = number of bytes to write
//
size_t i2c_t3::write(const uint8_t* data, size_t quantity)
{
     da4:	b430      	push	{r4, r5}
    if(i2c->txBufferLength < I2C_TX_BUFFER_LENGTH)
     da6:	6904      	ldr	r4, [r0, #16]
     da8:	f8d4 3244 	ldr.w	r3, [r4, #580]	; 0x244
     dac:	f5b3 7f81 	cmp.w	r3, #258	; 0x102
     db0:	d81f      	bhi.n	df2 <i2c_t3::write(unsigned char const*, unsigned int)+0x4e>
    {
        size_t avail = I2C_TX_BUFFER_LENGTH - i2c->txBufferLength;
     db2:	f8d4 5244 	ldr.w	r5, [r4, #580]	; 0x244
     db6:	f5c5 7581 	rsb	r5, r5, #258	; 0x102
     dba:	3501      	adds	r5, #1
        uint8_t* dest = i2c->txBuffer + i2c->txBufferLength;
     dbc:	f504 739e 	add.w	r3, r4, #316	; 0x13c
     dc0:	f8d4 4244 	ldr.w	r4, [r4, #580]	; 0x244

        if(quantity > avail)
     dc4:	4295      	cmp	r5, r2
     dc6:	d202      	bcs.n	dce <i2c_t3::write(unsigned char const*, unsigned int)+0x2a>
     dc8:	2201      	movs	r2, #1
     dca:	7102      	strb	r2, [r0, #4]
        {
            quantity = avail; // truncate to space avail if needed
     dcc:	462a      	mov	r2, r5
            setWriteError();
        }
        for(size_t count=quantity; count; count--)
     dce:	b142      	cbz	r2, de2 <i2c_t3::write(unsigned char const*, unsigned int)+0x3e>
     dd0:	3c01      	subs	r4, #1
     dd2:	4423      	add	r3, r4
     dd4:	188d      	adds	r5, r1, r2
            *dest++ = *data++;
     dd6:	f811 4b01 	ldrb.w	r4, [r1], #1
     dda:	f803 4f01 	strb.w	r4, [r3, #1]!
        if(quantity > avail)
        {
            quantity = avail; // truncate to space avail if needed
            setWriteError();
        }
        for(size_t count=quantity; count; count--)
     dde:	42a9      	cmp	r1, r5
     de0:	d1f9      	bne.n	dd6 <i2c_t3::write(unsigned char const*, unsigned int)+0x32>
            *dest++ = *data++;
        i2c->txBufferLength += quantity;
     de2:	6901      	ldr	r1, [r0, #16]
     de4:	f8d1 3244 	ldr.w	r3, [r1, #580]	; 0x244
     de8:	4413      	add	r3, r2
     dea:	f8c1 3244 	str.w	r3, [r1, #580]	; 0x244
        return quantity;
     dee:	4610      	mov	r0, r2
     df0:	e002      	b.n	df8 <i2c_t3::write(unsigned char const*, unsigned int)+0x54>
     df2:	2301      	movs	r3, #1
     df4:	7103      	strb	r3, [r0, #4]
    }
    setWriteError();
    return 0;
     df6:	2000      	movs	r0, #0
}
     df8:	bc30      	pop	{r4, r5}
     dfa:	4770      	bx	lr

00000dfc <i2c_t3::~i2c_t3()>:
i2c_t3::i2c_t3(uint8_t i2c_bus)
{
    bus = i2c_bus;
    i2c = &i2cData[bus];
}
i2c_t3::~i2c_t3()
     dfc:	b538      	push	{r3, r4, r5, lr}
     dfe:	4604      	mov	r4, r0
     e00:	4b09      	ldr	r3, [pc, #36]	; (e28 <i2c_t3::~i2c_t3()+0x2c>)
     e02:	6003      	str	r3, [r0, #0]
{
    // if DMA active, delete DMA object
    if(i2c->opMode == I2C_OP_MODE_DMA)
     e04:	6903      	ldr	r3, [r0, #16]
     e06:	f893 2248 	ldrb.w	r2, [r3, #584]	; 0x248
     e0a:	2a02      	cmp	r2, #2
     e0c:	d109      	bne.n	e22 <i2c_t3::~i2c_t3()+0x26>
        delete i2c->DMA;
     e0e:	f8d3 5264 	ldr.w	r5, [r3, #612]	; 0x264
     e12:	b135      	cbz	r5, e22 <i2c_t3::~i2c_t3()+0x26>
	DMAChannel & operator = (const DMASetting &rhs) {
		copy_tcd(TCD, rhs.TCD);
		return *this;
	}
	~DMAChannel() {
		release();
     e14:	4628      	mov	r0, r5
     e16:	f002 fb2f 	bl	3478 <DMAChannel::release()>
     e1a:	2108      	movs	r1, #8
     e1c:	4628      	mov	r0, r5
     e1e:	f002 fbbd 	bl	359c <operator delete(void*, unsigned int)>
}
     e22:	4620      	mov	r0, r4
     e24:	bd38      	pop	{r3, r4, r5, pc}
     e26:	bf00      	nop
     e28:	00008cfc 	.word	0x00008cfc

00000e2c <i2c_t3::i2c_t3(unsigned char)>:


// ------------------------------------------------------------------------------------------------------
// Constructor/Destructor
//
i2c_t3::i2c_t3(uint8_t i2c_bus)
     e2c:	b410      	push	{r4}
class __FlashStringHelper;

class Print
{
  public:
	constexpr Print() : write_error(0) {}
     e2e:	2200      	movs	r2, #0
     e30:	7102      	strb	r2, [r0, #4]
{
  public:
	constexpr Stream() : _timeout(1000), read_error(0) {}
     e32:	f44f 747a 	mov.w	r4, #1000	; 0x3e8
     e36:	6084      	str	r4, [r0, #8]
     e38:	7302      	strb	r2, [r0, #12]
     e3a:	4a05      	ldr	r2, [pc, #20]	; (e50 <i2c_t3::i2c_t3(unsigned char)+0x24>)
     e3c:	6002      	str	r2, [r0, #0]
{
    bus = i2c_bus;
     e3e:	7341      	strb	r1, [r0, #13]
    i2c = &i2cData[bus];
     e40:	f44f 741c 	mov.w	r4, #624	; 0x270
     e44:	4a03      	ldr	r2, [pc, #12]	; (e54 <i2c_t3::i2c_t3(unsigned char)+0x28>)
     e46:	fb04 2101 	mla	r1, r4, r1, r2
     e4a:	6101      	str	r1, [r0, #16]
}
     e4c:	bc10      	pop	{r4}
     e4e:	4770      	bx	lr
     e50:	00008cfc 	.word	0x00008cfc
     e54:	1fff8800 	.word	0x1fff8800

00000e58 <i2c_t3::setOpMode_(i2cStruct*, unsigned char, i2c_op_mode)>:
// parameters:
//      opMode = I2C_OP_MODE_ISR, I2C_OP_MODE_DMA, I2C_OP_MODE_IMM
//
uint8_t i2c_t3::setOpMode_(struct i2cStruct* i2c, uint8_t bus, i2c_op_mode opMode)
{
    if(*(i2c->S) & I2C_S_BUSY) return 0; // return immediately if bus busy
     e58:	68c3      	ldr	r3, [r0, #12]
     e5a:	781b      	ldrb	r3, [r3, #0]
     e5c:	f013 0f20 	tst.w	r3, #32
     e60:	f040 80b5 	bne.w	fce <i2c_t3::setOpMode_(i2cStruct*, unsigned char, i2c_op_mode)+0x176>
// return: 1=success, 0=fail (bus busy)
// parameters:
//      opMode = I2C_OP_MODE_ISR, I2C_OP_MODE_DMA, I2C_OP_MODE_IMM
//
uint8_t i2c_t3::setOpMode_(struct i2cStruct* i2c, uint8_t bus, i2c_op_mode opMode)
{
     e64:	b570      	push	{r4, r5, r6, lr}
     e66:	4604      	mov	r4, r0
     e68:	460d      	mov	r5, r1
    if(*(i2c->S) & I2C_S_BUSY) return 0; // return immediately if bus busy

    *(i2c->C1) = I2C_C1_IICEN; // reset I2C modes, stop intr, stop DMA
     e6a:	6883      	ldr	r3, [r0, #8]
     e6c:	2180      	movs	r1, #128	; 0x80
     e6e:	7019      	strb	r1, [r3, #0]
    *(i2c->S) = I2C_S_IICIF | I2C_S_ARBL; // clear status flags just in case
     e70:	68c3      	ldr	r3, [r0, #12]
     e72:	2112      	movs	r1, #18
     e74:	7019      	strb	r1, [r3, #0]

    // Slaves can only use ISR
    if(i2c->currentMode == I2C_SLAVE) opMode = I2C_OP_MODE_ISR;
     e76:	f890 3249 	ldrb.w	r3, [r0, #585]	; 0x249
     e7a:	2b01      	cmp	r3, #1
     e7c:	d00b      	beq.n	e96 <i2c_t3::setOpMode_(i2cStruct*, unsigned char, i2c_op_mode)+0x3e>

    if(opMode == I2C_OP_MODE_IMM)
     e7e:	b922      	cbnz	r2, e8a <i2c_t3::setOpMode_(i2cStruct*, unsigned char, i2c_op_mode)+0x32>
    {
        i2c->opMode = I2C_OP_MODE_IMM;
     e80:	2300      	movs	r3, #0
     e82:	f880 3248 	strb.w	r3, [r0, #584]	; 0x248
            }
        }
        else
            i2c->opMode = I2C_OP_MODE_ISR;
    }
    return 1;
     e86:	2001      	movs	r0, #1
     e88:	bd70      	pop	{r4, r5, r6, pc}

    if(opMode == I2C_OP_MODE_IMM)
    {
        i2c->opMode = I2C_OP_MODE_IMM;
    }
    if(opMode == I2C_OP_MODE_ISR || opMode == I2C_OP_MODE_DMA)
     e8a:	1e53      	subs	r3, r2, #1
     e8c:	b2db      	uxtb	r3, r3
     e8e:	2b01      	cmp	r3, #1
     e90:	f200 809f 	bhi.w	fd2 <i2c_t3::setOpMode_(i2cStruct*, unsigned char, i2c_op_mode)+0x17a>
     e94:	e000      	b.n	e98 <i2c_t3::setOpMode_(i2cStruct*, unsigned char, i2c_op_mode)+0x40>

    *(i2c->C1) = I2C_C1_IICEN; // reset I2C modes, stop intr, stop DMA
    *(i2c->S) = I2C_S_IICIF | I2C_S_ARBL; // clear status flags just in case

    // Slaves can only use ISR
    if(i2c->currentMode == I2C_SLAVE) opMode = I2C_OP_MODE_ISR;
     e96:	2201      	movs	r2, #1
        i2c->opMode = I2C_OP_MODE_IMM;
    }
    if(opMode == I2C_OP_MODE_ISR || opMode == I2C_OP_MODE_DMA)
    {
        // Nested Vec Interrupt Ctrl - enable I2C interrupt
        if(bus == 0)
     e98:	b925      	cbnz	r5, ea4 <i2c_t3::setOpMode_(i2cStruct*, unsigned char, i2c_op_mode)+0x4c>
        {
            NVIC_ENABLE_IRQ(IRQ_I2C0);
     e9a:	f04f 7180 	mov.w	r1, #16777216	; 0x1000000
     e9e:	4b4e      	ldr	r3, [pc, #312]	; (fd8 <i2c_t3::setOpMode_(i2cStruct*, unsigned char, i2c_op_mode)+0x180>)
     ea0:	6019      	str	r1, [r3, #0]
     ea2:	e005      	b.n	eb0 <i2c_t3::setOpMode_(i2cStruct*, unsigned char, i2c_op_mode)+0x58>
            I2C0_INTR_FLAG_INIT; // init I2C0 interrupt flag if used
        }
        #if I2C_BUS_NUM >= 2
            if(bus == 1)
     ea4:	2d01      	cmp	r5, #1
     ea6:	d103      	bne.n	eb0 <i2c_t3::setOpMode_(i2cStruct*, unsigned char, i2c_op_mode)+0x58>
            {
                NVIC_ENABLE_IRQ(IRQ_I2C1);
     ea8:	f04f 7100 	mov.w	r1, #33554432	; 0x2000000
     eac:	4b4a      	ldr	r3, [pc, #296]	; (fd8 <i2c_t3::setOpMode_(i2cStruct*, unsigned char, i2c_op_mode)+0x180>)
     eae:	6019      	str	r1, [r3, #0]
            {
                NVIC_ENABLE_IRQ(IRQ_I2C3);
                I2C3_INTR_FLAG_INIT; // init I2C3 interrupt flag if used
            }
        #endif
        if(opMode == I2C_OP_MODE_DMA)
     eb0:	2a02      	cmp	r2, #2
     eb2:	f040 8088 	bne.w	fc6 <i2c_t3::setOpMode_(i2cStruct*, unsigned char, i2c_op_mode)+0x16e>
        {
            // attempt to get a DMA Channel (if not already allocated)
            if(i2c->DMA == nullptr)
     eb6:	f8d4 6264 	ldr.w	r6, [r4, #612]	; 0x264
     eba:	b94e      	cbnz	r6, ed0 <i2c_t3::setOpMode_(i2cStruct*, unsigned char, i2c_op_mode)+0x78>
                i2c->DMA = new DMAChannel();
     ebc:	2008      	movs	r0, #8
     ebe:	f002 fb69 	bl	3594 <operator new(unsigned int)>
     ec2:	4606      	mov	r6, r0
	/*************************************************/
	/**    Channel Allocation                       **/
	/*************************************************/

	DMAChannel() {
		begin();
     ec4:	2100      	movs	r1, #0
     ec6:	f002 fa79 	bl	33bc <DMAChannel::begin(bool)>
     eca:	f8c4 6264 	str.w	r6, [r4, #612]	; 0x264
            // check if object created but no available channel
            if(i2c->DMA != nullptr && i2c->DMA->channel == DMA_NUM_CHANNELS)
     ece:	b186      	cbz	r6, ef2 <i2c_t3::setOpMode_(i2cStruct*, unsigned char, i2c_op_mode)+0x9a>
     ed0:	7933      	ldrb	r3, [r6, #4]
     ed2:	2b10      	cmp	r3, #16
     ed4:	d10d      	bne.n	ef2 <i2c_t3::setOpMode_(i2cStruct*, unsigned char, i2c_op_mode)+0x9a>
	DMAChannel & operator = (const DMASetting &rhs) {
		copy_tcd(TCD, rhs.TCD);
		return *this;
	}
	~DMAChannel() {
		release();
     ed6:	4630      	mov	r0, r6
     ed8:	f002 face 	bl	3478 <DMAChannel::release()>
            {
                // revert to ISR mode if no DMA channels avail
                delete i2c->DMA;
     edc:	2108      	movs	r1, #8
     ede:	4630      	mov	r0, r6
     ee0:	f002 fb5c 	bl	359c <operator delete(void*, unsigned int)>
                i2c->DMA = nullptr;
     ee4:	2300      	movs	r3, #0
     ee6:	f8c4 3264 	str.w	r3, [r4, #612]	; 0x264
                i2c->opMode = I2C_OP_MODE_ISR;
     eea:	2001      	movs	r0, #1
     eec:	f884 0248 	strb.w	r0, [r4, #584]	; 0x248
     ef0:	bd70      	pop	{r4, r5, r6, pc}
            }
            else
            {
                // DMA object has valid channel
                if(bus == 0)
     ef2:	bb75      	cbnz	r5, f52 <i2c_t3::setOpMode_(i2cStruct*, unsigned char, i2c_op_mode)+0xfa>
	void interruptAtHalf(void) {
		TCD->CSR |= DMA_TCD_CSR_INTHALF;
	}

	void disableOnCompletion(void) {
		TCD->CSR |= DMA_TCD_CSR_DREQ;
     ef4:	6832      	ldr	r2, [r6, #0]
     ef6:	8b93      	ldrh	r3, [r2, #28]
     ef8:	b29b      	uxth	r3, r3
     efa:	f043 0308 	orr.w	r3, r3, #8
     efe:	8393      	strh	r3, [r2, #28]
                {
                    // setup static DMA settings
                    i2c->DMA->disableOnCompletion();
                    i2c->DMA->attachInterrupt(i2c0_isr);
     f00:	f8d4 2264 	ldr.w	r2, [r4, #612]	; 0x264

	// An interrupt routine can be run when the DMA channel completes
	// the entire transfer, and also optionally when half of the
	// transfer is completed.
	void attachInterrupt(void (*isr)(void)) {
		_VectorsRam[channel + IRQ_DMA_CH0 + 16] = isr;
     f04:	7913      	ldrb	r3, [r2, #4]
     f06:	3310      	adds	r3, #16
     f08:	4834      	ldr	r0, [pc, #208]	; (fdc <i2c_t3::setOpMode_(i2cStruct*, unsigned char, i2c_op_mode)+0x184>)
     f0a:	4935      	ldr	r1, [pc, #212]	; (fe0 <i2c_t3::setOpMode_(i2cStruct*, unsigned char, i2c_op_mode)+0x188>)
     f0c:	f841 0023 	str.w	r0, [r1, r3, lsl #2]
		NVIC_ENABLE_IRQ(IRQ_DMA_CH0 + channel);
     f10:	7912      	ldrb	r2, [r2, #4]
     f12:	1153      	asrs	r3, r2, #5
     f14:	009b      	lsls	r3, r3, #2
     f16:	f103 4360 	add.w	r3, r3, #3758096384	; 0xe0000000
     f1a:	f503 4361 	add.w	r3, r3, #57600	; 0xe100
     f1e:	f002 021f 	and.w	r2, r2, #31
     f22:	2101      	movs	r1, #1
     f24:	fa01 f202 	lsl.w	r2, r1, r2
     f28:	601a      	str	r2, [r3, #0]
	/*************************************************/
	/**    Special Options / Features               **/
	/*************************************************/

	void interruptAtCompletion(void) {
		TCD->CSR |= DMA_TCD_CSR_INTMAJOR;
     f2a:	f8d4 3264 	ldr.w	r3, [r4, #612]	; 0x264
     f2e:	681a      	ldr	r2, [r3, #0]
     f30:	8b93      	ldrh	r3, [r2, #28]
     f32:	b29b      	uxth	r3, r3
     f34:	f043 0302 	orr.w	r3, r3, #2
     f38:	8393      	strh	r3, [r2, #28]
	// 32 bits.  If a channel is configured for 200 transfers

	// Use a hardware trigger to make the DMA channel run
	void triggerAtHardwareEvent(uint8_t source) {
		volatile uint8_t *mux;
		mux = (volatile uint8_t *)&(DMAMUX0_CHCFG0) + channel;
     f3a:	f8d4 3264 	ldr.w	r3, [r4, #612]	; 0x264
     f3e:	791b      	ldrb	r3, [r3, #4]
     f40:	f103 4380 	add.w	r3, r3, #1073741824	; 0x40000000
     f44:	f503 3304 	add.w	r3, r3, #135168	; 0x21000
		*mux = 0;
     f48:	2200      	movs	r2, #0
     f4a:	701a      	strb	r2, [r3, #0]
		*mux = (source & 63) | DMAMUX_ENABLE;
     f4c:	2296      	movs	r2, #150	; 0x96
     f4e:	701a      	strb	r2, [r3, #0]
     f50:	e031      	b.n	fb6 <i2c_t3::setOpMode_(i2cStruct*, unsigned char, i2c_op_mode)+0x15e>
                    i2c->DMA->interruptAtCompletion();
                    i2c->DMA->triggerAtHardwareEvent(DMAMUX_SOURCE_I2C0);
                }
                #if I2C_BUS_NUM >= 2
                    if(bus == 1)
     f52:	2d01      	cmp	r5, #1
     f54:	d12f      	bne.n	fb6 <i2c_t3::setOpMode_(i2cStruct*, unsigned char, i2c_op_mode)+0x15e>
	void interruptAtHalf(void) {
		TCD->CSR |= DMA_TCD_CSR_INTHALF;
	}

	void disableOnCompletion(void) {
		TCD->CSR |= DMA_TCD_CSR_DREQ;
     f56:	f8d4 3264 	ldr.w	r3, [r4, #612]	; 0x264
     f5a:	681a      	ldr	r2, [r3, #0]
     f5c:	8b93      	ldrh	r3, [r2, #28]
     f5e:	b29b      	uxth	r3, r3
     f60:	f043 0308 	orr.w	r3, r3, #8
     f64:	8393      	strh	r3, [r2, #28]
                    {
                        // setup static DMA settings
                        i2c->DMA->disableOnCompletion();
                        i2c->DMA->attachInterrupt(i2c1_isr);
     f66:	f8d4 2264 	ldr.w	r2, [r4, #612]	; 0x264

	// An interrupt routine can be run when the DMA channel completes
	// the entire transfer, and also optionally when half of the
	// transfer is completed.
	void attachInterrupt(void (*isr)(void)) {
		_VectorsRam[channel + IRQ_DMA_CH0 + 16] = isr;
     f6a:	7913      	ldrb	r3, [r2, #4]
     f6c:	3310      	adds	r3, #16
     f6e:	481d      	ldr	r0, [pc, #116]	; (fe4 <i2c_t3::setOpMode_(i2cStruct*, unsigned char, i2c_op_mode)+0x18c>)
     f70:	491b      	ldr	r1, [pc, #108]	; (fe0 <i2c_t3::setOpMode_(i2cStruct*, unsigned char, i2c_op_mode)+0x188>)
     f72:	f841 0023 	str.w	r0, [r1, r3, lsl #2]
		NVIC_ENABLE_IRQ(IRQ_DMA_CH0 + channel);
     f76:	7912      	ldrb	r2, [r2, #4]
     f78:	1153      	asrs	r3, r2, #5
     f7a:	009b      	lsls	r3, r3, #2
     f7c:	f103 4360 	add.w	r3, r3, #3758096384	; 0xe0000000
     f80:	f503 4361 	add.w	r3, r3, #57600	; 0xe100
     f84:	f002 021f 	and.w	r2, r2, #31
     f88:	2101      	movs	r1, #1
     f8a:	fa01 f202 	lsl.w	r2, r1, r2
     f8e:	601a      	str	r2, [r3, #0]
	/*************************************************/
	/**    Special Options / Features               **/
	/*************************************************/

	void interruptAtCompletion(void) {
		TCD->CSR |= DMA_TCD_CSR_INTMAJOR;
     f90:	f8d4 3264 	ldr.w	r3, [r4, #612]	; 0x264
     f94:	681a      	ldr	r2, [r3, #0]
     f96:	8b93      	ldrh	r3, [r2, #28]
     f98:	b29b      	uxth	r3, r3
     f9a:	f043 0302 	orr.w	r3, r3, #2
     f9e:	8393      	strh	r3, [r2, #28]
	// 32 bits.  If a channel is configured for 200 transfers

	// Use a hardware trigger to make the DMA channel run
	void triggerAtHardwareEvent(uint8_t source) {
		volatile uint8_t *mux;
		mux = (volatile uint8_t *)&(DMAMUX0_CHCFG0) + channel;
     fa0:	f8d4 3264 	ldr.w	r3, [r4, #612]	; 0x264
     fa4:	791b      	ldrb	r3, [r3, #4]
     fa6:	f103 4380 	add.w	r3, r3, #1073741824	; 0x40000000
     faa:	f503 3304 	add.w	r3, r3, #135168	; 0x21000
		*mux = 0;
     fae:	2200      	movs	r2, #0
     fb0:	701a      	strb	r2, [r3, #0]
		*mux = (source & 63) | DMAMUX_ENABLE;
     fb2:	2297      	movs	r2, #151	; 0x97
     fb4:	701a      	strb	r2, [r3, #0]
                        i2c->DMA->attachInterrupt(i2c3_isr);
                        i2c->DMA->interruptAtCompletion();
                        i2c->DMA->triggerAtHardwareEvent(DMAMUX_SOURCE_I2C3);
                    }
                #endif
                i2c->activeDMA = I2C_DMA_OFF;
     fb6:	2300      	movs	r3, #0
     fb8:	f884 325a 	strb.w	r3, [r4, #602]	; 0x25a
                i2c->opMode = I2C_OP_MODE_DMA;
     fbc:	2302      	movs	r3, #2
     fbe:	f884 3248 	strb.w	r3, [r4, #584]	; 0x248
            }
        }
        else
            i2c->opMode = I2C_OP_MODE_ISR;
    }
    return 1;
     fc2:	2001      	movs	r0, #1
     fc4:	bd70      	pop	{r4, r5, r6, pc}
                i2c->activeDMA = I2C_DMA_OFF;
                i2c->opMode = I2C_OP_MODE_DMA;
            }
        }
        else
            i2c->opMode = I2C_OP_MODE_ISR;
     fc6:	2001      	movs	r0, #1
     fc8:	f884 0248 	strb.w	r0, [r4, #584]	; 0x248
     fcc:	bd70      	pop	{r4, r5, r6, pc}
// parameters:
//      opMode = I2C_OP_MODE_ISR, I2C_OP_MODE_DMA, I2C_OP_MODE_IMM
//
uint8_t i2c_t3::setOpMode_(struct i2cStruct* i2c, uint8_t bus, i2c_op_mode opMode)
{
    if(*(i2c->S) & I2C_S_BUSY) return 0; // return immediately if bus busy
     fce:	2000      	movs	r0, #0
        }
        else
            i2c->opMode = I2C_OP_MODE_ISR;
    }
    return 1;
}
     fd0:	4770      	bx	lr
            }
        }
        else
            i2c->opMode = I2C_OP_MODE_ISR;
    }
    return 1;
     fd2:	2001      	movs	r0, #1
}
     fd4:	bd70      	pop	{r4, r5, r6, pc}
     fd6:	bf00      	nop
     fd8:	e000e100 	.word	0xe000e100
     fdc:	00002111 	.word	0x00002111
     fe0:	1fff8200 	.word	0x1fff8200
     fe4:	00002121 	.word	0x00002121

00000fe8 <i2c_t3::setRate_(i2cStruct*, unsigned long, unsigned long)>:
//        8          8        400k
//        4          4        200k
//        2          2        100k
//
void i2c_t3::setRate_(struct i2cStruct* i2c, uint32_t busFreq, uint32_t i2cFreq)
{
     fe8:	b470      	push	{r4, r5, r6}
    int32_t target_div = ((busFreq/1000)<<8)/(i2cFreq/1000);
     fea:	4c24      	ldr	r4, [pc, #144]	; (107c <i2c_t3::setRate_(i2cStruct*, unsigned long, unsigned long)+0x94>)
     fec:	fba4 3501 	umull	r3, r5, r4, r1
     ff0:	09ad      	lsrs	r5, r5, #6
     ff2:	022b      	lsls	r3, r5, #8
     ff4:	fba4 2502 	umull	r2, r5, r4, r2
     ff8:	09ad      	lsrs	r5, r5, #6
     ffa:	fbb3 f5f5 	udiv	r5, r3, r5
    size_t idx;
    // find closest divide ratio
    for(idx=0; idx < sizeof(i2c_div_num)/sizeof(i2c_div_num[0]) && (i2c_div_num[idx]<<8) <= target_div; idx++);
     ffe:	f5b5 5fa0 	cmp.w	r5, #5120	; 0x1400
    1002:	db1f      	blt.n	1044 <i2c_t3::setRate_(i2cStruct*, unsigned long, unsigned long)+0x5c>
    1004:	4a1e      	ldr	r2, [pc, #120]	; (1080 <i2c_t3::setRate_(i2cStruct*, unsigned long, unsigned long)+0x98>)
    1006:	2301      	movs	r3, #1
    1008:	f852 4f04 	ldr.w	r4, [r2, #4]!
    100c:	ebb5 2f04 	cmp.w	r5, r4, lsl #8
    1010:	db03      	blt.n	101a <i2c_t3::setRate_(i2cStruct*, unsigned long, unsigned long)+0x32>
    1012:	3301      	adds	r3, #1
    1014:	2b37      	cmp	r3, #55	; 0x37
    1016:	d1f7      	bne.n	1008 <i2c_t3::setRate_(i2cStruct*, unsigned long, unsigned long)+0x20>
    1018:	e000      	b.n	101c <i2c_t3::setRate_(i2cStruct*, unsigned long, unsigned long)+0x34>
    if(idx && abs(target_div-(i2c_div_num[idx-1]<<8)) <= abs(target_div-(i2c_div_num[idx]<<8))) idx--;
    101a:	b1a3      	cbz	r3, 1046 <i2c_t3::setRate_(i2cStruct*, unsigned long, unsigned long)+0x5e>
    101c:	1e5c      	subs	r4, r3, #1
    101e:	4e18      	ldr	r6, [pc, #96]	; (1080 <i2c_t3::setRate_(i2cStruct*, unsigned long, unsigned long)+0x98>)
    1020:	f856 2024 	ldr.w	r2, [r6, r4, lsl #2]
    1024:	eba5 2202 	sub.w	r2, r5, r2, lsl #8
    1028:	2a00      	cmp	r2, #0
    102a:	bfb8      	it	lt
    102c:	4252      	neglt	r2, r2
    102e:	f856 6023 	ldr.w	r6, [r6, r3, lsl #2]
    1032:	eba5 2506 	sub.w	r5, r5, r6, lsl #8
    1036:	2d00      	cmp	r5, #0
    1038:	bfb8      	it	lt
    103a:	426d      	neglt	r5, r5
    103c:	42aa      	cmp	r2, r5
    103e:	bfd8      	it	le
    1040:	4623      	movle	r3, r4
    1042:	e000      	b.n	1046 <i2c_t3::setRate_(i2cStruct*, unsigned long, unsigned long)+0x5e>
void i2c_t3::setRate_(struct i2cStruct* i2c, uint32_t busFreq, uint32_t i2cFreq)
{
    int32_t target_div = ((busFreq/1000)<<8)/(i2cFreq/1000);
    size_t idx;
    // find closest divide ratio
    for(idx=0; idx < sizeof(i2c_div_num)/sizeof(i2c_div_num[0]) && (i2c_div_num[idx]<<8) <= target_div; idx++);
    1044:	2300      	movs	r3, #0
    if(idx && abs(target_div-(i2c_div_num[idx-1]<<8)) <= abs(target_div-(i2c_div_num[idx]<<8))) idx--;
    // Set divider to set rate
    *(i2c->F) = i2c_div_ratio[idx];
    1046:	6842      	ldr	r2, [r0, #4]
    1048:	4c0e      	ldr	r4, [pc, #56]	; (1084 <i2c_t3::setRate_(i2cStruct*, unsigned long, unsigned long)+0x9c>)
    104a:	5ce4      	ldrb	r4, [r4, r3]
    104c:	7014      	strb	r4, [r2, #0]
    // save current rate setting
    i2c->currentRate = busFreq/i2c_div_num[idx];
    104e:	4a0c      	ldr	r2, [pc, #48]	; (1080 <i2c_t3::setRate_(i2cStruct*, unsigned long, unsigned long)+0x98>)
    1050:	f852 3023 	ldr.w	r3, [r2, r3, lsl #2]
    1054:	fbb1 f3f3 	udiv	r3, r1, r3
    1058:	f8c0 324c 	str.w	r3, [r0, #588]	; 0x24c

    // Set filter
    if(busFreq >= 48000000)
    105c:	4b0a      	ldr	r3, [pc, #40]	; (1088 <i2c_t3::setRate_(i2cStruct*, unsigned long, unsigned long)+0xa0>)
    105e:	4299      	cmp	r1, r3
    1060:	d903      	bls.n	106a <i2c_t3::setRate_(i2cStruct*, unsigned long, unsigned long)+0x82>
        *(i2c->FLT) = 4;
    1062:	6983      	ldr	r3, [r0, #24]
    1064:	2204      	movs	r2, #4
    1066:	701a      	strb	r2, [r3, #0]
    1068:	e006      	b.n	1078 <i2c_t3::setRate_(i2cStruct*, unsigned long, unsigned long)+0x90>
    else
        *(i2c->FLT) = busFreq/12000000;
    106a:	6983      	ldr	r3, [r0, #24]
    106c:	4a07      	ldr	r2, [pc, #28]	; (108c <i2c_t3::setRate_(i2cStruct*, unsigned long, unsigned long)+0xa4>)
    106e:	fba2 2101 	umull	r2, r1, r2, r1
    1072:	f3c1 5107 	ubfx	r1, r1, #20, #8
    1076:	7019      	strb	r1, [r3, #0]
}
    1078:	bc70      	pop	{r4, r5, r6}
    107a:	4770      	bx	lr
    107c:	10624dd3 	.word	0x10624dd3
    1080:	00008d18 	.word	0x00008d18
    1084:	00008df4 	.word	0x00008df4
    1088:	02dc6bff 	.word	0x02dc6bff
    108c:	165e9f81 	.word	0x165e9f81

00001090 <i2c_t3::pinConfigure_(i2cStruct*, unsigned char, i2c_pins, i2c_pullup, unsigned char)>:
//
#define PIN_CONFIG_ALT(name,alt) uint32_t name = (pullup == I2C_PULLUP_EXT) ? (PORT_PCR_MUX(alt)|PORT_PCR_ODE|PORT_PCR_SRE|PORT_PCR_DSE) \
                                                                            : (PORT_PCR_MUX(alt)|PORT_PCR_PE|PORT_PCR_PS)

uint8_t i2c_t3::pinConfigure_(struct i2cStruct* i2c, uint8_t bus, i2c_pins pins, i2c_pullup pullup, uint8_t reconfig)
{
    1090:	e92d 47f0 	stmdb	sp!, {r4, r5, r6, r7, r8, r9, sl, lr}
    1094:	f89d e020 	ldrb.w	lr, [sp, #32]
    uint8_t retval = 0;

    if(reconfig && (*(i2c->S) & I2C_S_BUSY)) return 0; // if reconfig return immediately if bus busy (otherwise assume initial setup)
    1098:	f1be 0f00 	cmp.w	lr, #0
    109c:	d072      	beq.n	1184 <i2c_t3::pinConfigure_(i2cStruct*, unsigned char, i2c_pins, i2c_pullup, unsigned char)+0xf4>
    109e:	68c4      	ldr	r4, [r0, #12]
    10a0:	7824      	ldrb	r4, [r4, #0]
    10a2:	f014 0f20 	tst.w	r4, #32
    10a6:	d164      	bne.n	1172 <i2c_t3::pinConfigure_(i2cStruct*, unsigned char, i2c_pins, i2c_pullup, unsigned char)+0xe2>
    10a8:	e06c      	b.n	1184 <i2c_t3::pinConfigure_(i2cStruct*, unsigned char, i2c_pins, i2c_pullup, unsigned char)+0xf4>

    // Verify new pin setting is valid
    //
    if(bus == 0)
    {
        switch(pins)
    10aa:	2a01      	cmp	r2, #1
    10ac:	d864      	bhi.n	1178 <i2c_t3::pinConfigure_(i2cStruct*, unsigned char, i2c_pins, i2c_pullup, unsigned char)+0xe8>
    10ae:	461c      	mov	r4, r3
    10b0:	4615      	mov	r5, r2
    10b2:	4689      	mov	r9, r1
    10b4:	4680      	mov	r8, r0
    // and there will be no change to the configuration.
    //
    if(retval)
    {
        // If reconfig set, switch previous pins to non-I2C
        if(reconfig)
    10b6:	f1be 0f00 	cmp.w	lr, #0
    10ba:	d032      	beq.n	1122 <i2c_t3::pinConfigure_(i2cStruct*, unsigned char, i2c_pins, i2c_pullup, unsigned char)+0x92>
        {
            uint8_t old_mode = (i2c->currentPullup == I2C_PULLUP_EXT) ? INPUT : INPUT_PULLUP;
    10bc:	f890 324b 	ldrb.w	r3, [r0, #587]	; 0x24b
    10c0:	2b00      	cmp	r3, #0
    10c2:	bf0c      	ite	eq
    10c4:	f04f 0a00 	moveq.w	sl, #0
    10c8:	f04f 0a02 	movne.w	sl, #2
            switch(i2c->currentPins)
    10cc:	f890 324a 	ldrb.w	r3, [r0, #586]	; 0x24a
    10d0:	2b03      	cmp	r3, #3
    10d2:	d826      	bhi.n	1122 <i2c_t3::pinConfigure_(i2cStruct*, unsigned char, i2c_pins, i2c_pullup, unsigned char)+0x92>
    10d4:	e8df f003 	tbb	[pc, r3]
    10d8:	1d140b02 	.word	0x1d140b02
            {
            case I2C_PINS_16_17:
                pinMode(17,old_mode);
    10dc:	4651      	mov	r1, sl
    10de:	2011      	movs	r0, #17
    10e0:	f001 f99a 	bl	2418 <pinMode>
                pinMode(16,old_mode);
    10e4:	4651      	mov	r1, sl
    10e6:	2010      	movs	r0, #16
    10e8:	f001 f996 	bl	2418 <pinMode>
                break;
    10ec:	e019      	b.n	1122 <i2c_t3::pinConfigure_(i2cStruct*, unsigned char, i2c_pins, i2c_pullup, unsigned char)+0x92>
            case I2C_PINS_18_19:
                pinMode(18,old_mode);
    10ee:	4651      	mov	r1, sl
    10f0:	2012      	movs	r0, #18
    10f2:	f001 f991 	bl	2418 <pinMode>
                pinMode(19,old_mode);
    10f6:	4651      	mov	r1, sl
    10f8:	2013      	movs	r0, #19
    10fa:	f001 f98d 	bl	2418 <pinMode>
                break;
    10fe:	e010      	b.n	1122 <i2c_t3::pinConfigure_(i2cStruct*, unsigned char, i2c_pins, i2c_pullup, unsigned char)+0x92>
                pinMode(22,old_mode);
                break;
            #endif
            #if defined(__MK20DX256__) // 3.1/3.2
            case I2C_PINS_29_30:
                pinMode(30,old_mode);
    1100:	4651      	mov	r1, sl
    1102:	201e      	movs	r0, #30
    1104:	f001 f988 	bl	2418 <pinMode>
                pinMode(29,old_mode);
    1108:	4651      	mov	r1, sl
    110a:	201d      	movs	r0, #29
    110c:	f001 f984 	bl	2418 <pinMode>
                break;
    1110:	e007      	b.n	1122 <i2c_t3::pinConfigure_(i2cStruct*, unsigned char, i2c_pins, i2c_pullup, unsigned char)+0x92>
            case I2C_PINS_26_31:
                pinMode(31,old_mode);
    1112:	4651      	mov	r1, sl
    1114:	201f      	movs	r0, #31
    1116:	f001 f97f 	bl	2418 <pinMode>
                pinMode(26,old_mode);
    111a:	4651      	mov	r1, sl
    111c:	201a      	movs	r0, #26
    111e:	f001 f97b 	bl	2418 <pinMode>
            }
        }

        // Configure new pins
        //
        if(bus == 0)
    1122:	f1b9 0f00 	cmp.w	r9, #0
    1126:	d10d      	bne.n	1144 <i2c_t3::pinConfigure_(i2cStruct*, unsigned char, i2c_pins, i2c_pullup, unsigned char)+0xb4>
        {
            switch(pins)
    1128:	b115      	cbz	r5, 1130 <i2c_t3::pinConfigure_(i2cStruct*, unsigned char, i2c_pins, i2c_pullup, unsigned char)+0xa0>
    112a:	2d01      	cmp	r5, #1
    112c:	d005      	beq.n	113a <i2c_t3::pinConfigure_(i2cStruct*, unsigned char, i2c_pins, i2c_pullup, unsigned char)+0xaa>
    112e:	e009      	b.n	1144 <i2c_t3::pinConfigure_(i2cStruct*, unsigned char, i2c_pins, i2c_pullup, unsigned char)+0xb4>
            {
            case I2C_PINS_16_17:
                CORE_PIN17_CONFIG = pinConfigAlt2;
    1130:	4b21      	ldr	r3, [pc, #132]	; (11b8 <i2c_t3::pinConfigure_(i2cStruct*, unsigned char, i2c_pins, i2c_pullup, unsigned char)+0x128>)
    1132:	601e      	str	r6, [r3, #0]
                CORE_PIN16_CONFIG = pinConfigAlt2;
    1134:	3b04      	subs	r3, #4
    1136:	601e      	str	r6, [r3, #0]
                break;
    1138:	e014      	b.n	1164 <i2c_t3::pinConfigure_(i2cStruct*, unsigned char, i2c_pins, i2c_pullup, unsigned char)+0xd4>
            case I2C_PINS_18_19:
                CORE_PIN18_CONFIG = pinConfigAlt2;
    113a:	4b20      	ldr	r3, [pc, #128]	; (11bc <i2c_t3::pinConfigure_(i2cStruct*, unsigned char, i2c_pins, i2c_pullup, unsigned char)+0x12c>)
    113c:	601e      	str	r6, [r3, #0]
                CORE_PIN19_CONFIG = pinConfigAlt2;
    113e:	3b04      	subs	r3, #4
    1140:	601e      	str	r6, [r3, #0]
                break;
    1142:	e00f      	b.n	1164 <i2c_t3::pinConfigure_(i2cStruct*, unsigned char, i2c_pins, i2c_pullup, unsigned char)+0xd4>
            #endif
            default: break;
            }
        }
        #if I2C_BUS_NUM >= 2
            if(bus == 1)
    1144:	f1b9 0f01 	cmp.w	r9, #1
    1148:	d10c      	bne.n	1164 <i2c_t3::pinConfigure_(i2cStruct*, unsigned char, i2c_pins, i2c_pullup, unsigned char)+0xd4>
            {
                switch(pins)
    114a:	2d02      	cmp	r5, #2
    114c:	d006      	beq.n	115c <i2c_t3::pinConfigure_(i2cStruct*, unsigned char, i2c_pins, i2c_pullup, unsigned char)+0xcc>
    114e:	2d03      	cmp	r5, #3
    1150:	d108      	bne.n	1164 <i2c_t3::pinConfigure_(i2cStruct*, unsigned char, i2c_pins, i2c_pullup, unsigned char)+0xd4>
                    CORE_PIN22_CONFIG = pinConfigAlt2;
                    break;
                #endif
                #if defined(__MK20DX256__) // 3.1/3.2
                case I2C_PINS_26_31:
                    CORE_PIN31_CONFIG = pinConfigAlt6;
    1152:	4b1b      	ldr	r3, [pc, #108]	; (11c0 <i2c_t3::pinConfigure_(i2cStruct*, unsigned char, i2c_pins, i2c_pullup, unsigned char)+0x130>)
    1154:	601f      	str	r7, [r3, #0]
                    CORE_PIN26_CONFIG = pinConfigAlt6;
    1156:	3304      	adds	r3, #4
    1158:	601f      	str	r7, [r3, #0]
                    break;
    115a:	e003      	b.n	1164 <i2c_t3::pinConfigure_(i2cStruct*, unsigned char, i2c_pins, i2c_pullup, unsigned char)+0xd4>
                case I2C_PINS_29_30:
                    CORE_PIN30_CONFIG = pinConfigAlt2;
    115c:	4b19      	ldr	r3, [pc, #100]	; (11c4 <i2c_t3::pinConfigure_(i2cStruct*, unsigned char, i2c_pins, i2c_pullup, unsigned char)+0x134>)
    115e:	601e      	str	r6, [r3, #0]
                    CORE_PIN29_CONFIG = pinConfigAlt2;
    1160:	3b04      	subs	r3, #4
    1162:	601e      	str	r6, [r3, #0]
                }
            }
        #endif

        // Update settings
        i2c->currentPins = pins;
    1164:	f888 524a 	strb.w	r5, [r8, #586]	; 0x24a
        i2c->currentPullup = pullup;
    1168:	f888 424b 	strb.w	r4, [r8, #587]	; 0x24b
    116c:	2001      	movs	r0, #1
    116e:	e8bd 87f0 	ldmia.w	sp!, {r4, r5, r6, r7, r8, r9, sl, pc}

uint8_t i2c_t3::pinConfigure_(struct i2cStruct* i2c, uint8_t bus, i2c_pins pins, i2c_pullup pullup, uint8_t reconfig)
{
    uint8_t retval = 0;

    if(reconfig && (*(i2c->S) & I2C_S_BUSY)) return 0; // if reconfig return immediately if bus busy (otherwise assume initial setup)
    1172:	2000      	movs	r0, #0
    1174:	e8bd 87f0 	ldmia.w	sp!, {r4, r5, r6, r7, r8, r9, sl, pc}
        // Update settings
        i2c->currentPins = pins;
        i2c->currentPullup = pullup;
    }

    return retval;
    1178:	2000      	movs	r0, #0
    117a:	e8bd 87f0 	ldmia.w	sp!, {r4, r5, r6, r7, r8, r9, sl, pc}
    117e:	2000      	movs	r0, #0
    1180:	e8bd 87f0 	ldmia.w	sp!, {r4, r5, r6, r7, r8, r9, sl, pc}

    if(reconfig && (*(i2c->S) & I2C_S_BUSY)) return 0; // if reconfig return immediately if bus busy (otherwise assume initial setup)

    // Create config settings
    //
    PIN_CONFIG_ALT(pinConfigAlt2,2);
    1184:	2b00      	cmp	r3, #0
    1186:	f240 2603 	movw	r6, #515	; 0x203
    118a:	bf08      	it	eq
    118c:	f44f 7619 	moveq.w	r6, #612	; 0x264
    1190:	f240 6403 	movw	r4, #1539	; 0x603
    1194:	f240 6764 	movw	r7, #1636	; 0x664
    1198:	2b00      	cmp	r3, #0
    119a:	bf18      	it	ne
    119c:	4627      	movne	r7, r4
        PIN_CONFIG_ALT(pinConfigAlt7,7);
    #endif

    // Verify new pin setting is valid
    //
    if(bus == 0)
    119e:	2900      	cmp	r1, #0
    11a0:	d083      	beq.n	10aa <i2c_t3::pinConfigure_(i2cStruct*, unsigned char, i2c_pins, i2c_pullup, unsigned char)+0x1a>
        #endif
        default: break;
        }
    }
    #if I2C_BUS_NUM >= 2
        if(bus == 1)
    11a2:	2901      	cmp	r1, #1
    11a4:	d002      	beq.n	11ac <i2c_t3::pinConfigure_(i2cStruct*, unsigned char, i2c_pins, i2c_pullup, unsigned char)+0x11c>
        // Update settings
        i2c->currentPins = pins;
        i2c->currentPullup = pullup;
    }

    return retval;
    11a6:	2000      	movs	r0, #0
    11a8:	e8bd 87f0 	ldmia.w	sp!, {r4, r5, r6, r7, r8, r9, sl, pc}
        }
    }
    #if I2C_BUS_NUM >= 2
        if(bus == 1)
        {
            switch(pins)
    11ac:	1e94      	subs	r4, r2, #2
    11ae:	2c01      	cmp	r4, #1
    11b0:	f67f af7d 	bls.w	10ae <i2c_t3::pinConfigure_(i2cStruct*, unsigned char, i2c_pins, i2c_pullup, unsigned char)+0x1e>
    11b4:	e7e3      	b.n	117e <i2c_t3::pinConfigure_(i2cStruct*, unsigned char, i2c_pins, i2c_pullup, unsigned char)+0xee>
    11b6:	bf00      	nop
    11b8:	4004a004 	.word	0x4004a004
    11bc:	4004a00c 	.word	0x4004a00c
    11c0:	4004d000 	.word	0x4004d000
    11c4:	4004b02c 	.word	0x4004b02c

000011c8 <i2c_t3::begin_(i2cStruct*, unsigned char, i2c_mode, unsigned char, unsigned char, i2c_pins, i2c_pullup, unsigned long, i2c_op_mode)>:
//             I2C_RATE_2800, I2C_RATE_3000
//      opMode = I2C_OP_MODE_IMM, I2C_OP_MODE_ISR, I2C_OP_MODE_DMA (ignored for Slave mode, defaults to ISR)
//
void i2c_t3::begin_(struct i2cStruct* i2c, uint8_t bus, i2c_mode mode, uint8_t address1, uint8_t address2,
                    i2c_pins pins, i2c_pullup pullup, uint32_t rate, i2c_op_mode opMode)
{
    11c8:	b570      	push	{r4, r5, r6, lr}
    11ca:	b082      	sub	sp, #8
    11cc:	4604      	mov	r4, r0
    11ce:	f89d 6018 	ldrb.w	r6, [sp, #24]
    // Enable I2C internal clock
    if(bus == 0)
    11d2:	460d      	mov	r5, r1
    11d4:	b929      	cbnz	r1, 11e2 <i2c_t3::begin_(i2cStruct*, unsigned char, i2c_mode, unsigned char, unsigned char, i2c_pins, i2c_pullup, unsigned long, i2c_op_mode)+0x1a>
        SIM_SCGC4 |= SIM_SCGC4_I2C0;
    11d6:	4830      	ldr	r0, [pc, #192]	; (1298 <i2c_t3::begin_(i2cStruct*, unsigned char, i2c_mode, unsigned char, unsigned char, i2c_pins, i2c_pullup, unsigned long, i2c_op_mode)+0xd0>)
    11d8:	6801      	ldr	r1, [r0, #0]
    11da:	f041 0140 	orr.w	r1, r1, #64	; 0x40
    11de:	6001      	str	r1, [r0, #0]
    11e0:	e006      	b.n	11f0 <i2c_t3::begin_(i2cStruct*, unsigned char, i2c_mode, unsigned char, unsigned char, i2c_pins, i2c_pullup, unsigned long, i2c_op_mode)+0x28>
    #if I2C_BUS_NUM >= 2
        if(bus == 1)
    11e2:	2901      	cmp	r1, #1
    11e4:	d104      	bne.n	11f0 <i2c_t3::begin_(i2cStruct*, unsigned char, i2c_mode, unsigned char, unsigned char, i2c_pins, i2c_pullup, unsigned long, i2c_op_mode)+0x28>
            SIM_SCGC4 |= SIM_SCGC4_I2C1;
    11e6:	482c      	ldr	r0, [pc, #176]	; (1298 <i2c_t3::begin_(i2cStruct*, unsigned char, i2c_mode, unsigned char, unsigned char, i2c_pins, i2c_pullup, unsigned long, i2c_op_mode)+0xd0>)
    11e8:	6801      	ldr	r1, [r0, #0]
    11ea:	f041 0180 	orr.w	r1, r1, #128	; 0x80
    11ee:	6001      	str	r1, [r0, #0]
    #if I2C_BUS_NUM >= 4
        if(bus == 3)
            SIM_SCGC1 |= SIM_SCGC1_I2C3;
    #endif

    i2c->currentMode = mode; // Set mode
    11f0:	f884 2249 	strb.w	r2, [r4, #585]	; 0x249
    i2c->currentStatus = I2C_WAITING; // reset status
    11f4:	2100      	movs	r1, #0
    11f6:	f884 1251 	strb.w	r1, [r4, #593]	; 0x251

    // Set Master/Slave address (zeroed in Master to prevent accidental Rx when setup is changed dynamically)
    if(i2c->currentMode == I2C_MASTER)
    11fa:	b93a      	cbnz	r2, 120c <i2c_t3::begin_(i2cStruct*, unsigned char, i2c_mode, unsigned char, unsigned char, i2c_pins, i2c_pullup, unsigned long, i2c_op_mode)+0x44>
    {
        *(i2c->C2) = I2C_C2_HDRS; // Set high drive select
    11fc:	6963      	ldr	r3, [r4, #20]
    11fe:	2220      	movs	r2, #32
    1200:	701a      	strb	r2, [r3, #0]
        *(i2c->A1) = 0;
    1202:	6822      	ldr	r2, [r4, #0]
    1204:	7011      	strb	r1, [r2, #0]
        *(i2c->RA) = 0;
    1206:	69e2      	ldr	r2, [r4, #28]
    1208:	7011      	strb	r1, [r2, #0]
    120a:	e011      	b.n	1230 <i2c_t3::begin_(i2cStruct*, unsigned char, i2c_mode, unsigned char, unsigned char, i2c_pins, i2c_pullup, unsigned long, i2c_op_mode)+0x68>
    }
    else
    {
        *(i2c->C2) = (address2) ? (I2C_C2_HDRS|I2C_C2_RMEN) // Set high drive select and range-match enable
    120c:	6962      	ldr	r2, [r4, #20]
                                : I2C_C2_HDRS;              // Set high drive select
    120e:	2e00      	cmp	r6, #0
    1210:	d13a      	bne.n	1288 <i2c_t3::begin_(i2cStruct*, unsigned char, i2c_mode, unsigned char, unsigned char, i2c_pins, i2c_pullup, unsigned long, i2c_op_mode)+0xc0>
    1212:	e030      	b.n	1276 <i2c_t3::begin_(i2cStruct*, unsigned char, i2c_mode, unsigned char, unsigned char, i2c_pins, i2c_pullup, unsigned long, i2c_op_mode)+0xae>
        // set Slave address, if two addresses are given, setup range and put lower address in A1, higher in RA
        *(i2c->A1) = (address2) ? ((address1 < address2) ? (address1<<1) : (address2<<1))
                                : (address1<<1);
    1214:	005b      	lsls	r3, r3, #1
    1216:	b2db      	uxtb	r3, r3
    1218:	7013      	strb	r3, [r2, #0]
        *(i2c->RA) = (address2) ? ((address1 < address2) ? (address2<<1) : (address1<<1))
    121a:	69e2      	ldr	r2, [r4, #28]
                                : 0;
    121c:	0073      	lsls	r3, r6, #1
    121e:	b2db      	uxtb	r3, r3
    1220:	e005      	b.n	122e <i2c_t3::begin_(i2cStruct*, unsigned char, i2c_mode, unsigned char, unsigned char, i2c_pins, i2c_pullup, unsigned long, i2c_op_mode)+0x66>
    {
        *(i2c->C2) = (address2) ? (I2C_C2_HDRS|I2C_C2_RMEN) // Set high drive select and range-match enable
                                : I2C_C2_HDRS;              // Set high drive select
        // set Slave address, if two addresses are given, setup range and put lower address in A1, higher in RA
        *(i2c->A1) = (address2) ? ((address1 < address2) ? (address1<<1) : (address2<<1))
                                : (address1<<1);
    1222:	0076      	lsls	r6, r6, #1
    1224:	b2f6      	uxtb	r6, r6
    1226:	7016      	strb	r6, [r2, #0]
        *(i2c->RA) = (address2) ? ((address1 < address2) ? (address2<<1) : (address1<<1))
    1228:	69e2      	ldr	r2, [r4, #28]
                                : 0;
    122a:	005b      	lsls	r3, r3, #1
    122c:	b2db      	uxtb	r3, r3
    122e:	7013      	strb	r3, [r2, #0]

    // Setup pins and options (note: does not "unset" unused pins if changed).  As noted in
    // original TwoWire.cpp, internal 3.0/3.1 pullup is strong (about 190 ohms), but it can
    // work if other devices on bus have strong enough pulldown devices (usually true).
    //
    pinConfigure_(i2c, bus, pins, pullup, 0);
    1230:	2300      	movs	r3, #0
    1232:	9300      	str	r3, [sp, #0]
    1234:	f89d 3020 	ldrb.w	r3, [sp, #32]
    1238:	f89d 201c 	ldrb.w	r2, [sp, #28]
    123c:	4629      	mov	r1, r5
    123e:	4620      	mov	r0, r4
    1240:	f7ff ff26 	bl	1090 <i2c_t3::pinConfigure_(i2cStruct*, unsigned char, i2c_pins, i2c_pullup, unsigned char)>
        if(bus == 1)
            setRate_(i2c, (uint32_t)F_CPU, rate); // LC Wire1 bus uses system clock (F_CPU) instead of bus clock (F_BUS)
        else
            setRate_(i2c, (uint32_t)F_BUS, rate);
    #else
        setRate_(i2c, (uint32_t)F_BUS, rate);
    1244:	9a09      	ldr	r2, [sp, #36]	; 0x24
    1246:	4915      	ldr	r1, [pc, #84]	; (129c <i2c_t3::begin_(i2cStruct*, unsigned char, i2c_mode, unsigned char, unsigned char, i2c_pins, i2c_pullup, unsigned long, i2c_op_mode)+0xd4>)
    1248:	4620      	mov	r0, r4
    124a:	f7ff fecd 	bl	fe8 <i2c_t3::setRate_(i2cStruct*, unsigned long, unsigned long)>
    #endif

    // Set config registers and operating mode
    setOpMode_(i2c, bus, opMode);
    124e:	f89d 2028 	ldrb.w	r2, [sp, #40]	; 0x28
    1252:	4629      	mov	r1, r5
    1254:	4620      	mov	r0, r4
    1256:	f7ff fdff 	bl	e58 <i2c_t3::setOpMode_(i2cStruct*, unsigned char, i2c_op_mode)>
    if(i2c->currentMode == I2C_MASTER)
    125a:	f894 3249 	ldrb.w	r3, [r4, #585]	; 0x249
    125e:	b91b      	cbnz	r3, 1268 <i2c_t3::begin_(i2cStruct*, unsigned char, i2c_mode, unsigned char, unsigned char, i2c_pins, i2c_pullup, unsigned long, i2c_op_mode)+0xa0>
        *(i2c->C1) = I2C_C1_IICEN; // Master - enable I2C (hold in Rx mode, intr disabled)
    1260:	68a3      	ldr	r3, [r4, #8]
    1262:	2280      	movs	r2, #128	; 0x80
    1264:	701a      	strb	r2, [r3, #0]
    1266:	e002      	b.n	126e <i2c_t3::begin_(i2cStruct*, unsigned char, i2c_mode, unsigned char, unsigned char, i2c_pins, i2c_pullup, unsigned long, i2c_op_mode)+0xa6>
    else
        *(i2c->C1) = I2C_C1_IICEN|I2C_C1_IICIE; // Slave - enable I2C and interrupts
    1268:	68a3      	ldr	r3, [r4, #8]
    126a:	22c0      	movs	r2, #192	; 0xc0
    126c:	701a      	strb	r2, [r3, #0]

    i2c->resetBusCount = 0;   // bboyes
    126e:	2300      	movs	r3, #0
    1270:	f8c4 326c 	str.w	r3, [r4, #620]	; 0x26c
}
    1274:	e00e      	b.n	1294 <i2c_t3::begin_(i2cStruct*, unsigned char, i2c_mode, unsigned char, unsigned char, i2c_pins, i2c_pullup, unsigned long, i2c_op_mode)+0xcc>
        *(i2c->RA) = 0;
    }
    else
    {
        *(i2c->C2) = (address2) ? (I2C_C2_HDRS|I2C_C2_RMEN) // Set high drive select and range-match enable
                                : I2C_C2_HDRS;              // Set high drive select
    1276:	2120      	movs	r1, #32
    1278:	7011      	strb	r1, [r2, #0]
        // set Slave address, if two addresses are given, setup range and put lower address in A1, higher in RA
        *(i2c->A1) = (address2) ? ((address1 < address2) ? (address1<<1) : (address2<<1))
    127a:	6822      	ldr	r2, [r4, #0]
                                : (address1<<1);
    127c:	005b      	lsls	r3, r3, #1
    127e:	b2db      	uxtb	r3, r3
    1280:	7013      	strb	r3, [r2, #0]
        *(i2c->RA) = (address2) ? ((address1 < address2) ? (address2<<1) : (address1<<1))
    1282:	69e2      	ldr	r2, [r4, #28]
                                : 0;
    1284:	2300      	movs	r3, #0
    1286:	e7d2      	b.n	122e <i2c_t3::begin_(i2cStruct*, unsigned char, i2c_mode, unsigned char, unsigned char, i2c_pins, i2c_pullup, unsigned long, i2c_op_mode)+0x66>
        *(i2c->RA) = 0;
    }
    else
    {
        *(i2c->C2) = (address2) ? (I2C_C2_HDRS|I2C_C2_RMEN) // Set high drive select and range-match enable
                                : I2C_C2_HDRS;              // Set high drive select
    1288:	2128      	movs	r1, #40	; 0x28
    128a:	7011      	strb	r1, [r2, #0]
        // set Slave address, if two addresses are given, setup range and put lower address in A1, higher in RA
        *(i2c->A1) = (address2) ? ((address1 < address2) ? (address1<<1) : (address2<<1))
    128c:	6822      	ldr	r2, [r4, #0]
                                : (address1<<1);
    128e:	429e      	cmp	r6, r3
    1290:	d8c0      	bhi.n	1214 <i2c_t3::begin_(i2cStruct*, unsigned char, i2c_mode, unsigned char, unsigned char, i2c_pins, i2c_pullup, unsigned long, i2c_op_mode)+0x4c>
    1292:	e7c6      	b.n	1222 <i2c_t3::begin_(i2cStruct*, unsigned char, i2c_mode, unsigned char, unsigned char, i2c_pins, i2c_pullup, unsigned long, i2c_op_mode)+0x5a>
        *(i2c->C1) = I2C_C1_IICEN; // Master - enable I2C (hold in Rx mode, intr disabled)
    else
        *(i2c->C1) = I2C_C1_IICEN|I2C_C1_IICIE; // Slave - enable I2C and interrupts

    i2c->resetBusCount = 0;   // bboyes
}
    1294:	b002      	add	sp, #8
    1296:	bd70      	pop	{r4, r5, r6, pc}
    1298:	40048034 	.word	0x40048034
    129c:	02dc6c00 	.word	0x02dc6c00

000012a0 <i2c_t3::resetBus_(i2cStruct*, unsigned char)>:
//             a hung bus in which a Slave device missed some clocks and remains stuck outputting
//             a low signal on SDA (thereby preventing START/STOP signaling).
// return: none
//
void i2c_t3::resetBus_(struct i2cStruct* i2c, uint8_t bus)
{
    12a0:	e92d 4ff0 	stmdb	sp!, {r4, r5, r6, r7, r8, r9, sl, fp, lr}
    12a4:	b083      	sub	sp, #12
    uint8_t scl=0, sda=0, count=0;

    switch(i2c->currentPins)
    12a6:	f890 324a 	ldrb.w	r3, [r0, #586]	; 0x24a
    12aa:	2b03      	cmp	r3, #3
    12ac:	d862      	bhi.n	1374 <L_1477_delayMicroseconds+0x4e>
    12ae:	e8df f003 	tbb	[pc, r3]
    12b2:	0240      	.short	0x0240
    12b4:	0644      	.short	0x0644
    {
    case I2C_PINS_16_17: sda = 17; scl = 16; break;
    case I2C_PINS_18_19: sda = 18; scl = 19; break;
    12b6:	f04f 0812 	mov.w	r8, #18
    12ba:	2513      	movs	r5, #19
    12bc:	e040      	b.n	1340 <L_1477_delayMicroseconds+0x1a>
    #if defined(__MKL26Z64__) // LC
    case I2C_PINS_22_23: sda = 23; scl = 22; break;
    #endif
    #if defined(__MK20DX256__) // 3.1/3.2
    case I2C_PINS_29_30: sda = 30; scl = 29; break;
    case I2C_PINS_26_31: sda = 31; scl = 26; break;
    12be:	f04f 081f 	mov.w	r8, #31
    12c2:	251a      	movs	r5, #26
    12c4:	e03c      	b.n	1340 <L_1477_delayMicroseconds+0x1a>
        // change pin mux to digital I/O
        pinMode(sda,((i2c->currentPullup == I2C_PULLUP_EXT) ? INPUT : INPUT_PULLUP));
        digitalWrite(scl,HIGH);
        pinMode(scl,OUTPUT);

        while(digitalRead(sda) == 0 && count++ < 10)
    12c6:	4640      	mov	r0, r8
    12c8:	f001 f898 	bl	23fc <digitalRead>
    12cc:	b990      	cbnz	r0, 12f4 <L_1428_delayMicroseconds+0x6>
    12ce:	3c01      	subs	r4, #1
    12d0:	f014 04ff 	ands.w	r4, r4, #255	; 0xff
    12d4:	d00e      	beq.n	12f4 <L_1428_delayMicroseconds+0x6>
        {
            digitalWrite(scl,LOW);
    12d6:	4651      	mov	r1, sl
    12d8:	4628      	mov	r0, r5
    12da:	f001 f86b 	bl	23b4 <digitalWrite>
#else
		"subs   %0, #1"				"\n\t"
#endif
		"bne    L_%=_delayMicroseconds"		"\n"
		: "+r" (n) :
	);
    12de:	4633      	mov	r3, r6

000012e0 <L_1414_delayMicroseconds>:
    12e0:	3b01      	subs	r3, #1
    12e2:	d1fd      	bne.n	12e0 <L_1414_delayMicroseconds>
            delayMicroseconds(5);       // 10us period == 100kHz
            digitalWrite(scl,HIGH);
    12e4:	4649      	mov	r1, r9
    12e6:	4628      	mov	r0, r5
    12e8:	f001 f864 	bl	23b4 <digitalWrite>
    12ec:	4633      	mov	r3, r6

000012ee <L_1428_delayMicroseconds>:
    12ee:	3b01      	subs	r3, #1
    12f0:	d1fd      	bne.n	12ee <L_1428_delayMicroseconds>
    12f2:	e7e8      	b.n	12c6 <i2c_t3::resetBus_(i2cStruct*, unsigned char)+0x26>
            delayMicroseconds(5);
        }

        // reconfigure pins for I2C
        pinConfigure_(i2c, bus, i2c->currentPins, i2c->currentPullup, 0);
    12f4:	f897 324b 	ldrb.w	r3, [r7, #587]	; 0x24b
    12f8:	f897 224a 	ldrb.w	r2, [r7, #586]	; 0x24a
    12fc:	2100      	movs	r1, #0
    12fe:	9100      	str	r1, [sp, #0]
    1300:	4659      	mov	r1, fp
    1302:	4638      	mov	r0, r7
    1304:	f7ff fec4 	bl	1090 <i2c_t3::pinConfigure_(i2cStruct*, unsigned char, i2c_pins, i2c_pullup, unsigned char)>

        // reset config and status
        if(*(i2c->S) & 0x7F) // reset config if any residual status bits are set
    1308:	68fb      	ldr	r3, [r7, #12]
    130a:	781b      	ldrb	r3, [r3, #0]
    130c:	f013 0f7f 	tst.w	r3, #127	; 0x7f
    1310:	d00b      	beq.n	132a <L_1477_delayMicroseconds+0x4>
        {
            *(i2c->C1) = 0x00; // disable I2C, intr disabled
    1312:	68bb      	ldr	r3, [r7, #8]
    1314:	2200      	movs	r2, #0
    1316:	701a      	strb	r2, [r3, #0]
    1318:	2350      	movs	r3, #80	; 0x50
    131a:	461a      	mov	r2, r3

0000131c <L_1465_delayMicroseconds>:
    131c:	3a01      	subs	r2, #1
    131e:	d1fd      	bne.n	131c <L_1465_delayMicroseconds>
            delayMicroseconds(5);
            *(i2c->C1) = I2C_C1_IICEN; // enable I2C, intr disabled, Rx mode
    1320:	68ba      	ldr	r2, [r7, #8]
    1322:	2180      	movs	r1, #128	; 0x80
    1324:	7011      	strb	r1, [r2, #0]

00001326 <L_1477_delayMicroseconds>:
    1326:	3b01      	subs	r3, #1
    1328:	d1fd      	bne.n	1326 <L_1477_delayMicroseconds>
            delayMicroseconds(5);
        }
        i2c->currentStatus = I2C_WAITING;
    132a:	2300      	movs	r3, #0
    132c:	f887 3251 	strb.w	r3, [r7, #593]	; 0x251
    }
}
    1330:	e020      	b.n	1374 <L_1477_delayMicroseconds+0x4e>
{
    uint8_t scl=0, sda=0, count=0;

    switch(i2c->currentPins)
    {
    case I2C_PINS_16_17: sda = 17; scl = 16; break;
    1332:	f04f 0811 	mov.w	r8, #17
    1336:	2510      	movs	r5, #16
    1338:	e002      	b.n	1340 <L_1477_delayMicroseconds+0x1a>
    #endif
    #if defined(__MKL26Z64__) // LC
    case I2C_PINS_22_23: sda = 23; scl = 22; break;
    #endif
    #if defined(__MK20DX256__) // 3.1/3.2
    case I2C_PINS_29_30: sda = 30; scl = 29; break;
    133a:	f04f 081e 	mov.w	r8, #30
    133e:	251d      	movs	r5, #29
    1340:	468b      	mov	fp, r1
    1342:	4607      	mov	r7, r0
    #endif
    }
    if(sda && scl)
    {
        // change pin mux to digital I/O
        pinMode(sda,((i2c->currentPullup == I2C_PULLUP_EXT) ? INPUT : INPUT_PULLUP));
    1344:	f890 324b 	ldrb.w	r3, [r0, #587]	; 0x24b
    1348:	2b00      	cmp	r3, #0
    134a:	bf0c      	ite	eq
    134c:	2100      	moveq	r1, #0
    134e:	2102      	movne	r1, #2
    1350:	4640      	mov	r0, r8
    1352:	f001 f861 	bl	2418 <pinMode>
        digitalWrite(scl,HIGH);
    1356:	2101      	movs	r1, #1
    1358:	4628      	mov	r0, r5
    135a:	f001 f82b 	bl	23b4 <digitalWrite>
        pinMode(scl,OUTPUT);
    135e:	2101      	movs	r1, #1
    1360:	4628      	mov	r0, r5
    1362:	f001 f859 	bl	2418 <pinMode>
    1366:	240b      	movs	r4, #11

        while(digitalRead(sda) == 0 && count++ < 10)
        {
            digitalWrite(scl,LOW);
    1368:	f04f 0a00 	mov.w	sl, #0
    136c:	2650      	movs	r6, #80	; 0x50
            delayMicroseconds(5);       // 10us period == 100kHz
            digitalWrite(scl,HIGH);
    136e:	f04f 0901 	mov.w	r9, #1
    1372:	e7a8      	b.n	12c6 <i2c_t3::resetBus_(i2cStruct*, unsigned char)+0x26>
            *(i2c->C1) = I2C_C1_IICEN; // enable I2C, intr disabled, Rx mode
            delayMicroseconds(5);
        }
        i2c->currentStatus = I2C_WAITING;
    }
}
    1374:	b003      	add	sp, #12
    1376:	e8bd 8ff0 	ldmia.w	sp!, {r4, r5, r6, r7, r8, r9, sl, fp, pc}
    137a:	bf00      	nop

0000137c <i2c_t3::acquireBus_(i2cStruct*, unsigned char, unsigned long, unsigned char&)>:
// parameters:
//      timeout = timeout in microseconds
//      forceImm = flag to indicate if immediate mode is required
//
uint8_t i2c_t3::acquireBus_(struct i2cStruct* i2c, uint8_t bus, uint32_t timeout, uint8_t& forceImm)
{
    137c:	e92d 41f0 	stmdb	sp!, {r4, r5, r6, r7, r8, lr}
    1380:	4604      	mov	r4, r0
    1382:	460e      	mov	r6, r1
    1384:	4615      	mov	r5, r2
    1386:	461f      	mov	r7, r3
class elapsedMicros
{
private:
	unsigned long us;
public:
	elapsedMicros(void) { us = micros(); }
    1388:	f001 f906 	bl	2598 <micros>
    elapsedMicros deltaT;
    int irqPriority, currPriority;

    // update timeout
    timeout = (timeout == 0) ? i2c->defTimeout : timeout;
    138c:	b90d      	cbnz	r5, 1392 <i2c_t3::acquireBus_(i2cStruct*, unsigned char, unsigned long, unsigned char&)+0x16>
    138e:	f8d4 5268 	ldr.w	r5, [r4, #616]	; 0x268
	elapsedMicros(unsigned long val) { us = micros() - val; }
	elapsedMicros(const elapsedMicros &orig) { us = orig.us; }
	operator unsigned long () const { return micros() - us; }
	elapsedMicros & operator = (const elapsedMicros &rhs) { us = rhs.us; return *this; }
	elapsedMicros & operator = (unsigned long val) { us = micros() - val; return *this; }
    1392:	f001 f901 	bl	2598 <micros>
    1396:	4680      	mov	r8, r0

    // TODO may need to check bus busy before issuing START if multi-master

    // start timer, then take control of the bus
    deltaT = 0;
    if(*(i2c->C1) & I2C_C1_MST)
    1398:	68a3      	ldr	r3, [r4, #8]
    139a:	781a      	ldrb	r2, [r3, #0]
    139c:	f012 0f20 	tst.w	r2, #32
    13a0:	d002      	beq.n	13a8 <i2c_t3::acquireBus_(i2cStruct*, unsigned char, unsigned long, unsigned char&)+0x2c>
    {
        // we are already the bus master, so send a repeated start
        *(i2c->C1) = I2C_C1_IICEN | I2C_C1_MST | I2C_C1_RSTA | I2C_C1_TX;
    13a2:	22b4      	movs	r2, #180	; 0xb4
    13a4:	701a      	strb	r2, [r3, #0]
    13a6:	e039      	b.n	141c <i2c_t3::acquireBus_(i2cStruct*, unsigned char, unsigned long, unsigned char&)+0xa0>
    }
    else
    {
        while(timeout == 0 || deltaT < timeout)
    13a8:	b12d      	cbz	r5, 13b6 <i2c_t3::acquireBus_(i2cStruct*, unsigned char, unsigned long, unsigned char&)+0x3a>
	unsigned long us;
public:
	elapsedMicros(void) { us = micros(); }
	elapsedMicros(unsigned long val) { us = micros() - val; }
	elapsedMicros(const elapsedMicros &orig) { us = orig.us; }
	operator unsigned long () const { return micros() - us; }
    13aa:	f001 f8f5 	bl	2598 <micros>
    13ae:	ebc8 0000 	rsb	r0, r8, r0
    13b2:	4285      	cmp	r5, r0
    13b4:	d90a      	bls.n	13cc <i2c_t3::acquireBus_(i2cStruct*, unsigned char, unsigned long, unsigned char&)+0x50>
        {
            // we are not currently the bus master, so check if bus ready
            if(!(*(i2c->S) & I2C_S_BUSY))
    13b6:	68e3      	ldr	r3, [r4, #12]
    13b8:	781b      	ldrb	r3, [r3, #0]
    13ba:	f013 0f20 	tst.w	r3, #32
    13be:	d1f3      	bne.n	13a8 <i2c_t3::acquireBus_(i2cStruct*, unsigned char, unsigned long, unsigned char&)+0x2c>
            {
                // become the bus master in transmit mode (send start)
                i2c->currentMode = I2C_MASTER;
    13c0:	2300      	movs	r3, #0
    13c2:	f884 3249 	strb.w	r3, [r4, #585]	; 0x249
                *(i2c->C1) = I2C_C1_IICEN | I2C_C1_MST | I2C_C1_TX;
    13c6:	68a3      	ldr	r3, [r4, #8]
    13c8:	22b0      	movs	r2, #176	; 0xb0
    13ca:	701a      	strb	r2, [r3, #0]
                break;
            }
        }
        #if defined(I2C_AUTO_RETRY)
            // if not master and auto-retry set, then reset bus and try one last time
            if(!(*(i2c->C1) & I2C_C1_MST))
    13cc:	68a3      	ldr	r3, [r4, #8]
    13ce:	781b      	ldrb	r3, [r3, #0]
    13d0:	f013 0f20 	tst.w	r3, #32
    13d4:	d116      	bne.n	1404 <i2c_t3::acquireBus_(i2cStruct*, unsigned char, unsigned long, unsigned char&)+0x88>
            {
                resetBus_(i2c,bus);
    13d6:	4631      	mov	r1, r6
    13d8:	4620      	mov	r0, r4
    13da:	f7ff ff61 	bl	12a0 <i2c_t3::resetBus_(i2cStruct*, unsigned char)>
                if ((i2c->resetBusCount) < UINT32_MAX) i2c->resetBusCount++;   // bboyes max test added 2017Jun20
    13de:	f8d4 326c 	ldr.w	r3, [r4, #620]	; 0x26c
    13e2:	f1b3 3fff 	cmp.w	r3, #4294967295	; 0xffffffff
    13e6:	bf1c      	itt	ne
    13e8:	3301      	addne	r3, #1
    13ea:	f8c4 326c 	strne.w	r3, [r4, #620]	; 0x26c
                if(!(*(i2c->S) & I2C_S_BUSY))
    13ee:	68e3      	ldr	r3, [r4, #12]
    13f0:	781b      	ldrb	r3, [r3, #0]
    13f2:	f013 0f20 	tst.w	r3, #32
    13f6:	d105      	bne.n	1404 <i2c_t3::acquireBus_(i2cStruct*, unsigned char, unsigned long, unsigned char&)+0x88>
                {
                    // become the bus master in transmit mode (send start)
                    i2c->currentMode = I2C_MASTER;
    13f8:	2300      	movs	r3, #0
    13fa:	f884 3249 	strb.w	r3, [r4, #585]	; 0x249
                    *(i2c->C1) = I2C_C1_IICEN | I2C_C1_MST | I2C_C1_TX;
    13fe:	68a3      	ldr	r3, [r4, #8]
    1400:	22b0      	movs	r2, #176	; 0xb0
    1402:	701a      	strb	r2, [r3, #0]
                }
            }
        #endif
        // check if not master
        if(!(*(i2c->C1) & I2C_C1_MST))
    1404:	68a3      	ldr	r3, [r4, #8]
    1406:	781b      	ldrb	r3, [r3, #0]
    1408:	f003 0320 	and.w	r3, r3, #32
    140c:	f003 00ff 	and.w	r0, r3, #255	; 0xff
    1410:	b923      	cbnz	r3, 141c <i2c_t3::acquireBus_(i2cStruct*, unsigned char, unsigned long, unsigned char&)+0xa0>
        {
            i2c->currentStatus = I2C_TIMEOUT; // bus not acquired, mark as timeout
    1412:	2304      	movs	r3, #4
    1414:	f884 3251 	strb.w	r3, [r4, #593]	; 0x251
            return 0;
    1418:	e8bd 81f0 	ldmia.w	sp!, {r4, r5, r6, r7, r8, pc}
        }
    }

    // For ISR operation, check if current routine has higher priority than I2C IRQ, and if so
    // either escalate priority of I2C IRQ or send I2C using immediate mode
    if(i2c->opMode == I2C_OP_MODE_ISR || i2c->opMode == I2C_OP_MODE_DMA)
    141c:	f894 3248 	ldrb.w	r3, [r4, #584]	; 0x248
    1420:	3b01      	subs	r3, #1
    1422:	b2db      	uxtb	r3, r3
    1424:	2b01      	cmp	r3, #1
    1426:	d831      	bhi.n	148c <i2c_t3::acquireBus_(i2cStruct*, unsigned char, unsigned long, unsigned char&)+0x110>
    {
        currPriority = nvic_execution_priority();
    1428:	f000 ff48 	bl	22bc <nvic_execution_priority>
        switch(bus)
    142c:	b116      	cbz	r6, 1434 <i2c_t3::acquireBus_(i2cStruct*, unsigned char, unsigned long, unsigned char&)+0xb8>
    142e:	2e01      	cmp	r6, #1
    1430:	d003      	beq.n	143a <i2c_t3::acquireBus_(i2cStruct*, unsigned char, unsigned long, unsigned char&)+0xbe>
    1432:	e005      	b.n	1440 <i2c_t3::acquireBus_(i2cStruct*, unsigned char, unsigned long, unsigned char&)+0xc4>
        {
        case 0:  irqPriority = NVIC_GET_PRIORITY(IRQ_I2C0); break;
    1434:	4b18      	ldr	r3, [pc, #96]	; (1498 <i2c_t3::acquireBus_(i2cStruct*, unsigned char, unsigned long, unsigned char&)+0x11c>)
    1436:	781b      	ldrb	r3, [r3, #0]
    1438:	e004      	b.n	1444 <i2c_t3::acquireBus_(i2cStruct*, unsigned char, unsigned long, unsigned char&)+0xc8>
        #if defined(__MKL26Z64__) || defined(__MK20DX256__) || defined(__MK64FX512__) || defined(__MK66FX1M0__) // LC/3.1/3.2/3.5/3.6
        case 1:  irqPriority = NVIC_GET_PRIORITY(IRQ_I2C1); break;
    143a:	4b18      	ldr	r3, [pc, #96]	; (149c <i2c_t3::acquireBus_(i2cStruct*, unsigned char, unsigned long, unsigned char&)+0x120>)
    143c:	781b      	ldrb	r3, [r3, #0]
    143e:	e001      	b.n	1444 <i2c_t3::acquireBus_(i2cStruct*, unsigned char, unsigned long, unsigned char&)+0xc8>
        case 2:  irqPriority = NVIC_GET_PRIORITY(IRQ_I2C2); break;
        #endif
        #if defined(__MK66FX1M0__) // 3.6
        case 3:  irqPriority = NVIC_GET_PRIORITY(IRQ_I2C3); break;
        #endif
        default: irqPriority = NVIC_GET_PRIORITY(IRQ_I2C0); break;
    1440:	4b15      	ldr	r3, [pc, #84]	; (1498 <i2c_t3::acquireBus_(i2cStruct*, unsigned char, unsigned long, unsigned char&)+0x11c>)
    1442:	781b      	ldrb	r3, [r3, #0]
        }
        if(currPriority <= irqPriority)
    1444:	4283      	cmp	r3, r0
    1446:	db24      	blt.n	1492 <i2c_t3::acquireBus_(i2cStruct*, unsigned char, unsigned long, unsigned char&)+0x116>
        {
            if(currPriority < 16)
    1448:	280f      	cmp	r0, #15
    144a:	dc03      	bgt.n	1454 <i2c_t3::acquireBus_(i2cStruct*, unsigned char, unsigned long, unsigned char&)+0xd8>
                forceImm = 1; // current priority cannot be surpassed, force Immediate mode
    144c:	2001      	movs	r0, #1
    144e:	7038      	strb	r0, [r7, #0]
    1450:	e8bd 81f0 	ldmia.w	sp!, {r4, r5, r6, r7, r8, pc}
            else
            {
                switch(bus)
    1454:	b116      	cbz	r6, 145c <i2c_t3::acquireBus_(i2cStruct*, unsigned char, unsigned long, unsigned char&)+0xe0>
    1456:	2e01      	cmp	r6, #1
    1458:	d008      	beq.n	146c <i2c_t3::acquireBus_(i2cStruct*, unsigned char, unsigned long, unsigned char&)+0xf0>
    145a:	e00f      	b.n	147c <i2c_t3::acquireBus_(i2cStruct*, unsigned char, unsigned long, unsigned char&)+0x100>
                {
                case 0:  NVIC_SET_PRIORITY(IRQ_I2C0, currPriority-16); break;
    145c:	f1a0 0310 	sub.w	r3, r0, #16
    1460:	b2db      	uxtb	r3, r3
    1462:	4a0d      	ldr	r2, [pc, #52]	; (1498 <i2c_t3::acquireBus_(i2cStruct*, unsigned char, unsigned long, unsigned char&)+0x11c>)
    1464:	7013      	strb	r3, [r2, #0]
                default: NVIC_SET_PRIORITY(IRQ_I2C0, currPriority-16); break;
                }
            }
        }
    }
    return 1;
    1466:	2001      	movs	r0, #1
                forceImm = 1; // current priority cannot be surpassed, force Immediate mode
            else
            {
                switch(bus)
                {
                case 0:  NVIC_SET_PRIORITY(IRQ_I2C0, currPriority-16); break;
    1468:	e8bd 81f0 	ldmia.w	sp!, {r4, r5, r6, r7, r8, pc}
                #if defined(__MKL26Z64__) || defined(__MK20DX256__) || defined(__MK64FX512__) || defined(__MK66FX1M0__) // LC/3.1/3.2/3.5/3.6
                case 1:  NVIC_SET_PRIORITY(IRQ_I2C1, currPriority-16); break;
    146c:	f1a0 0310 	sub.w	r3, r0, #16
    1470:	b2db      	uxtb	r3, r3
    1472:	4a0a      	ldr	r2, [pc, #40]	; (149c <i2c_t3::acquireBus_(i2cStruct*, unsigned char, unsigned long, unsigned char&)+0x120>)
    1474:	7013      	strb	r3, [r2, #0]
                default: NVIC_SET_PRIORITY(IRQ_I2C0, currPriority-16); break;
                }
            }
        }
    }
    return 1;
    1476:	2001      	movs	r0, #1
            {
                switch(bus)
                {
                case 0:  NVIC_SET_PRIORITY(IRQ_I2C0, currPriority-16); break;
                #if defined(__MKL26Z64__) || defined(__MK20DX256__) || defined(__MK64FX512__) || defined(__MK66FX1M0__) // LC/3.1/3.2/3.5/3.6
                case 1:  NVIC_SET_PRIORITY(IRQ_I2C1, currPriority-16); break;
    1478:	e8bd 81f0 	ldmia.w	sp!, {r4, r5, r6, r7, r8, pc}
                case 2:  NVIC_SET_PRIORITY(IRQ_I2C2, currPriority-16); break;
                #endif
                #if defined(__MK66FX1M0__) // 3.6
                case 3:  NVIC_SET_PRIORITY(IRQ_I2C3, currPriority-16); break;
                #endif
                default: NVIC_SET_PRIORITY(IRQ_I2C0, currPriority-16); break;
    147c:	f1a0 0310 	sub.w	r3, r0, #16
    1480:	b2db      	uxtb	r3, r3
    1482:	4a05      	ldr	r2, [pc, #20]	; (1498 <i2c_t3::acquireBus_(i2cStruct*, unsigned char, unsigned long, unsigned char&)+0x11c>)
    1484:	7013      	strb	r3, [r2, #0]
                }
            }
        }
    }
    return 1;
    1486:	2001      	movs	r0, #1
                case 2:  NVIC_SET_PRIORITY(IRQ_I2C2, currPriority-16); break;
                #endif
                #if defined(__MK66FX1M0__) // 3.6
                case 3:  NVIC_SET_PRIORITY(IRQ_I2C3, currPriority-16); break;
                #endif
                default: NVIC_SET_PRIORITY(IRQ_I2C0, currPriority-16); break;
    1488:	e8bd 81f0 	ldmia.w	sp!, {r4, r5, r6, r7, r8, pc}
                }
            }
        }
    }
    return 1;
    148c:	2001      	movs	r0, #1
    148e:	e8bd 81f0 	ldmia.w	sp!, {r4, r5, r6, r7, r8, pc}
    1492:	2001      	movs	r0, #1
}
    1494:	e8bd 81f0 	ldmia.w	sp!, {r4, r5, r6, r7, r8, pc}
    1498:	e000e418 	.word	0xe000e418
    149c:	e000e419 	.word	0xe000e419

000014a0 <i2c_t3::beginTransmission(unsigned char)>:
// parameters:
//      address = target 7bit slave address
//
void i2c_t3::beginTransmission(uint8_t address)
{
    i2c->txBuffer[0] = (address << 1); // store target addr
    14a0:	6903      	ldr	r3, [r0, #16]
    14a2:	0049      	lsls	r1, r1, #1
    14a4:	f883 113c 	strb.w	r1, [r3, #316]	; 0x13c
    i2c->txBufferLength = 1;
    14a8:	6903      	ldr	r3, [r0, #16]
    14aa:	2201      	movs	r2, #1
    14ac:	f8c3 2244 	str.w	r2, [r3, #580]	; 0x244
	int getWriteError() { return write_error; }
	void clearWriteError() { setWriteError(0); }
	int printf(const char *format, ...);
	int printf(const __FlashStringHelper *format, ...);
  protected:
	void setWriteError(int err = 1) { write_error = err; }
    14b0:	2300      	movs	r3, #0
    14b2:	7103      	strb	r3, [r0, #4]
    clearWriteError(); // clear any previous write error
    i2c->currentStatus = I2C_WAITING; // reset status
    14b4:	6902      	ldr	r2, [r0, #16]
    14b6:	f882 3251 	strb.w	r3, [r2, #593]	; 0x251
    14ba:	4770      	bx	lr

000014bc <i2c_t3::sendTransmission_(i2cStruct*, unsigned char, i2c_stop, unsigned long)>:
// parameters:
//      i2c_stop = I2C_NOSTOP, I2C_STOP
//      timeout = timeout in microseconds (only used for Immediate operation)
//
void i2c_t3::sendTransmission_(struct i2cStruct* i2c, uint8_t bus, i2c_stop sendStop, uint32_t timeout)
{
    14bc:	e92d 43f0 	stmdb	sp!, {r4, r5, r6, r7, r8, r9, lr}
    14c0:	b083      	sub	sp, #12
    14c2:	461e      	mov	r6, r3
    uint8_t status, forceImm=0;
    14c4:	2300      	movs	r3, #0
    14c6:	f88d 3007 	strb.w	r3, [sp, #7]
    size_t idx;

    // exit immediately if sending 0 bytes
    if(i2c->txBufferLength == 0) return;
    14ca:	f8d0 3244 	ldr.w	r3, [r0, #580]	; 0x244
    14ce:	2b00      	cmp	r3, #0
    14d0:	f000 80b8 	beq.w	1644 <i2c_t3::sendTransmission_(i2cStruct*, unsigned char, i2c_stop, unsigned long)+0x188>
    14d4:	4604      	mov	r4, r0
    14d6:	4615      	mov	r5, r2

    // update timeout
    timeout = (timeout == 0) ? i2c->defTimeout : timeout;
    14d8:	b90e      	cbnz	r6, 14de <i2c_t3::sendTransmission_(i2cStruct*, unsigned char, i2c_stop, unsigned long)+0x22>
    14da:	f8d0 6268 	ldr.w	r6, [r0, #616]	; 0x268
    // clear the status flags
    #if defined(__MKL26Z64__) || defined(__MK64FX512__) || defined(__MK66FX1M0__) // LC/3.5/3.6
        *(i2c->FLT) |= I2C_FLT_STOPF | I2C_FLT_STARTF;  // clear STOP/START intr
        *(i2c->FLT) &= ~I2C_FLT_SSIE;                   // disable STOP/START intr (not used in Master mode)
    #endif
    *(i2c->S) = I2C_S_IICIF | I2C_S_ARBL; // clear intr, arbl
    14de:	68e3      	ldr	r3, [r4, #12]
    14e0:	2212      	movs	r2, #18
    14e2:	701a      	strb	r2, [r3, #0]

    // try to take control of the bus
    if(!acquireBus_(i2c, bus, timeout, forceImm)) return;
    14e4:	f10d 0307 	add.w	r3, sp, #7
    14e8:	4632      	mov	r2, r6
    14ea:	4620      	mov	r0, r4
    14ec:	f7ff ff46 	bl	137c <i2c_t3::acquireBus_(i2cStruct*, unsigned char, unsigned long, unsigned char&)>
    14f0:	2800      	cmp	r0, #0
    14f2:	f000 80a7 	beq.w	1644 <i2c_t3::sendTransmission_(i2cStruct*, unsigned char, i2c_stop, unsigned long)+0x188>

    //
    // Immediate mode - blocking
    //
    if(i2c->opMode == I2C_OP_MODE_IMM || forceImm)
    14f6:	f894 3248 	ldrb.w	r3, [r4, #584]	; 0x248
    14fa:	b11b      	cbz	r3, 1504 <i2c_t3::sendTransmission_(i2cStruct*, unsigned char, i2c_stop, unsigned long)+0x48>
    14fc:	f89d 2007 	ldrb.w	r2, [sp, #7]
    1500:	2a00      	cmp	r2, #0
    1502:	d053      	beq.n	15ac <i2c_t3::sendTransmission_(i2cStruct*, unsigned char, i2c_stop, unsigned long)+0xf0>
class elapsedMicros
{
private:
	unsigned long us;
public:
	elapsedMicros(void) { us = micros(); }
    1504:	f001 f848 	bl	2598 <micros>
    1508:	4681      	mov	r9, r0
    {
        elapsedMicros deltaT;
        i2c->currentStatus = I2C_SENDING;
    150a:	2301      	movs	r3, #1
    150c:	f884 3251 	strb.w	r3, [r4, #593]	; 0x251
        i2c->currentStop = sendStop;
    1510:	f884 5250 	strb.w	r5, [r4, #592]	; 0x250
    1514:	f204 173b 	addw	r7, r4, #315	; 0x13b

        for(idx=0; idx < i2c->txBufferLength && (timeout == 0 || deltaT < timeout); idx++)
    1518:	2500      	movs	r5, #0
    inline void send(char* s)               { write(s); }
    inline uint8_t receive(void)            { int c = read(); return (c<0) ? 0 : c; }

    // ------------------------------------------------------------------------------------------------------
    // Immediate operation
    static void i2c_wait_(struct i2cStruct* i2c) { while(!(*(i2c->S) & I2C_S_IICIF)){} *(i2c->S) = I2C_S_IICIF; }
    151a:	f04f 0802 	mov.w	r8, #2
    151e:	f8d4 3244 	ldr.w	r3, [r4, #580]	; 0x244
    1522:	429d      	cmp	r5, r3
    1524:	d231      	bcs.n	158a <i2c_t3::sendTransmission_(i2cStruct*, unsigned char, i2c_stop, unsigned long)+0xce>
    1526:	b12e      	cbz	r6, 1534 <i2c_t3::sendTransmission_(i2cStruct*, unsigned char, i2c_stop, unsigned long)+0x78>
	elapsedMicros(unsigned long val) { us = micros() - val; }
	elapsedMicros(const elapsedMicros &orig) { us = orig.us; }
	operator unsigned long () const { return micros() - us; }
    1528:	f001 f836 	bl	2598 <micros>
    152c:	ebc9 0000 	rsb	r0, r9, r0
    1530:	4286      	cmp	r6, r0
    1532:	d92a      	bls.n	158a <i2c_t3::sendTransmission_(i2cStruct*, unsigned char, i2c_stop, unsigned long)+0xce>
        {
            // send data, wait for done
            *(i2c->D) = i2c->txBuffer[idx];
    1534:	6923      	ldr	r3, [r4, #16]
    1536:	f817 2f01 	ldrb.w	r2, [r7, #1]!
    153a:	701a      	strb	r2, [r3, #0]
    153c:	68e2      	ldr	r2, [r4, #12]
    153e:	7813      	ldrb	r3, [r2, #0]
    1540:	f013 0f02 	tst.w	r3, #2
    1544:	d0fb      	beq.n	153e <i2c_t3::sendTransmission_(i2cStruct*, unsigned char, i2c_stop, unsigned long)+0x82>
    1546:	f882 8000 	strb.w	r8, [r2]
            i2c_wait_(i2c);
            status = *(i2c->S);
    154a:	68e2      	ldr	r2, [r4, #12]
    154c:	7813      	ldrb	r3, [r2, #0]
    154e:	b2db      	uxtb	r3, r3

            // check arbitration
            if(status & I2C_S_ARBL)
    1550:	f013 0f10 	tst.w	r3, #16
    1554:	d008      	beq.n	1568 <i2c_t3::sendTransmission_(i2cStruct*, unsigned char, i2c_stop, unsigned long)+0xac>
            {
                i2c->currentStatus = I2C_ARB_LOST;
    1556:	2307      	movs	r3, #7
    1558:	f884 3251 	strb.w	r3, [r4, #593]	; 0x251
                *(i2c->S) = I2C_S_ARBL; // clear arbl flag
    155c:	2310      	movs	r3, #16
    155e:	7013      	strb	r3, [r2, #0]
                // TODO: this is clearly not right, after ARBL it should drop into IMM slave mode if IAAS=1
                //       Right now Rx message would be ignored regardless of IAAS
                *(i2c->C1) = I2C_C1_IICEN; // change to Rx mode, intr disabled (does this send STOP if ARBL flagged?)
    1560:	68a3      	ldr	r3, [r4, #8]
    1562:	2280      	movs	r2, #128	; 0x80
    1564:	701a      	strb	r2, [r3, #0]
                return;
    1566:	e06d      	b.n	1644 <i2c_t3::sendTransmission_(i2cStruct*, unsigned char, i2c_stop, unsigned long)+0x188>
            }
            // check if slave ACK'd
            else if(status & I2C_S_RXAK)
    1568:	f013 0f01 	tst.w	r3, #1
    156c:	d00b      	beq.n	1586 <i2c_t3::sendTransmission_(i2cStruct*, unsigned char, i2c_stop, unsigned long)+0xca>
            {
                if(idx == 0)
    156e:	b91d      	cbnz	r5, 1578 <i2c_t3::sendTransmission_(i2cStruct*, unsigned char, i2c_stop, unsigned long)+0xbc>
                    i2c->currentStatus = I2C_ADDR_NAK; // NAK on Addr
    1570:	2305      	movs	r3, #5
    1572:	f884 3251 	strb.w	r3, [r4, #593]	; 0x251
    1576:	e002      	b.n	157e <i2c_t3::sendTransmission_(i2cStruct*, unsigned char, i2c_stop, unsigned long)+0xc2>
                else
                    i2c->currentStatus = I2C_DATA_NAK; // NAK on Data
    1578:	2306      	movs	r3, #6
    157a:	f884 3251 	strb.w	r3, [r4, #593]	; 0x251
                *(i2c->C1) = I2C_C1_IICEN; // send STOP, change to Rx mode, intr disabled
    157e:	68a3      	ldr	r3, [r4, #8]
    1580:	2280      	movs	r2, #128	; 0x80
    1582:	701a      	strb	r2, [r3, #0]
                return;
    1584:	e05e      	b.n	1644 <i2c_t3::sendTransmission_(i2cStruct*, unsigned char, i2c_stop, unsigned long)+0x188>
    {
        elapsedMicros deltaT;
        i2c->currentStatus = I2C_SENDING;
        i2c->currentStop = sendStop;

        for(idx=0; idx < i2c->txBufferLength && (timeout == 0 || deltaT < timeout); idx++)
    1586:	3501      	adds	r5, #1
    1588:	e7c9      	b.n	151e <i2c_t3::sendTransmission_(i2cStruct*, unsigned char, i2c_stop, unsigned long)+0x62>
                return;
            }
        }

        // Set final status
        if(idx < i2c->txBufferLength)
    158a:	f8d4 3244 	ldr.w	r3, [r4, #580]	; 0x244
    158e:	429d      	cmp	r5, r3
            i2c->currentStatus = I2C_TIMEOUT; // Tx incomplete, mark as timeout
    1590:	bf34      	ite	cc
    1592:	2304      	movcc	r3, #4
        else
            i2c->currentStatus = I2C_WAITING; // Tx complete, change to waiting state
    1594:	2300      	movcs	r3, #0
    1596:	f884 3251 	strb.w	r3, [r4, #593]	; 0x251

        // send STOP if configured
        if(i2c->currentStop == I2C_STOP)
    159a:	f894 3250 	ldrb.w	r3, [r4, #592]	; 0x250
    159e:	2b01      	cmp	r3, #1
            *(i2c->C1) = I2C_C1_IICEN; // send STOP, change to Rx mode, intr disabled
    15a0:	68a3      	ldr	r3, [r4, #8]
    15a2:	bf0c      	ite	eq
    15a4:	2280      	moveq	r2, #128	; 0x80
        else
            *(i2c->C1) = I2C_C1_IICEN | I2C_C1_MST | I2C_C1_TX; // no STOP, stay in Tx mode, intr disabled
    15a6:	22b0      	movne	r2, #176	; 0xb0
    15a8:	701a      	strb	r2, [r3, #0]
    15aa:	e04b      	b.n	1644 <i2c_t3::sendTransmission_(i2cStruct*, unsigned char, i2c_stop, unsigned long)+0x188>
    }
    //
    // ISR/DMA mode - non-blocking
    //
    else if(i2c->opMode == I2C_OP_MODE_ISR || i2c->opMode == I2C_OP_MODE_DMA)
    15ac:	1e5a      	subs	r2, r3, #1
    15ae:	b2d2      	uxtb	r2, r2
    15b0:	2a01      	cmp	r2, #1
    15b2:	d847      	bhi.n	1644 <i2c_t3::sendTransmission_(i2cStruct*, unsigned char, i2c_stop, unsigned long)+0x188>
    {
        // send target addr and enable interrupts
        i2c->currentStatus = I2C_SENDING;
    15b4:	2201      	movs	r2, #1
    15b6:	f884 2251 	strb.w	r2, [r4, #593]	; 0x251
        i2c->currentStop = sendStop;
    15ba:	f884 5250 	strb.w	r5, [r4, #592]	; 0x250
        i2c->txBufferIndex = 0;
    15be:	2200      	movs	r2, #0
    15c0:	f8c4 2240 	str.w	r2, [r4, #576]	; 0x240
        if(i2c->opMode == I2C_OP_MODE_DMA && i2c->txBufferLength >= 5) // limit transfers less than 5 bytes to ISR method
    15c4:	2b02      	cmp	r3, #2
    15c6:	d10d      	bne.n	15e4 <i2c_t3::sendTransmission_(i2cStruct*, unsigned char, i2c_stop, unsigned long)+0x128>
    15c8:	f8d4 3244 	ldr.w	r3, [r4, #580]	; 0x244
    15cc:	2b04      	cmp	r3, #4
    15ce:	d811      	bhi.n	15f4 <i2c_t3::sendTransmission_(i2cStruct*, unsigned char, i2c_stop, unsigned long)+0x138>
    15d0:	e008      	b.n	15e4 <i2c_t3::sendTransmission_(i2cStruct*, unsigned char, i2c_stop, unsigned long)+0x128>
	void destination(volatile signed char &p) { destination(*(volatile uint8_t *)&p); }
	void destination(volatile unsigned char &p) {
		TCD->DADDR = &p;
		TCD->DOFF = 0;
		TCD->ATTR_DST = 0;
		if ((uint32_t)&p < 0x40000000 || TCD->NBYTES == 0) TCD->NBYTES = 1;
    15d2:	681a      	ldr	r2, [r3, #0]
    15d4:	6892      	ldr	r2, [r2, #8]
    15d6:	b912      	cbnz	r2, 15de <i2c_t3::sendTransmission_(i2cStruct*, unsigned char, i2c_stop, unsigned long)+0x122>
    15d8:	681a      	ldr	r2, [r3, #0]
    15da:	2101      	movs	r1, #1
    15dc:	6091      	str	r1, [r2, #8]
		TCD->DLASTSGA = 0;
    15de:	681b      	ldr	r3, [r3, #0]
    15e0:	2200      	movs	r2, #0
    15e2:	619a      	str	r2, [r3, #24]
            i2c->activeDMA = I2C_DMA_ADDR;
            i2c->DMA->sourceBuffer(&i2c->txBuffer[2],i2c->txBufferLength-3); // DMA sends all except first/second/last bytes
            i2c->DMA->destination(*(i2c->D));
        }
        // start ISR
        *(i2c->C1) = I2C_C1_IICEN | I2C_C1_IICIE | I2C_C1_MST | I2C_C1_TX; // enable intr
    15e4:	68a3      	ldr	r3, [r4, #8]
    15e6:	22f0      	movs	r2, #240	; 0xf0
    15e8:	701a      	strb	r2, [r3, #0]
        *(i2c->D) = i2c->txBuffer[0]; // writing first data byte will start ISR
    15ea:	6923      	ldr	r3, [r4, #16]
    15ec:	f894 213c 	ldrb.w	r2, [r4, #316]	; 0x13c
    15f0:	701a      	strb	r2, [r3, #0]
    15f2:	e027      	b.n	1644 <i2c_t3::sendTransmission_(i2cStruct*, unsigned char, i2c_stop, unsigned long)+0x188>
        i2c->currentStop = sendStop;
        i2c->txBufferIndex = 0;
        if(i2c->opMode == I2C_OP_MODE_DMA && i2c->txBufferLength >= 5) // limit transfers less than 5 bytes to ISR method
        {
            // init DMA, let the hack begin
            i2c->activeDMA = I2C_DMA_ADDR;
    15f4:	2001      	movs	r0, #1
    15f6:	f884 025a 	strb.w	r0, [r4, #602]	; 0x25a
            i2c->DMA->sourceBuffer(&i2c->txBuffer[2],i2c->txBufferLength-3); // DMA sends all except first/second/last bytes
    15fa:	f8d4 2264 	ldr.w	r2, [r4, #612]	; 0x264
    15fe:	f504 719f 	add.w	r1, r4, #318	; 0x13e
    1602:	f8d4 3244 	ldr.w	r3, [r4, #580]	; 0x244
    1606:	3b03      	subs	r3, #3
	// Use a buffer (array of data) as the data source.  Typically a
	// buffer for transmitting data is used.
	void sourceBuffer(volatile const signed char p[], unsigned int len) {
		sourceBuffer((volatile const uint8_t *)p, len); }
	void sourceBuffer(volatile const unsigned char p[], unsigned int len) {
		TCD->SADDR = p;
    1608:	6815      	ldr	r5, [r2, #0]
    160a:	6029      	str	r1, [r5, #0]
		TCD->SOFF = 1;
    160c:	6811      	ldr	r1, [r2, #0]
    160e:	8088      	strh	r0, [r1, #4]
		TCD->ATTR_SRC = 0;
    1610:	6815      	ldr	r5, [r2, #0]
    1612:	2100      	movs	r1, #0
    1614:	71e9      	strb	r1, [r5, #7]
		TCD->NBYTES = 1;
    1616:	6815      	ldr	r5, [r2, #0]
    1618:	60a8      	str	r0, [r5, #8]
		TCD->SLAST = -len;
    161a:	6810      	ldr	r0, [r2, #0]
    161c:	425d      	negs	r5, r3
    161e:	60c5      	str	r5, [r0, #12]
		TCD->BITER = len;
    1620:	6810      	ldr	r0, [r2, #0]
    1622:	b29b      	uxth	r3, r3
    1624:	83c3      	strh	r3, [r0, #30]
		TCD->CITER = len;
    1626:	6812      	ldr	r2, [r2, #0]
    1628:	82d3      	strh	r3, [r2, #22]
            i2c->DMA->destination(*(i2c->D));
    162a:	f8d4 3264 	ldr.w	r3, [r4, #612]	; 0x264
    162e:	6922      	ldr	r2, [r4, #16]

	// Use a single variable as the data destination.  Typically a register
	// for transmitting data to one of the hardware peripherals is used.
	void destination(volatile signed char &p) { destination(*(volatile uint8_t *)&p); }
	void destination(volatile unsigned char &p) {
		TCD->DADDR = &p;
    1630:	6818      	ldr	r0, [r3, #0]
    1632:	6102      	str	r2, [r0, #16]
		TCD->DOFF = 0;
    1634:	6818      	ldr	r0, [r3, #0]
    1636:	8281      	strh	r1, [r0, #20]
		TCD->ATTR_DST = 0;
    1638:	6818      	ldr	r0, [r3, #0]
    163a:	7181      	strb	r1, [r0, #6]
		if ((uint32_t)&p < 0x40000000 || TCD->NBYTES == 0) TCD->NBYTES = 1;
    163c:	f1b2 4f80 	cmp.w	r2, #1073741824	; 0x40000000
    1640:	d3ca      	bcc.n	15d8 <i2c_t3::sendTransmission_(i2cStruct*, unsigned char, i2c_stop, unsigned long)+0x11c>
    1642:	e7c6      	b.n	15d2 <i2c_t3::sendTransmission_(i2cStruct*, unsigned char, i2c_stop, unsigned long)+0x116>
        }
        // start ISR
        *(i2c->C1) = I2C_C1_IICEN | I2C_C1_IICIE | I2C_C1_MST | I2C_C1_TX; // enable intr
        *(i2c->D) = i2c->txBuffer[0]; // writing first data byte will start ISR
    }
}
    1644:	b003      	add	sp, #12
    1646:	e8bd 83f0 	ldmia.w	sp!, {r4, r5, r6, r7, r8, r9, pc}
    164a:	bf00      	nop

0000164c <i2c_t3::sendRequest_(i2cStruct*, unsigned char, unsigned char, unsigned int, i2c_stop, unsigned long)>:
//      length = number of bytes requested
//      i2c_stop = I2C_NOSTOP, I2C_STOP
//      timeout = timeout in microseconds (only used for Immediate operation)
//
void i2c_t3::sendRequest_(struct i2cStruct* i2c, uint8_t bus, uint8_t addr, size_t len, i2c_stop sendStop, uint32_t timeout)
{
    164c:	e92d 41f0 	stmdb	sp!, {r4, r5, r6, r7, r8, lr}
    1650:	b082      	sub	sp, #8
    1652:	f89d 5020 	ldrb.w	r5, [sp, #32]
    uint8_t status, data, chkTimeout=0, forceImm=0;
    1656:	2400      	movs	r4, #0
    1658:	f88d 4007 	strb.w	r4, [sp, #7]

    // exit immediately if request for 0 bytes or request too large
    if(len == 0) return;
    165c:	2b00      	cmp	r3, #0
    165e:	f000 816b 	beq.w	1938 <L_2565_delayMicroseconds+0x17e>
    if(len > I2C_RX_BUFFER_LENGTH) { i2c->currentStatus=I2C_BUF_OVF; return; }
    1662:	f5b3 7f82 	cmp.w	r3, #260	; 0x104
    1666:	d303      	bcc.n	1670 <i2c_t3::sendRequest_(i2cStruct*, unsigned char, unsigned char, unsigned int, i2c_stop, unsigned long)+0x24>
    1668:	2308      	movs	r3, #8
    166a:	f880 3251 	strb.w	r3, [r0, #593]	; 0x251
    166e:	e163      	b.n	1938 <L_2565_delayMicroseconds+0x17e>

    i2c->reqCount = len; // store request length
    1670:	f8c0 3254 	str.w	r3, [r0, #596]	; 0x254
    i2c->rxBufferIndex = 0; // reset buffer
    1674:	2300      	movs	r3, #0
    1676:	f8c0 3134 	str.w	r3, [r0, #308]	; 0x134
    i2c->rxBufferLength = 0;
    167a:	f8c0 3138 	str.w	r3, [r0, #312]	; 0x138
    timeout = (timeout == 0) ? i2c->defTimeout : timeout;
    167e:	9b09      	ldr	r3, [sp, #36]	; 0x24
    1680:	b913      	cbnz	r3, 1688 <i2c_t3::sendRequest_(i2cStruct*, unsigned char, unsigned char, unsigned int, i2c_stop, unsigned long)+0x3c>
    1682:	f8d0 3268 	ldr.w	r3, [r0, #616]	; 0x268
    1686:	9309      	str	r3, [sp, #36]	; 0x24
    1688:	4616      	mov	r6, r2
    168a:	4604      	mov	r4, r0
    // clear the status flags
    #if defined(__MKL26Z64__) || defined(__MK64FX512__) || defined(__MK66FX1M0__) // LC/3.5/3.6
        *(i2c->FLT) |= I2C_FLT_STOPF | I2C_FLT_STARTF;  // clear STOP/START intr
        *(i2c->FLT) &= ~I2C_FLT_SSIE;                   // disable STOP/START intr (not used in Master mode)
    #endif
    *(i2c->S) = I2C_S_IICIF | I2C_S_ARBL; // clear intr, arbl
    168c:	68c3      	ldr	r3, [r0, #12]
    168e:	2212      	movs	r2, #18
    1690:	701a      	strb	r2, [r3, #0]

    // try to take control of the bus
    if(!acquireBus_(i2c, bus, timeout, forceImm)) return;
    1692:	f10d 0307 	add.w	r3, sp, #7
    1696:	9a09      	ldr	r2, [sp, #36]	; 0x24
    1698:	f7ff fe70 	bl	137c <i2c_t3::acquireBus_(i2cStruct*, unsigned char, unsigned long, unsigned char&)>
    169c:	2800      	cmp	r0, #0
    169e:	f000 814b 	beq.w	1938 <L_2565_delayMicroseconds+0x17e>

    //
    // Immediate mode - blocking
    //
    if(i2c->opMode == I2C_OP_MODE_IMM || forceImm)
    16a2:	f894 3248 	ldrb.w	r3, [r4, #584]	; 0x248
    16a6:	b123      	cbz	r3, 16b2 <i2c_t3::sendRequest_(i2cStruct*, unsigned char, unsigned char, unsigned int, i2c_stop, unsigned long)+0x66>
    16a8:	f89d 2007 	ldrb.w	r2, [sp, #7]
    16ac:	2a00      	cmp	r2, #0
    16ae:	f000 808f 	beq.w	17d0 <L_2565_delayMicroseconds+0x16>
class elapsedMicros
{
private:
	unsigned long us;
public:
	elapsedMicros(void) { us = micros(); }
    16b2:	f000 ff71 	bl	2598 <micros>
    16b6:	4607      	mov	r7, r0
    {
        elapsedMicros deltaT;
        i2c->currentStatus = I2C_SEND_ADDR;
    16b8:	2302      	movs	r3, #2
    16ba:	f884 3251 	strb.w	r3, [r4, #593]	; 0x251
        i2c->currentStop = sendStop;
    16be:	f884 5250 	strb.w	r5, [r4, #592]	; 0x250

        // Send target address
        *(i2c->D) = (addr << 1) | 1; // address + READ
    16c2:	6922      	ldr	r2, [r4, #16]
    16c4:	0073      	lsls	r3, r6, #1
    16c6:	f043 0301 	orr.w	r3, r3, #1
    16ca:	b2db      	uxtb	r3, r3
    16cc:	7013      	strb	r3, [r2, #0]
    16ce:	68e2      	ldr	r2, [r4, #12]
    16d0:	7813      	ldrb	r3, [r2, #0]
    16d2:	f013 0f02 	tst.w	r3, #2
    16d6:	d0fb      	beq.n	16d0 <i2c_t3::sendRequest_(i2cStruct*, unsigned char, unsigned char, unsigned int, i2c_stop, unsigned long)+0x84>
    16d8:	2302      	movs	r3, #2
    16da:	7013      	strb	r3, [r2, #0]
        i2c_wait_(i2c);
        status = *(i2c->S);
    16dc:	68e2      	ldr	r2, [r4, #12]
    16de:	7813      	ldrb	r3, [r2, #0]
    16e0:	b2db      	uxtb	r3, r3

        // check arbitration
        if(status & I2C_S_ARBL)
    16e2:	f013 0f10 	tst.w	r3, #16
    16e6:	d008      	beq.n	16fa <i2c_t3::sendRequest_(i2cStruct*, unsigned char, unsigned char, unsigned int, i2c_stop, unsigned long)+0xae>
        {
            i2c->currentStatus = I2C_ARB_LOST;
    16e8:	2307      	movs	r3, #7
    16ea:	f884 3251 	strb.w	r3, [r4, #593]	; 0x251
            *(i2c->S) = I2C_S_ARBL; // clear arbl flag
    16ee:	2310      	movs	r3, #16
    16f0:	7013      	strb	r3, [r2, #0]
            // TODO: this is clearly not right, after ARBL it should drop into IMM slave mode if IAAS=1
            //       Right now Rx message would be ignored regardless of IAAS
            *(i2c->C1) = I2C_C1_IICEN; // change to Rx mode, intr disabled (does this send STOP if ARBL flagged?)
    16f2:	68a3      	ldr	r3, [r4, #8]
    16f4:	2280      	movs	r2, #128	; 0x80
    16f6:	701a      	strb	r2, [r3, #0]
            return;
    16f8:	e11e      	b.n	1938 <L_2565_delayMicroseconds+0x17e>
        }
        // check if slave ACK'd
        else if(status & I2C_S_RXAK)
    16fa:	f013 0f01 	tst.w	r3, #1
    16fe:	d006      	beq.n	170e <i2c_t3::sendRequest_(i2cStruct*, unsigned char, unsigned char, unsigned int, i2c_stop, unsigned long)+0xc2>
        {
            i2c->currentStatus = I2C_ADDR_NAK; // NAK on Addr
    1700:	2305      	movs	r3, #5
    1702:	f884 3251 	strb.w	r3, [r4, #593]	; 0x251
            *(i2c->C1) = I2C_C1_IICEN; // send STOP, change to Rx mode, intr disabled
    1706:	68a3      	ldr	r3, [r4, #8]
    1708:	2280      	movs	r2, #128	; 0x80
    170a:	701a      	strb	r2, [r3, #0]
            return;
    170c:	e114      	b.n	1938 <L_2565_delayMicroseconds+0x17e>
        }
        else
        {
            // Slave addr ACK, change to Rx mode
            i2c->currentStatus = I2C_RECEIVING;
    170e:	2303      	movs	r3, #3
    1710:	f884 3251 	strb.w	r3, [r4, #593]	; 0x251
            if(i2c->reqCount == 1)
    1714:	f8d4 3254 	ldr.w	r3, [r4, #596]	; 0x254
    1718:	2b01      	cmp	r3, #1
                *(i2c->C1) = I2C_C1_IICEN | I2C_C1_MST | I2C_C1_TXAK; // no STOP, Rx, NAK on recv
    171a:	68a3      	ldr	r3, [r4, #8]
    171c:	bf0c      	ite	eq
    171e:	22a8      	moveq	r2, #168	; 0xa8
            else
                *(i2c->C1) = I2C_C1_IICEN | I2C_C1_MST; // no STOP, change to Rx
    1720:	22a0      	movne	r2, #160	; 0xa0
    1722:	701a      	strb	r2, [r3, #0]
            data = *(i2c->D); // dummy read
    1724:	6923      	ldr	r3, [r4, #16]
    1726:	781b      	ldrb	r3, [r3, #0]
    1728:	2602      	movs	r6, #2

            // Master receive loop
            while(i2c->rxBufferLength < i2c->reqCount && i2c->currentStatus == I2C_RECEIVING)
            {
                i2c_wait_(i2c);
                chkTimeout = (timeout != 0 && deltaT >= timeout);
    172a:	2500      	movs	r5, #0
                // check if 2nd to last byte or timeout
                if((i2c->rxBufferLength+2) == i2c->reqCount || (chkTimeout && !i2c->timeoutRxNAK))
                {
                    *(i2c->C1) = I2C_C1_IICEN | I2C_C1_MST | I2C_C1_TXAK; // no STOP, Rx, NAK on recv
    172c:	f04f 08a8 	mov.w	r8, #168	; 0xa8
            else
                *(i2c->C1) = I2C_C1_IICEN | I2C_C1_MST; // no STOP, change to Rx
            data = *(i2c->D); // dummy read

            // Master receive loop
            while(i2c->rxBufferLength < i2c->reqCount && i2c->currentStatus == I2C_RECEIVING)
    1730:	f8d4 2138 	ldr.w	r2, [r4, #312]	; 0x138
    1734:	f8d4 3254 	ldr.w	r3, [r4, #596]	; 0x254
    1738:	429a      	cmp	r2, r3
    173a:	f080 80fd 	bcs.w	1938 <L_2565_delayMicroseconds+0x17e>
    173e:	f894 3251 	ldrb.w	r3, [r4, #593]	; 0x251
    1742:	b2db      	uxtb	r3, r3
    1744:	2b03      	cmp	r3, #3
    1746:	f040 80f7 	bne.w	1938 <L_2565_delayMicroseconds+0x17e>
    174a:	68e2      	ldr	r2, [r4, #12]
    174c:	7813      	ldrb	r3, [r2, #0]
    174e:	f013 0f02 	tst.w	r3, #2
    1752:	d0fb      	beq.n	174c <i2c_t3::sendRequest_(i2cStruct*, unsigned char, unsigned char, unsigned int, i2c_stop, unsigned long)+0x100>
    1754:	7016      	strb	r6, [r2, #0]
            {
                i2c_wait_(i2c);
                chkTimeout = (timeout != 0 && deltaT >= timeout);
    1756:	9b09      	ldr	r3, [sp, #36]	; 0x24
    1758:	b143      	cbz	r3, 176c <i2c_t3::sendRequest_(i2cStruct*, unsigned char, unsigned char, unsigned int, i2c_stop, unsigned long)+0x120>
	elapsedMicros(unsigned long val) { us = micros() - val; }
	elapsedMicros(const elapsedMicros &orig) { us = orig.us; }
	operator unsigned long () const { return micros() - us; }
    175a:	f000 ff1d 	bl	2598 <micros>
    175e:	1bc0      	subs	r0, r0, r7
    1760:	9b09      	ldr	r3, [sp, #36]	; 0x24
    1762:	4283      	cmp	r3, r0
    1764:	bf8c      	ite	hi
    1766:	2000      	movhi	r0, #0
    1768:	2001      	movls	r0, #1
    176a:	e000      	b.n	176e <i2c_t3::sendRequest_(i2cStruct*, unsigned char, unsigned char, unsigned int, i2c_stop, unsigned long)+0x122>
    176c:	4628      	mov	r0, r5
                // check if 2nd to last byte or timeout
                if((i2c->rxBufferLength+2) == i2c->reqCount || (chkTimeout && !i2c->timeoutRxNAK))
    176e:	f8d4 3138 	ldr.w	r3, [r4, #312]	; 0x138
    1772:	3302      	adds	r3, #2
    1774:	f8d4 2254 	ldr.w	r2, [r4, #596]	; 0x254
    1778:	4293      	cmp	r3, r2
    177a:	d074      	beq.n	1866 <L_2565_delayMicroseconds+0xac>
    177c:	2800      	cmp	r0, #0
    177e:	f000 80c3 	beq.w	1908 <L_2565_delayMicroseconds+0x14e>
    1782:	f894 3259 	ldrb.w	r3, [r4, #601]	; 0x259
    1786:	2b00      	cmp	r3, #0
    1788:	d06d      	beq.n	1866 <L_2565_delayMicroseconds+0xac>
    178a:	e0a5      	b.n	18d8 <L_2565_delayMicroseconds+0x11e>
                {
                    *(i2c->C1) = I2C_C1_IICEN | I2C_C1_MST | I2C_C1_TXAK; // no STOP, Rx, NAK on recv
                }
                // if last byte or timeout send STOP
                if((i2c->rxBufferLength+1) >= i2c->reqCount || (chkTimeout && i2c->timeoutRxNAK))
    178c:	2800      	cmp	r0, #0
    178e:	d075      	beq.n	187c <L_2565_delayMicroseconds+0xc2>
    1790:	f894 3259 	ldrb.w	r3, [r4, #601]	; 0x259
    1794:	2b00      	cmp	r3, #0
    1796:	f040 80bf 	bne.w	1918 <L_2565_delayMicroseconds+0x15e>
    179a:	e06f      	b.n	187c <L_2565_delayMicroseconds+0xc2>
                    *(i2c->C1) = I2C_C1_IICEN | I2C_C1_MST | I2C_C1_TX;
                    // grab last data
                    data = *(i2c->D);
                    i2c->rxBuffer[i2c->rxBufferLength++] = data;
                    if(chkTimeout)
                        i2c->currentStatus = I2C_TIMEOUT; // Rx incomplete, mark as timeout
    179c:	2304      	movs	r3, #4
    179e:	f884 3251 	strb.w	r3, [r4, #593]	; 0x251
                    else
                        i2c->currentStatus = I2C_WAITING; // Rx complete, change to waiting state
                    if(i2c->currentStop == I2C_STOP) // NAK then STOP
    17a2:	f894 3250 	ldrb.w	r3, [r4, #592]	; 0x250
    17a6:	2b01      	cmp	r3, #1
    17a8:	d006      	beq.n	17b8 <i2c_t3::sendRequest_(i2cStruct*, unsigned char, unsigned char, unsigned int, i2c_stop, unsigned long)+0x16c>
    17aa:	e00d      	b.n	17c8 <L_2565_delayMicroseconds+0xe>
                    data = *(i2c->D);
                    i2c->rxBuffer[i2c->rxBufferLength++] = data;
                    if(chkTimeout)
                        i2c->currentStatus = I2C_TIMEOUT; // Rx incomplete, mark as timeout
                    else
                        i2c->currentStatus = I2C_WAITING; // Rx complete, change to waiting state
    17ac:	f884 5251 	strb.w	r5, [r4, #593]	; 0x251
                    if(i2c->currentStop == I2C_STOP) // NAK then STOP
    17b0:	f894 3250 	ldrb.w	r3, [r4, #592]	; 0x250
    17b4:	2b01      	cmp	r3, #1
    17b6:	d1bb      	bne.n	1730 <i2c_t3::sendRequest_(i2cStruct*, unsigned char, unsigned char, unsigned int, i2c_stop, unsigned long)+0xe4>
    17b8:	2310      	movs	r3, #16

000017ba <L_2565_delayMicroseconds>:
    17ba:	3b01      	subs	r3, #1
    17bc:	d1fd      	bne.n	17ba <L_2565_delayMicroseconds>
                    {
                        delayMicroseconds(1); // empirical patch, lets things settle before issuing STOP
                        *(i2c->C1) = I2C_C1_IICEN; // send STOP, change to Rx mode, intr disabled
    17be:	68a3      	ldr	r3, [r4, #8]
    17c0:	2280      	movs	r2, #128	; 0x80
    17c2:	701a      	strb	r2, [r3, #0]
                {
                    // grab next data, not last byte, will ACK
                    data = *(i2c->D);
                    i2c->rxBuffer[i2c->rxBufferLength++] = data;
                }
                if(chkTimeout) i2c->timeoutRxNAK = 1; // set flag to indicate NAK sent
    17c4:	2800      	cmp	r0, #0
    17c6:	d0b3      	beq.n	1730 <i2c_t3::sendRequest_(i2cStruct*, unsigned char, unsigned char, unsigned int, i2c_stop, unsigned long)+0xe4>
    17c8:	2301      	movs	r3, #1
    17ca:	f884 3259 	strb.w	r3, [r4, #601]	; 0x259
    17ce:	e7ad      	b.n	172c <i2c_t3::sendRequest_(i2cStruct*, unsigned char, unsigned char, unsigned int, i2c_stop, unsigned long)+0xe0>
        }
    }
    //
    // ISR/DMA mode - non-blocking
    //
    else if(i2c->opMode == I2C_OP_MODE_ISR || i2c->opMode == I2C_OP_MODE_DMA)
    17d0:	1e5a      	subs	r2, r3, #1
    17d2:	b2d2      	uxtb	r2, r2
    17d4:	2a01      	cmp	r2, #1
    17d6:	f200 80af 	bhi.w	1938 <L_2565_delayMicroseconds+0x17e>
    {
        // send 1st data and enable interrupts
        i2c->currentStatus = I2C_SEND_ADDR;
    17da:	2202      	movs	r2, #2
    17dc:	f884 2251 	strb.w	r2, [r4, #593]	; 0x251
        i2c->currentStop = sendStop;
    17e0:	f884 5250 	strb.w	r5, [r4, #592]	; 0x250
        if(i2c->opMode == I2C_OP_MODE_DMA && i2c->reqCount >= 5) // limit transfers less than 5 bytes to ISR method
    17e4:	4293      	cmp	r3, r2
    17e6:	d134      	bne.n	1852 <L_2565_delayMicroseconds+0x98>
    17e8:	f8d4 3254 	ldr.w	r3, [r4, #596]	; 0x254
    17ec:	2b04      	cmp	r3, #4
    17ee:	d930      	bls.n	1852 <L_2565_delayMicroseconds+0x98>
        {
            // init DMA, let the hack begin
            i2c->activeDMA = I2C_DMA_ADDR;
    17f0:	2301      	movs	r3, #1
    17f2:	f884 325a 	strb.w	r3, [r4, #602]	; 0x25a
            i2c->DMA->source(*(i2c->D));
    17f6:	f8d4 3264 	ldr.w	r3, [r4, #612]	; 0x264
    17fa:	6922      	ldr	r2, [r4, #16]

	// Use a single variable as the data source.  Typically a register
	// for receiving data from one of the hardware peripherals is used.
	void source(volatile const signed char &p) { source(*(volatile const uint8_t *)&p); }
	void source(volatile const unsigned char &p) {
		TCD->SADDR = &p;
    17fc:	6819      	ldr	r1, [r3, #0]
    17fe:	600a      	str	r2, [r1, #0]
		TCD->SOFF = 0;
    1800:	6818      	ldr	r0, [r3, #0]
    1802:	2100      	movs	r1, #0
    1804:	8081      	strh	r1, [r0, #4]
		TCD->ATTR_SRC = 0;
    1806:	6818      	ldr	r0, [r3, #0]
    1808:	71c1      	strb	r1, [r0, #7]
		if ((uint32_t)&p < 0x40000000 || TCD->NBYTES == 0) TCD->NBYTES = 1;
    180a:	f1b2 4f80 	cmp.w	r2, #1073741824	; 0x40000000
    180e:	d302      	bcc.n	1816 <L_2565_delayMicroseconds+0x5c>
    1810:	681a      	ldr	r2, [r3, #0]
    1812:	6892      	ldr	r2, [r2, #8]
    1814:	b912      	cbnz	r2, 181c <L_2565_delayMicroseconds+0x62>
    1816:	681a      	ldr	r2, [r3, #0]
    1818:	2101      	movs	r1, #1
    181a:	6091      	str	r1, [r2, #8]
		TCD->SLAST = 0;
    181c:	681b      	ldr	r3, [r3, #0]
    181e:	2000      	movs	r0, #0
    1820:	60d8      	str	r0, [r3, #12]
            i2c->DMA->destinationBuffer(&i2c->rxBuffer[0],i2c->reqCount-1); // DMA gets all except last byte
    1822:	f8d4 2264 	ldr.w	r2, [r4, #612]	; 0x264
    1826:	f104 0130 	add.w	r1, r4, #48	; 0x30
    182a:	f8d4 3254 	ldr.w	r3, [r4, #596]	; 0x254
    182e:	3b01      	subs	r3, #1
	// Use a buffer (array of data) as the data destination.  Typically a
	// buffer for receiving data is used.
	void destinationBuffer(volatile signed char p[], unsigned int len) {
		destinationBuffer((volatile uint8_t *)p, len); }
	void destinationBuffer(volatile unsigned char p[], unsigned int len) {
		TCD->DADDR = p;
    1830:	6815      	ldr	r5, [r2, #0]
    1832:	6129      	str	r1, [r5, #16]
		TCD->DOFF = 1;
    1834:	6815      	ldr	r5, [r2, #0]
    1836:	2101      	movs	r1, #1
    1838:	82a9      	strh	r1, [r5, #20]
		TCD->ATTR_DST = 0;
    183a:	6815      	ldr	r5, [r2, #0]
    183c:	71a8      	strb	r0, [r5, #6]
		TCD->NBYTES = 1;
    183e:	6810      	ldr	r0, [r2, #0]
    1840:	6081      	str	r1, [r0, #8]
		TCD->DLASTSGA = -len;
    1842:	6811      	ldr	r1, [r2, #0]
    1844:	4258      	negs	r0, r3
    1846:	6188      	str	r0, [r1, #24]
		TCD->BITER = len;
    1848:	6811      	ldr	r1, [r2, #0]
    184a:	b29b      	uxth	r3, r3
    184c:	83cb      	strh	r3, [r1, #30]
		TCD->CITER = len;
    184e:	6812      	ldr	r2, [r2, #0]
    1850:	82d3      	strh	r3, [r2, #22]
        }
        // start ISR
        *(i2c->C1) = I2C_C1_IICEN | I2C_C1_IICIE | I2C_C1_MST | I2C_C1_TX; // enable intr
    1852:	68a3      	ldr	r3, [r4, #8]
    1854:	22f0      	movs	r2, #240	; 0xf0
    1856:	701a      	strb	r2, [r3, #0]
        *(i2c->D) = (addr << 1) | 1; // address + READ
    1858:	6922      	ldr	r2, [r4, #16]
    185a:	0073      	lsls	r3, r6, #1
    185c:	f043 0301 	orr.w	r3, r3, #1
    1860:	b2db      	uxtb	r3, r3
    1862:	7013      	strb	r3, [r2, #0]
    1864:	e068      	b.n	1938 <L_2565_delayMicroseconds+0x17e>
                i2c_wait_(i2c);
                chkTimeout = (timeout != 0 && deltaT >= timeout);
                // check if 2nd to last byte or timeout
                if((i2c->rxBufferLength+2) == i2c->reqCount || (chkTimeout && !i2c->timeoutRxNAK))
                {
                    *(i2c->C1) = I2C_C1_IICEN | I2C_C1_MST | I2C_C1_TXAK; // no STOP, Rx, NAK on recv
    1866:	68a3      	ldr	r3, [r4, #8]
    1868:	f883 8000 	strb.w	r8, [r3]
                }
                // if last byte or timeout send STOP
                if((i2c->rxBufferLength+1) >= i2c->reqCount || (chkTimeout && i2c->timeoutRxNAK))
    186c:	f8d4 3138 	ldr.w	r3, [r4, #312]	; 0x138
    1870:	3301      	adds	r3, #1
    1872:	f8d4 2254 	ldr.w	r2, [r4, #596]	; 0x254
    1876:	4293      	cmp	r3, r2
    1878:	d20b      	bcs.n	1892 <L_2565_delayMicroseconds+0xd8>
    187a:	e787      	b.n	178c <i2c_t3::sendRequest_(i2cStruct*, unsigned char, unsigned char, unsigned int, i2c_stop, unsigned long)+0x140>
                    // else NAK no STOP
                }
                else
                {
                    // grab next data, not last byte, will ACK
                    data = *(i2c->D);
    187c:	6923      	ldr	r3, [r4, #16]
    187e:	781a      	ldrb	r2, [r3, #0]
                    i2c->rxBuffer[i2c->rxBufferLength++] = data;
    1880:	f8d4 3138 	ldr.w	r3, [r4, #312]	; 0x138
    1884:	1c59      	adds	r1, r3, #1
    1886:	f8c4 1138 	str.w	r1, [r4, #312]	; 0x138
    188a:	4423      	add	r3, r4
    188c:	f883 2030 	strb.w	r2, [r3, #48]	; 0x30
    1890:	e798      	b.n	17c4 <L_2565_delayMicroseconds+0xa>
                    *(i2c->C1) = I2C_C1_IICEN | I2C_C1_MST | I2C_C1_TXAK; // no STOP, Rx, NAK on recv
                }
                // if last byte or timeout send STOP
                if((i2c->rxBufferLength+1) >= i2c->reqCount || (chkTimeout && i2c->timeoutRxNAK))
                {
                    i2c->timeoutRxNAK = 0; // clear flag
    1892:	f884 5259 	strb.w	r5, [r4, #601]	; 0x259
                    // change to Tx mode
                    *(i2c->C1) = I2C_C1_IICEN | I2C_C1_MST | I2C_C1_TX;
    1896:	68a3      	ldr	r3, [r4, #8]
    1898:	22b0      	movs	r2, #176	; 0xb0
    189a:	701a      	strb	r2, [r3, #0]
                    // grab last data
                    data = *(i2c->D);
    189c:	6923      	ldr	r3, [r4, #16]
    189e:	781a      	ldrb	r2, [r3, #0]
                    i2c->rxBuffer[i2c->rxBufferLength++] = data;
    18a0:	f8d4 3138 	ldr.w	r3, [r4, #312]	; 0x138
    18a4:	1c59      	adds	r1, r3, #1
    18a6:	f8c4 1138 	str.w	r1, [r4, #312]	; 0x138
    18aa:	4423      	add	r3, r4
    18ac:	f883 2030 	strb.w	r2, [r3, #48]	; 0x30
                    if(chkTimeout)
    18b0:	2800      	cmp	r0, #0
    18b2:	f43f af7b 	beq.w	17ac <i2c_t3::sendRequest_(i2cStruct*, unsigned char, unsigned char, unsigned int, i2c_stop, unsigned long)+0x160>
    18b6:	e771      	b.n	179c <i2c_t3::sendRequest_(i2cStruct*, unsigned char, unsigned char, unsigned int, i2c_stop, unsigned long)+0x150>
                    *(i2c->C1) = I2C_C1_IICEN | I2C_C1_MST | I2C_C1_TXAK; // no STOP, Rx, NAK on recv
                }
                // if last byte or timeout send STOP
                if((i2c->rxBufferLength+1) >= i2c->reqCount || (chkTimeout && i2c->timeoutRxNAK))
                {
                    i2c->timeoutRxNAK = 0; // clear flag
    18b8:	f884 5259 	strb.w	r5, [r4, #601]	; 0x259
                    // change to Tx mode
                    *(i2c->C1) = I2C_C1_IICEN | I2C_C1_MST | I2C_C1_TX;
    18bc:	68a3      	ldr	r3, [r4, #8]
    18be:	22b0      	movs	r2, #176	; 0xb0
    18c0:	701a      	strb	r2, [r3, #0]
                    // grab last data
                    data = *(i2c->D);
    18c2:	6923      	ldr	r3, [r4, #16]
    18c4:	781a      	ldrb	r2, [r3, #0]
                    i2c->rxBuffer[i2c->rxBufferLength++] = data;
    18c6:	f8d4 3138 	ldr.w	r3, [r4, #312]	; 0x138
    18ca:	1c59      	adds	r1, r3, #1
    18cc:	f8c4 1138 	str.w	r1, [r4, #312]	; 0x138
    18d0:	4423      	add	r3, r4
    18d2:	f883 2030 	strb.w	r2, [r3, #48]	; 0x30
    18d6:	e761      	b.n	179c <i2c_t3::sendRequest_(i2cStruct*, unsigned char, unsigned char, unsigned int, i2c_stop, unsigned long)+0x150>
                if((i2c->rxBufferLength+2) == i2c->reqCount || (chkTimeout && !i2c->timeoutRxNAK))
                {
                    *(i2c->C1) = I2C_C1_IICEN | I2C_C1_MST | I2C_C1_TXAK; // no STOP, Rx, NAK on recv
                }
                // if last byte or timeout send STOP
                if((i2c->rxBufferLength+1) >= i2c->reqCount || (chkTimeout && i2c->timeoutRxNAK))
    18d8:	f8d4 3138 	ldr.w	r3, [r4, #312]	; 0x138
    18dc:	3301      	adds	r3, #1
    18de:	f8d4 2254 	ldr.w	r2, [r4, #596]	; 0x254
    18e2:	4293      	cmp	r3, r2
    18e4:	d2e8      	bcs.n	18b8 <L_2565_delayMicroseconds+0xfe>
    18e6:	e751      	b.n	178c <i2c_t3::sendRequest_(i2cStruct*, unsigned char, unsigned char, unsigned int, i2c_stop, unsigned long)+0x140>
                {
                    i2c->timeoutRxNAK = 0; // clear flag
    18e8:	f884 5259 	strb.w	r5, [r4, #601]	; 0x259
                    // change to Tx mode
                    *(i2c->C1) = I2C_C1_IICEN | I2C_C1_MST | I2C_C1_TX;
    18ec:	68a3      	ldr	r3, [r4, #8]
    18ee:	22b0      	movs	r2, #176	; 0xb0
    18f0:	701a      	strb	r2, [r3, #0]
                    // grab last data
                    data = *(i2c->D);
    18f2:	6923      	ldr	r3, [r4, #16]
    18f4:	781a      	ldrb	r2, [r3, #0]
                    i2c->rxBuffer[i2c->rxBufferLength++] = data;
    18f6:	f8d4 3138 	ldr.w	r3, [r4, #312]	; 0x138
    18fa:	1c59      	adds	r1, r3, #1
    18fc:	f8c4 1138 	str.w	r1, [r4, #312]	; 0x138
    1900:	4423      	add	r3, r4
    1902:	f883 2030 	strb.w	r2, [r3, #48]	; 0x30
    1906:	e751      	b.n	17ac <i2c_t3::sendRequest_(i2cStruct*, unsigned char, unsigned char, unsigned int, i2c_stop, unsigned long)+0x160>
                if((i2c->rxBufferLength+2) == i2c->reqCount || (chkTimeout && !i2c->timeoutRxNAK))
                {
                    *(i2c->C1) = I2C_C1_IICEN | I2C_C1_MST | I2C_C1_TXAK; // no STOP, Rx, NAK on recv
                }
                // if last byte or timeout send STOP
                if((i2c->rxBufferLength+1) >= i2c->reqCount || (chkTimeout && i2c->timeoutRxNAK))
    1908:	f8d4 3138 	ldr.w	r3, [r4, #312]	; 0x138
    190c:	3301      	adds	r3, #1
    190e:	f8d4 2254 	ldr.w	r2, [r4, #596]	; 0x254
    1912:	4293      	cmp	r3, r2
    1914:	d2e8      	bcs.n	18e8 <L_2565_delayMicroseconds+0x12e>
    1916:	e739      	b.n	178c <i2c_t3::sendRequest_(i2cStruct*, unsigned char, unsigned char, unsigned int, i2c_stop, unsigned long)+0x140>
                {
                    i2c->timeoutRxNAK = 0; // clear flag
    1918:	f884 5259 	strb.w	r5, [r4, #601]	; 0x259
                    // change to Tx mode
                    *(i2c->C1) = I2C_C1_IICEN | I2C_C1_MST | I2C_C1_TX;
    191c:	68a3      	ldr	r3, [r4, #8]
    191e:	22b0      	movs	r2, #176	; 0xb0
    1920:	701a      	strb	r2, [r3, #0]
                    // grab last data
                    data = *(i2c->D);
    1922:	6923      	ldr	r3, [r4, #16]
    1924:	781a      	ldrb	r2, [r3, #0]
                    i2c->rxBuffer[i2c->rxBufferLength++] = data;
    1926:	f8d4 3138 	ldr.w	r3, [r4, #312]	; 0x138
    192a:	1c59      	adds	r1, r3, #1
    192c:	f8c4 1138 	str.w	r1, [r4, #312]	; 0x138
    1930:	4423      	add	r3, r4
    1932:	f883 2030 	strb.w	r2, [r3, #48]	; 0x30
    1936:	e731      	b.n	179c <i2c_t3::sendRequest_(i2cStruct*, unsigned char, unsigned char, unsigned int, i2c_stop, unsigned long)+0x150>
        }
        // start ISR
        *(i2c->C1) = I2C_C1_IICEN | I2C_C1_IICIE | I2C_C1_MST | I2C_C1_TX; // enable intr
        *(i2c->D) = (addr << 1) | 1; // address + READ
    }
}
    1938:	b002      	add	sp, #8
    193a:	e8bd 81f0 	ldmia.w	sp!, {r4, r5, r6, r7, r8, pc}
    193e:	bf00      	nop

00001940 <i2c_t3::getError()>:
// return: 0=success, 1=data too long, 2=recv addr NACK, 3=recv data NACK, 4=other error (timeout, arb lost)
//
uint8_t i2c_t3::getError(void)
{
    // convert status to Arduino return values (give these a higher priority than buf overflow error)
    switch(i2c->currentStatus)
    1940:	6903      	ldr	r3, [r0, #16]
    1942:	f893 3251 	ldrb.w	r3, [r3, #593]	; 0x251
    1946:	3b04      	subs	r3, #4
    1948:	2b04      	cmp	r3, #4
    194a:	d80c      	bhi.n	1966 <i2c_t3::getError()+0x26>
    194c:	e8df f003 	tbb	[pc, r3]
    1950:	07050309 	.word	0x07050309
    1954:	10          	.byte	0x10
    1955:	00          	.byte	0x00
    {
    case I2C_BUF_OVF:  return 1;
    case I2C_ADDR_NAK: return 2;
    1956:	2002      	movs	r0, #2
    1958:	4770      	bx	lr
    case I2C_DATA_NAK: return 3;
    195a:	2003      	movs	r0, #3
    195c:	4770      	bx	lr
    case I2C_ARB_LOST: return 4;
    195e:	2004      	movs	r0, #4
    1960:	4770      	bx	lr
    case I2C_TIMEOUT:  return 4;
    1962:	2004      	movs	r0, #4
    1964:	4770      	bx	lr
uint8_t i2c_t3::getError(void)
{
    // convert status to Arduino return values (give these a higher priority than buf overflow error)
    switch(i2c->currentStatus)
    {
    case I2C_BUF_OVF:  return 1;
    1966:	7900      	ldrb	r0, [r0, #4]
    1968:	3000      	adds	r0, #0
    196a:	bf18      	it	ne
    196c:	2001      	movne	r0, #1
    196e:	4770      	bx	lr
    1970:	2001      	movs	r0, #1
    case I2C_TIMEOUT:  return 4;
    default: break;
    }
    if(getWriteError()) return 1; // if write_error was set then flag as buffer overflow
    return 0; // no errors
}
    1972:	4770      	bx	lr

00001974 <i2c_t3::done_(i2cStruct*)>:
// Done Check - returns simple complete/not-complete value to indicate I2C status
// return: 1=Tx/Rx complete (with or without errors), 0=still running
//
uint8_t i2c_t3::done_(struct i2cStruct* i2c)
{
    return (i2c->currentStatus==I2C_WAITING ||
    1974:	f890 3251 	ldrb.w	r3, [r0, #593]	; 0x251
            i2c->currentStatus==I2C_ADDR_NAK ||
            i2c->currentStatus==I2C_DATA_NAK ||
            i2c->currentStatus==I2C_ARB_LOST ||
            i2c->currentStatus==I2C_TIMEOUT ||
    1978:	f013 0fff 	tst.w	r3, #255	; 0xff
    197c:	d01b      	beq.n	19b6 <i2c_t3::done_(i2cStruct*)+0x42>
// return: 1=Tx/Rx complete (with or without errors), 0=still running
//
uint8_t i2c_t3::done_(struct i2cStruct* i2c)
{
    return (i2c->currentStatus==I2C_WAITING ||
            i2c->currentStatus==I2C_ADDR_NAK ||
    197e:	f890 3251 	ldrb.w	r3, [r0, #593]	; 0x251
    1982:	b2db      	uxtb	r3, r3
// Done Check - returns simple complete/not-complete value to indicate I2C status
// return: 1=Tx/Rx complete (with or without errors), 0=still running
//
uint8_t i2c_t3::done_(struct i2cStruct* i2c)
{
    return (i2c->currentStatus==I2C_WAITING ||
    1984:	2b05      	cmp	r3, #5
    1986:	d018      	beq.n	19ba <i2c_t3::done_(i2cStruct*)+0x46>
            i2c->currentStatus==I2C_ADDR_NAK ||
            i2c->currentStatus==I2C_DATA_NAK ||
    1988:	f890 3251 	ldrb.w	r3, [r0, #593]	; 0x251
    198c:	b2db      	uxtb	r3, r3
// return: 1=Tx/Rx complete (with or without errors), 0=still running
//
uint8_t i2c_t3::done_(struct i2cStruct* i2c)
{
    return (i2c->currentStatus==I2C_WAITING ||
            i2c->currentStatus==I2C_ADDR_NAK ||
    198e:	2b06      	cmp	r3, #6
    1990:	d015      	beq.n	19be <i2c_t3::done_(i2cStruct*)+0x4a>
            i2c->currentStatus==I2C_DATA_NAK ||
            i2c->currentStatus==I2C_ARB_LOST ||
    1992:	f890 3251 	ldrb.w	r3, [r0, #593]	; 0x251
    1996:	b2db      	uxtb	r3, r3
//
uint8_t i2c_t3::done_(struct i2cStruct* i2c)
{
    return (i2c->currentStatus==I2C_WAITING ||
            i2c->currentStatus==I2C_ADDR_NAK ||
            i2c->currentStatus==I2C_DATA_NAK ||
    1998:	2b07      	cmp	r3, #7
    199a:	d012      	beq.n	19c2 <i2c_t3::done_(i2cStruct*)+0x4e>
            i2c->currentStatus==I2C_ARB_LOST ||
            i2c->currentStatus==I2C_TIMEOUT ||
    199c:	f890 3251 	ldrb.w	r3, [r0, #593]	; 0x251
    19a0:	b2db      	uxtb	r3, r3
uint8_t i2c_t3::done_(struct i2cStruct* i2c)
{
    return (i2c->currentStatus==I2C_WAITING ||
            i2c->currentStatus==I2C_ADDR_NAK ||
            i2c->currentStatus==I2C_DATA_NAK ||
            i2c->currentStatus==I2C_ARB_LOST ||
    19a2:	2b04      	cmp	r3, #4
    19a4:	d00f      	beq.n	19c6 <i2c_t3::done_(i2cStruct*)+0x52>
            i2c->currentStatus==I2C_TIMEOUT ||
            i2c->currentStatus==I2C_BUF_OVF);
    19a6:	f890 0251 	ldrb.w	r0, [r0, #593]	; 0x251
    19aa:	b2c0      	uxtb	r0, r0
{
    return (i2c->currentStatus==I2C_WAITING ||
            i2c->currentStatus==I2C_ADDR_NAK ||
            i2c->currentStatus==I2C_DATA_NAK ||
            i2c->currentStatus==I2C_ARB_LOST ||
            i2c->currentStatus==I2C_TIMEOUT ||
    19ac:	2808      	cmp	r0, #8
    19ae:	bf14      	ite	ne
    19b0:	2000      	movne	r0, #0
    19b2:	2001      	moveq	r0, #1
    19b4:	4770      	bx	lr
    19b6:	2001      	movs	r0, #1
    19b8:	4770      	bx	lr
    19ba:	2001      	movs	r0, #1
    19bc:	4770      	bx	lr
    19be:	2001      	movs	r0, #1
    19c0:	4770      	bx	lr
    19c2:	2001      	movs	r0, #1
    19c4:	4770      	bx	lr
    19c6:	2001      	movs	r0, #1
            i2c->currentStatus==I2C_BUF_OVF);
}
    19c8:	4770      	bx	lr
    19ca:	bf00      	nop

000019cc <i2c_t3::finish_(i2cStruct*, unsigned char, unsigned long)>:
// return: 1=success (Tx or Rx completed, no error), 0=fail (NAK, timeout or Arb Lost)
// parameters:
//      timeout = timeout in microseconds
//
uint8_t i2c_t3::finish_(struct i2cStruct* i2c, uint8_t bus, uint32_t timeout)
{
    19cc:	b570      	push	{r4, r5, r6, lr}
    19ce:	4604      	mov	r4, r0
    19d0:	4615      	mov	r5, r2
class elapsedMicros
{
private:
	unsigned long us;
public:
	elapsedMicros(void) { us = micros(); }
    19d2:	f000 fde1 	bl	2598 <micros>
    elapsedMicros deltaT;

    // update timeout
    timeout = (timeout == 0) ? i2c->defTimeout : timeout;
    19d6:	b90d      	cbnz	r5, 19dc <i2c_t3::finish_(i2cStruct*, unsigned char, unsigned long)+0x10>
    19d8:	f8d4 5268 	ldr.w	r5, [r4, #616]	; 0x268
	elapsedMicros(unsigned long val) { us = micros() - val; }
	elapsedMicros(const elapsedMicros &orig) { us = orig.us; }
	operator unsigned long () const { return micros() - us; }
	elapsedMicros & operator = (const elapsedMicros &rhs) { us = rhs.us; return *this; }
	elapsedMicros & operator = (unsigned long val) { us = micros() - val; return *this; }
    19dc:	f000 fddc 	bl	2598 <micros>
    19e0:	4606      	mov	r6, r0

    // wait for completion or timeout
    deltaT = 0;
    while(!done_(i2c) && (timeout == 0 || deltaT < timeout));
    19e2:	4620      	mov	r0, r4
    19e4:	f7ff ffc6 	bl	1974 <i2c_t3::done_(i2cStruct*)>
    19e8:	b938      	cbnz	r0, 19fa <i2c_t3::finish_(i2cStruct*, unsigned char, unsigned long)+0x2e>
    19ea:	2d00      	cmp	r5, #0
    19ec:	d0f9      	beq.n	19e2 <i2c_t3::finish_(i2cStruct*, unsigned char, unsigned long)+0x16>
	unsigned long us;
public:
	elapsedMicros(void) { us = micros(); }
	elapsedMicros(unsigned long val) { us = micros() - val; }
	elapsedMicros(const elapsedMicros &orig) { us = orig.us; }
	operator unsigned long () const { return micros() - us; }
    19ee:	f000 fdd3 	bl	2598 <micros>
    19f2:	1b80      	subs	r0, r0, r6
    19f4:	4285      	cmp	r5, r0
    19f6:	d8f4      	bhi.n	19e2 <i2c_t3::finish_(i2cStruct*, unsigned char, unsigned long)+0x16>
    19f8:	e000      	b.n	19fc <i2c_t3::finish_(i2cStruct*, unsigned char, unsigned long)+0x30>

    // DMA mode and timeout
    if(timeout != 0 && deltaT >= timeout && i2c->opMode == I2C_OP_MODE_DMA && i2c->activeDMA != I2C_DMA_OFF)
    19fa:	b1ad      	cbz	r5, 1a28 <i2c_t3::finish_(i2cStruct*, unsigned char, unsigned long)+0x5c>
    19fc:	f000 fdcc 	bl	2598 <micros>
    1a00:	1b80      	subs	r0, r0, r6
    1a02:	4285      	cmp	r5, r0
    1a04:	d810      	bhi.n	1a28 <i2c_t3::finish_(i2cStruct*, unsigned char, unsigned long)+0x5c>
    1a06:	f894 3248 	ldrb.w	r3, [r4, #584]	; 0x248
    1a0a:	2b02      	cmp	r3, #2
    1a0c:	d10c      	bne.n	1a28 <i2c_t3::finish_(i2cStruct*, unsigned char, unsigned long)+0x5c>
    1a0e:	f894 325a 	ldrb.w	r3, [r4, #602]	; 0x25a
    1a12:	f013 0fff 	tst.w	r3, #255	; 0xff
    1a16:	d007      	beq.n	1a28 <i2c_t3::finish_(i2cStruct*, unsigned char, unsigned long)+0x5c>
    {
        // If DMA mode times out, then wait for transfer to end then mark it as timeout.
        // This is done this way because abruptly ending the DMA seems to cause
        // the I2C_S_BUSY flag to get stuck, and I cannot find a reliable way to clear it.
        while(!done_(i2c));
    1a18:	4620      	mov	r0, r4
    1a1a:	f7ff ffab 	bl	1974 <i2c_t3::done_(i2cStruct*)>
    1a1e:	2800      	cmp	r0, #0
    1a20:	d0fa      	beq.n	1a18 <i2c_t3::finish_(i2cStruct*, unsigned char, unsigned long)+0x4c>
        i2c->currentStatus = I2C_TIMEOUT;
    1a22:	2304      	movs	r3, #4
    1a24:	f884 3251 	strb.w	r3, [r4, #593]	; 0x251
    }

    // check exit status, if still Tx/Rx then timeout occurred
    if(i2c->currentStatus == I2C_SENDING ||
    1a28:	f894 3251 	ldrb.w	r3, [r4, #593]	; 0x251
    1a2c:	b2db      	uxtb	r3, r3
       i2c->currentStatus == I2C_SEND_ADDR ||
    1a2e:	2b01      	cmp	r3, #1
    1a30:	d009      	beq.n	1a46 <i2c_t3::finish_(i2cStruct*, unsigned char, unsigned long)+0x7a>
    1a32:	f894 3251 	ldrb.w	r3, [r4, #593]	; 0x251
    1a36:	b2db      	uxtb	r3, r3
        while(!done_(i2c));
        i2c->currentStatus = I2C_TIMEOUT;
    }

    // check exit status, if still Tx/Rx then timeout occurred
    if(i2c->currentStatus == I2C_SENDING ||
    1a38:	2b02      	cmp	r3, #2
    1a3a:	d004      	beq.n	1a46 <i2c_t3::finish_(i2cStruct*, unsigned char, unsigned long)+0x7a>
       i2c->currentStatus == I2C_SEND_ADDR ||
       i2c->currentStatus == I2C_RECEIVING)
    1a3c:	f894 3251 	ldrb.w	r3, [r4, #593]	; 0x251
    1a40:	b2db      	uxtb	r3, r3
        while(!done_(i2c));
        i2c->currentStatus = I2C_TIMEOUT;
    }

    // check exit status, if still Tx/Rx then timeout occurred
    if(i2c->currentStatus == I2C_SENDING ||
    1a42:	2b03      	cmp	r3, #3
    1a44:	d102      	bne.n	1a4c <i2c_t3::finish_(i2cStruct*, unsigned char, unsigned long)+0x80>
       i2c->currentStatus == I2C_SEND_ADDR ||
       i2c->currentStatus == I2C_RECEIVING)
        i2c->currentStatus = I2C_TIMEOUT; // set to timeout state
    1a46:	2304      	movs	r3, #4
    1a48:	f884 3251 	strb.w	r3, [r4, #593]	; 0x251
    1a4c:	2340      	movs	r3, #64	; 0x40

00001a4e <L_3131_delayMicroseconds>:
    1a4e:	3b01      	subs	r3, #1
    1a50:	d1fd      	bne.n	1a4e <L_3131_delayMicroseconds>

    // delay to allow bus to settle (eg. allow STOP to complete and be recognized,
    //                               not just on our side, but on slave side also)
    delayMicroseconds(4);
    if(i2c->currentStatus == I2C_WAITING) return 1;
    1a52:	f894 3251 	ldrb.w	r3, [r4, #593]	; 0x251
    1a56:	f013 0fff 	tst.w	r3, #255	; 0xff
    return 0;
}
    1a5a:	bf0c      	ite	eq
    1a5c:	2001      	moveq	r0, #1
    1a5e:	2000      	movne	r0, #0
    1a60:	bd70      	pop	{r4, r5, r6, pc}
    1a62:	bf00      	nop

00001a64 <i2c_t3::endTransmission(i2cStruct*, unsigned char, i2c_stop, unsigned long)>:
// parameters:
//      i2c_stop = I2C_NOSTOP, I2C_STOP
//      timeout = timeout in microseconds
//
uint8_t i2c_t3::endTransmission(struct i2cStruct* i2c, uint8_t bus, i2c_stop sendStop, uint32_t timeout)
{
    1a64:	b570      	push	{r4, r5, r6, lr}
    1a66:	4606      	mov	r6, r0
    1a68:	460c      	mov	r4, r1
    1a6a:	4615      	mov	r5, r2
    1a6c:	461a      	mov	r2, r3
    sendTransmission_(i2c, bus, sendStop, timeout);
    1a6e:	9b04      	ldr	r3, [sp, #16]
    1a70:	4629      	mov	r1, r5
    1a72:	4620      	mov	r0, r4
    1a74:	f7ff fd22 	bl	14bc <i2c_t3::sendTransmission_(i2cStruct*, unsigned char, i2c_stop, unsigned long)>

    // wait for completion or timeout
    finish_(i2c, bus, timeout);
    1a78:	9a04      	ldr	r2, [sp, #16]
    1a7a:	4629      	mov	r1, r5
    1a7c:	4620      	mov	r0, r4
    1a7e:	f7ff ffa5 	bl	19cc <i2c_t3::finish_(i2cStruct*, unsigned char, unsigned long)>

    return getError();
    1a82:	4630      	mov	r0, r6
    1a84:	f7ff ff5c 	bl	1940 <i2c_t3::getError()>
}
    1a88:	bd70      	pop	{r4, r5, r6, pc}
    1a8a:	bf00      	nop

00001a8c <i2c_t3::requestFrom_(i2cStruct*, unsigned char, unsigned char, unsigned int, i2c_stop, unsigned long)>:
//      timeout = timeout in microseconds
//
size_t i2c_t3::requestFrom_(struct i2cStruct* i2c, uint8_t bus, uint8_t addr, size_t len, i2c_stop sendStop, uint32_t timeout)
{
    // exit immediately if request for 0 bytes
    if(len == 0) return 0;
    1a8c:	b1a3      	cbz	r3, 1ab8 <i2c_t3::requestFrom_(i2cStruct*, unsigned char, unsigned char, unsigned int, i2c_stop, unsigned long)+0x2c>
//      length = number of bytes requested
//      i2c_stop = I2C_NOSTOP, I2C_STOP
//      timeout = timeout in microseconds
//
size_t i2c_t3::requestFrom_(struct i2cStruct* i2c, uint8_t bus, uint8_t addr, size_t len, i2c_stop sendStop, uint32_t timeout)
{
    1a8e:	b530      	push	{r4, r5, lr}
    1a90:	b083      	sub	sp, #12
    1a92:	460d      	mov	r5, r1
    1a94:	4604      	mov	r4, r0
    // exit immediately if request for 0 bytes
    if(len == 0) return 0;

    sendRequest_(i2c, bus, addr, len, sendStop, timeout);
    1a96:	9907      	ldr	r1, [sp, #28]
    1a98:	9101      	str	r1, [sp, #4]
    1a9a:	f89d 1018 	ldrb.w	r1, [sp, #24]
    1a9e:	9100      	str	r1, [sp, #0]
    1aa0:	4629      	mov	r1, r5
    1aa2:	f7ff fdd3 	bl	164c <i2c_t3::sendRequest_(i2cStruct*, unsigned char, unsigned char, unsigned int, i2c_stop, unsigned long)>

    // wait for completion or timeout
    if(finish_(i2c, bus, timeout))
    1aa6:	9a07      	ldr	r2, [sp, #28]
    1aa8:	4629      	mov	r1, r5
    1aaa:	4620      	mov	r0, r4
    1aac:	f7ff ff8e 	bl	19cc <i2c_t3::finish_(i2cStruct*, unsigned char, unsigned long)>
    1ab0:	b120      	cbz	r0, 1abc <i2c_t3::requestFrom_(i2cStruct*, unsigned char, unsigned char, unsigned int, i2c_stop, unsigned long)+0x30>
        return i2c->rxBufferLength;
    1ab2:	f8d4 0138 	ldr.w	r0, [r4, #312]	; 0x138
    1ab6:	e002      	b.n	1abe <i2c_t3::requestFrom_(i2cStruct*, unsigned char, unsigned char, unsigned int, i2c_stop, unsigned long)+0x32>
//      timeout = timeout in microseconds
//
size_t i2c_t3::requestFrom_(struct i2cStruct* i2c, uint8_t bus, uint8_t addr, size_t len, i2c_stop sendStop, uint32_t timeout)
{
    // exit immediately if request for 0 bytes
    if(len == 0) return 0;
    1ab8:	2000      	movs	r0, #0
    // wait for completion or timeout
    if(finish_(i2c, bus, timeout))
        return i2c->rxBufferLength;
    else
        return 0; // NAK, timeout or bus error
}
    1aba:	4770      	bx	lr

    // wait for completion or timeout
    if(finish_(i2c, bus, timeout))
        return i2c->rxBufferLength;
    else
        return 0; // NAK, timeout or bus error
    1abc:	2000      	movs	r0, #0
}
    1abe:	b003      	add	sp, #12
    1ac0:	bd30      	pop	{r4, r5, pc}
    1ac2:	bf00      	nop

00001ac4 <i2c_t3::read_(i2cStruct*)>:
// Read - returns next data byte (signed int) from Rx buffer
// return: data, -1 if buffer empty
//
int i2c_t3::read_(struct i2cStruct* i2c)
{
    if(i2c->rxBufferIndex >= i2c->rxBufferLength) return -1;
    1ac4:	f8d0 2134 	ldr.w	r2, [r0, #308]	; 0x134
    1ac8:	f8d0 3138 	ldr.w	r3, [r0, #312]	; 0x138
    1acc:	429a      	cmp	r2, r3
    1ace:	d208      	bcs.n	1ae2 <i2c_t3::read_(i2cStruct*)+0x1e>
    return i2c->rxBuffer[i2c->rxBufferIndex++];
    1ad0:	f8d0 3134 	ldr.w	r3, [r0, #308]	; 0x134
    1ad4:	1c5a      	adds	r2, r3, #1
    1ad6:	f8c0 2134 	str.w	r2, [r0, #308]	; 0x134
    1ada:	4418      	add	r0, r3
    1adc:	f890 0030 	ldrb.w	r0, [r0, #48]	; 0x30
    1ae0:	4770      	bx	lr
// Read - returns next data byte (signed int) from Rx buffer
// return: data, -1 if buffer empty
//
int i2c_t3::read_(struct i2cStruct* i2c)
{
    if(i2c->rxBufferIndex >= i2c->rxBufferLength) return -1;
    1ae2:	f04f 30ff 	mov.w	r0, #4294967295	; 0xffffffff
    return i2c->rxBuffer[i2c->rxBufferIndex++];
}
    1ae6:	4770      	bx	lr

00001ae8 <i2c_t3::read()>:
    static int read_(struct i2cStruct* i2c);
    //
    // Read - returns next data byte (signed int) from Rx buffer
    // return: data, -1 if buffer empty
    //
    inline int read(void) { return read_(i2c); }
    1ae8:	b508      	push	{r3, lr}
    1aea:	6900      	ldr	r0, [r0, #16]
    1aec:	f7ff ffea 	bl	1ac4 <i2c_t3::read_(i2cStruct*)>
    1af0:	bd08      	pop	{r3, pc}
    1af2:	bf00      	nop

00001af4 <i2c_t3::peek_(i2cStruct*)>:
// Peek - returns next data byte (signed int) from Rx buffer without removing it from Rx buffer
// return: data, -1 if buffer empty
//
int i2c_t3::peek_(struct i2cStruct* i2c)
{
    if(i2c->rxBufferIndex >= i2c->rxBufferLength) return -1;
    1af4:	f8d0 2134 	ldr.w	r2, [r0, #308]	; 0x134
    1af8:	f8d0 3138 	ldr.w	r3, [r0, #312]	; 0x138
    1afc:	429a      	cmp	r2, r3
    return i2c->rxBuffer[i2c->rxBufferIndex];
    1afe:	bf3d      	ittte	cc
    1b00:	f8d0 3134 	ldrcc.w	r3, [r0, #308]	; 0x134
    1b04:	18c0      	addcc	r0, r0, r3
    1b06:	f890 0030 	ldrbcc.w	r0, [r0, #48]	; 0x30
// Peek - returns next data byte (signed int) from Rx buffer without removing it from Rx buffer
// return: data, -1 if buffer empty
//
int i2c_t3::peek_(struct i2cStruct* i2c)
{
    if(i2c->rxBufferIndex >= i2c->rxBufferLength) return -1;
    1b0a:	f04f 30ff 	movcs.w	r0, #4294967295	; 0xffffffff
    return i2c->rxBuffer[i2c->rxBufferIndex];
}
    1b0e:	4770      	bx	lr

00001b10 <i2c_t3::peek()>:
    static int peek_(struct i2cStruct* i2c);
    //
    // Peek - returns next data byte (signed int) from Rx buffer without removing it from Rx buffer
    // return: data, -1 if buffer empty
    //
    inline int peek(void) { return peek_(i2c); }
    1b10:	b508      	push	{r3, lr}
    1b12:	6900      	ldr	r0, [r0, #16]
    1b14:	f7ff ffee 	bl	1af4 <i2c_t3::peek_(i2cStruct*)>
    1b18:	bd08      	pop	{r3, pc}
    1b1a:	bf00      	nop

00001b1c <i2c_t3::readByte_(i2cStruct*)>:
// Read Byte - returns next data byte (uint8_t) from Rx buffer
// return: data, 0 if buffer empty
//
uint8_t i2c_t3::readByte_(struct i2cStruct* i2c)
{
    if(i2c->rxBufferIndex >= i2c->rxBufferLength) return 0;
    1b1c:	f8d0 2134 	ldr.w	r2, [r0, #308]	; 0x134
    1b20:	f8d0 3138 	ldr.w	r3, [r0, #312]	; 0x138
    1b24:	429a      	cmp	r2, r3
    1b26:	d208      	bcs.n	1b3a <i2c_t3::readByte_(i2cStruct*)+0x1e>
    return i2c->rxBuffer[i2c->rxBufferIndex++];
    1b28:	f8d0 3134 	ldr.w	r3, [r0, #308]	; 0x134
    1b2c:	1c5a      	adds	r2, r3, #1
    1b2e:	f8c0 2134 	str.w	r2, [r0, #308]	; 0x134
    1b32:	4418      	add	r0, r3
    1b34:	f890 0030 	ldrb.w	r0, [r0, #48]	; 0x30
    1b38:	4770      	bx	lr
// Read Byte - returns next data byte (uint8_t) from Rx buffer
// return: data, 0 if buffer empty
//
uint8_t i2c_t3::readByte_(struct i2cStruct* i2c)
{
    if(i2c->rxBufferIndex >= i2c->rxBufferLength) return 0;
    1b3a:	2000      	movs	r0, #0
    return i2c->rxBuffer[i2c->rxBufferIndex++];
}
    1b3c:	4770      	bx	lr
    1b3e:	bf00      	nop

00001b40 <i2c_isr_handler>:

//
// I2C ISR base handler
//
void i2c_isr_handler(struct i2cStruct* i2c, uint8_t bus)
{
    1b40:	b538      	push	{r3, r4, r5, lr}
    uint8_t status, c1, data;

    status = *(i2c->S);
    1b42:	68c2      	ldr	r2, [r0, #12]
    1b44:	7815      	ldrb	r5, [r2, #0]
    1b46:	b2ed      	uxtb	r5, r5
    c1 = *(i2c->C1);
    1b48:	6881      	ldr	r1, [r0, #8]
    1b4a:	780b      	ldrb	r3, [r1, #0]
    1b4c:	b2db      	uxtb	r3, r3
    #if defined(__MKL26Z64__) || defined(__MK64FX512__) || defined(__MK66FX1M0__) // LC/3.5/3.6
        uint8_t flt = *(i2c->FLT);  // store flags
    #endif

    if(c1 & I2C_C1_MST)
    1b4e:	f013 0f20 	tst.w	r3, #32
    1b52:	f000 81c1 	beq.w	1ed8 <L_4039_delayMicroseconds+0x26>
    {
        //
        // Master Mode
        //
        if(c1 & I2C_C1_TX)
    1b56:	f013 0f10 	tst.w	r3, #16
    1b5a:	f000 8105 	beq.w	1d68 <i2c_isr_handler+0x228>
        {
            if(i2c->activeDMA == I2C_DMA_BULK || i2c->activeDMA == I2C_DMA_LAST)
    1b5e:	f890 325a 	ldrb.w	r3, [r0, #602]	; 0x25a
    1b62:	b2db      	uxtb	r3, r3
    1b64:	2b02      	cmp	r3, #2
    1b66:	d004      	beq.n	1b72 <i2c_isr_handler+0x32>
    1b68:	f890 325a 	ldrb.w	r3, [r0, #602]	; 0x25a
    1b6c:	b2db      	uxtb	r3, r3
    1b6e:	2b03      	cmp	r3, #3
    1b70:	d14c      	bne.n	1c0c <i2c_isr_handler+0xcc>
            {
                if(i2c->DMA->complete() && i2c->activeDMA == I2C_DMA_BULK)
    1b72:	f8d0 1264 	ldr.w	r1, [r0, #612]	; 0x264
	/***************************************/
	/**    Status                         **/
	/***************************************/

	bool complete(void) {
		if (TCD->CSR & DMA_TCD_CSR_DONE) return true;
    1b76:	680b      	ldr	r3, [r1, #0]
    1b78:	8b9b      	ldrh	r3, [r3, #28]
    1b7a:	f003 0380 	and.w	r3, r3, #128	; 0x80
    1b7e:	b29b      	uxth	r3, r3
    1b80:	2b00      	cmp	r3, #0
    1b82:	f000 8284 	beq.w	208e <L_4039_delayMicroseconds+0x1dc>
    1b86:	f890 325a 	ldrb.w	r3, [r0, #602]	; 0x25a
    1b8a:	b2db      	uxtb	r3, r3
    1b8c:	2b02      	cmp	r3, #2
    1b8e:	f040 827e 	bne.w	208e <L_4039_delayMicroseconds+0x1dc>
    1b92:	e272      	b.n	207a <L_4039_delayMicroseconds+0x1c8>
                    i2c->activeDMA = I2C_DMA_LAST;
                }
                else if(i2c->activeDMA == I2C_DMA_LAST)
                {
                    // wait for TCF
                    while(!(*(i2c->S) & I2C_S_TCF));
    1b94:	7813      	ldrb	r3, [r2, #0]
    1b96:	f013 0f80 	tst.w	r3, #128	; 0x80
    1b9a:	d0fb      	beq.n	1b94 <i2c_isr_handler+0x54>
		return false;
	}
	void clearComplete(void) {
		DMA_CDNE = channel;
    1b9c:	790a      	ldrb	r2, [r1, #4]
    1b9e:	4bb5      	ldr	r3, [pc, #724]	; (1e74 <L_3900_delayMicroseconds+0x8c>)
    1ba0:	701a      	strb	r2, [r3, #0]
                    // clear DMA, only do this after TCF
                    i2c->DMA->clearComplete();
                    // re-engage ISR for last byte
                    i2c->activeDMA = I2C_DMA_OFF;
    1ba2:	2300      	movs	r3, #0
    1ba4:	f880 325a 	strb.w	r3, [r0, #602]	; 0x25a
                    i2c->txBufferIndex = i2c->txBufferLength-1;
    1ba8:	f8d0 3244 	ldr.w	r3, [r0, #580]	; 0x244
    1bac:	3b01      	subs	r3, #1
    1bae:	f8c0 3240 	str.w	r3, [r0, #576]	; 0x240
                    *(i2c->D) = i2c->txBuffer[i2c->txBufferIndex];
    1bb2:	6902      	ldr	r2, [r0, #16]
    1bb4:	f8d0 3240 	ldr.w	r3, [r0, #576]	; 0x240
    1bb8:	4403      	add	r3, r0
    1bba:	f893 313c 	ldrb.w	r3, [r3, #316]	; 0x13c
    1bbe:	7013      	strb	r3, [r2, #0]
    1bc0:	e020      	b.n	1c04 <i2c_isr_handler+0xc4>
	}
	bool error(void) {
		if (DMA_ERR & (1<<channel)) return true;
    1bc2:	4bad      	ldr	r3, [pc, #692]	; (1e78 <L_3900_delayMicroseconds+0x90>)
    1bc4:	681c      	ldr	r4, [r3, #0]
    1bc6:	790a      	ldrb	r2, [r1, #4]
                }
                else if(i2c->DMA->error())
    1bc8:	2301      	movs	r3, #1
    1bca:	4093      	lsls	r3, r2
    1bcc:	4223      	tst	r3, r4
    1bce:	d019      	beq.n	1c04 <i2c_isr_handler+0xc4>
	void detachInterrupt(void) {
		NVIC_DISABLE_IRQ(IRQ_DMA_CH0 + channel);
	}

	void clearInterrupt(void) {
		DMA_CINT = channel;
    1bd0:	4baa      	ldr	r3, [pc, #680]	; (1e7c <L_3900_delayMicroseconds+0x94>)
    1bd2:	701a      	strb	r2, [r3, #0]
	bool error(void) {
		if (DMA_ERR & (1<<channel)) return true;
		return false;
	}
	void clearError(void) {
		DMA_CERR = channel;
    1bd4:	f8d0 3264 	ldr.w	r3, [r0, #612]	; 0x264
    1bd8:	791a      	ldrb	r2, [r3, #4]
    1bda:	4ba9      	ldr	r3, [pc, #676]	; (1e80 <L_3900_delayMicroseconds+0x98>)
    1bdc:	701a      	strb	r2, [r3, #0]
                {
                    i2c->DMA->clearInterrupt();
                    i2c->DMA->clearError();
                    i2c->activeDMA = I2C_DMA_OFF;
    1bde:	2300      	movs	r3, #0
    1be0:	f880 325a 	strb.w	r3, [r0, #602]	; 0x25a
                    // check arbitration
                    if(status & I2C_S_ARBL)
    1be4:	f015 0f10 	tst.w	r5, #16
    1be8:	d00c      	beq.n	1c04 <i2c_isr_handler+0xc4>
                    {
                        // Arbitration Lost
                        i2c->currentStatus = I2C_ARB_LOST;
    1bea:	2307      	movs	r3, #7
    1bec:	f880 3251 	strb.w	r3, [r0, #593]	; 0x251
                        *(i2c->S) = I2C_S_ARBL | I2C_S_IICIF; // clear arbl flag and intr
    1bf0:	68c3      	ldr	r3, [r0, #12]
    1bf2:	2212      	movs	r2, #18
    1bf4:	701a      	strb	r2, [r3, #0]
                        *(i2c->C1) = I2C_C1_IICEN; // change to Rx mode, intr disabled (does this send STOP if ARBL flagged?), DMA disabled
    1bf6:	6883      	ldr	r3, [r0, #8]
    1bf8:	2280      	movs	r2, #128	; 0x80
    1bfa:	701a      	strb	r2, [r3, #0]
                        i2c->txBufferIndex = 0; // reset Tx buffer index to prepare for resend
    1bfc:	2300      	movs	r3, #0
    1bfe:	f8c0 3240 	str.w	r3, [r0, #576]	; 0x240
                        return; // TODO does this need to check IAAS and drop to Slave Rx? if so set Rx + dummy read. not sure if this would work for DMA
    1c02:	bd38      	pop	{r3, r4, r5, pc}
                    }
                }
                *(i2c->S) = I2C_S_IICIF; // clear intr
    1c04:	68c3      	ldr	r3, [r0, #12]
    1c06:	2202      	movs	r2, #2
    1c08:	701a      	strb	r2, [r3, #0]
                return;
    1c0a:	bd38      	pop	{r3, r4, r5, pc}
            } // end DMA Tx
            else
            {
                // Continue Master Transmit
                // check if Master Tx or Rx
                if(i2c->currentStatus == I2C_SENDING)
    1c0c:	f890 3251 	ldrb.w	r3, [r0, #593]	; 0x251
    1c10:	b2db      	uxtb	r3, r3
    1c12:	2b01      	cmp	r3, #1
    1c14:	d156      	bne.n	1cc4 <i2c_isr_handler+0x184>
                {
                    // check arbitration
                    if(status & I2C_S_ARBL)
    1c16:	f015 0f10 	tst.w	r5, #16
    1c1a:	d00d      	beq.n	1c38 <i2c_isr_handler+0xf8>
                    {
                        // Arbitration Lost
                        i2c->activeDMA = I2C_DMA_OFF; // clear pending DMA (if happens on address byte)
    1c1c:	2300      	movs	r3, #0
    1c1e:	f880 325a 	strb.w	r3, [r0, #602]	; 0x25a
                        i2c->currentStatus = I2C_ARB_LOST;
    1c22:	2107      	movs	r1, #7
    1c24:	f880 1251 	strb.w	r1, [r0, #593]	; 0x251
                        *(i2c->S) = I2C_S_ARBL | I2C_S_IICIF; // clear arbl flag and intr
    1c28:	2112      	movs	r1, #18
    1c2a:	7011      	strb	r1, [r2, #0]
                        *(i2c->C1) = I2C_C1_IICEN; // change to Rx mode, intr disabled (does this send STOP if ARBL flagged?)
    1c2c:	6882      	ldr	r2, [r0, #8]
    1c2e:	2180      	movs	r1, #128	; 0x80
    1c30:	7011      	strb	r1, [r2, #0]
                        i2c->txBufferIndex = 0; // reset Tx buffer index to prepare for resend
    1c32:	f8c0 3240 	str.w	r3, [r0, #576]	; 0x240
                        return; // does this need to check IAAS and drop to Slave Rx? if so set Rx + dummy read.
    1c36:	bd38      	pop	{r3, r4, r5, pc}
                    }
                    // check if slave ACK'd
                    else if(status & I2C_S_RXAK)
    1c38:	f015 0f01 	tst.w	r5, #1
    1c3c:	d00f      	beq.n	1c5e <i2c_isr_handler+0x11e>
                    {
                        i2c->activeDMA = I2C_DMA_OFF; // clear pending DMA (if happens on address byte)
    1c3e:	2300      	movs	r3, #0
    1c40:	f880 325a 	strb.w	r3, [r0, #602]	; 0x25a
                        if(i2c->txBufferIndex == 0)
    1c44:	f8d0 3240 	ldr.w	r3, [r0, #576]	; 0x240
    1c48:	b91b      	cbnz	r3, 1c52 <i2c_isr_handler+0x112>
                            i2c->currentStatus = I2C_ADDR_NAK; // NAK on Addr
    1c4a:	2305      	movs	r3, #5
    1c4c:	f880 3251 	strb.w	r3, [r0, #593]	; 0x251
    1c50:	e002      	b.n	1c58 <i2c_isr_handler+0x118>
                        else
                            i2c->currentStatus = I2C_DATA_NAK; // NAK on Data
    1c52:	2306      	movs	r3, #6
    1c54:	f880 3251 	strb.w	r3, [r0, #593]	; 0x251
                        // send STOP, change to Rx mode, intr disabled
                        // note: Slave NAK is an error, so send STOP regardless of setting
                        *(i2c->C1) = I2C_C1_IICEN;
    1c58:	2380      	movs	r3, #128	; 0x80
    1c5a:	700b      	strb	r3, [r1, #0]
    1c5c:	e02e      	b.n	1cbc <i2c_isr_handler+0x17c>
                    }
                    else
                    {
                        // check if last byte transmitted
                        if(++i2c->txBufferIndex >= i2c->txBufferLength)
    1c5e:	f8d0 3240 	ldr.w	r3, [r0, #576]	; 0x240
    1c62:	3301      	adds	r3, #1
    1c64:	f8c0 3240 	str.w	r3, [r0, #576]	; 0x240
    1c68:	f8d0 2244 	ldr.w	r2, [r0, #580]	; 0x244
    1c6c:	4293      	cmp	r3, r2
    1c6e:	d30a      	bcc.n	1c86 <i2c_isr_handler+0x146>
                        {
                            // Tx complete, change to waiting state
                            i2c->currentStatus = I2C_WAITING;
    1c70:	2300      	movs	r3, #0
    1c72:	f880 3251 	strb.w	r3, [r0, #593]	; 0x251
                            // send STOP if configured
                            if(i2c->currentStop == I2C_STOP)
    1c76:	f890 3250 	ldrb.w	r3, [r0, #592]	; 0x250
    1c7a:	2b01      	cmp	r3, #1
                                *(i2c->C1) = I2C_C1_IICEN; // send STOP, change to Rx mode, intr disabled
    1c7c:	bf0c      	ite	eq
    1c7e:	2380      	moveq	r3, #128	; 0x80
                            else
                                *(i2c->C1) = I2C_C1_IICEN | I2C_C1_MST | I2C_C1_TX; // no STOP, stay in Tx mode, intr disabled
    1c80:	23b0      	movne	r3, #176	; 0xb0
    1c82:	700b      	strb	r3, [r1, #0]
    1c84:	e01a      	b.n	1cbc <i2c_isr_handler+0x17c>
                        }
                        else if(i2c->activeDMA == I2C_DMA_ADDR)
    1c86:	f890 325a 	ldrb.w	r3, [r0, #602]	; 0x25a
    1c8a:	b2db      	uxtb	r3, r3
    1c8c:	2b01      	cmp	r3, #1
    1c8e:	d10e      	bne.n	1cae <i2c_isr_handler+0x16e>
                        {
                            // Start DMA
                            i2c->activeDMA = I2C_DMA_BULK;
    1c90:	2302      	movs	r3, #2
    1c92:	f880 325a 	strb.w	r3, [r0, #602]	; 0x25a
                            *(i2c->C1) = I2C_C1_IICEN | I2C_C1_IICIE | I2C_C1_MST | I2C_C1_TX | I2C_C1_DMAEN; // intr en, Tx mode, DMA en
    1c96:	23f1      	movs	r3, #241	; 0xf1
    1c98:	700b      	strb	r3, [r1, #0]
	/***************************************/
	/**    Enable / Disable               **/
	/***************************************/

	void enable(void) {
		DMA_SERQ = channel;
    1c9a:	f8d0 3264 	ldr.w	r3, [r0, #612]	; 0x264
    1c9e:	791a      	ldrb	r2, [r3, #4]
    1ca0:	4b78      	ldr	r3, [pc, #480]	; (1e84 <L_3900_delayMicroseconds+0x9c>)
    1ca2:	701a      	strb	r2, [r3, #0]
                            i2c->DMA->enable();
                            *(i2c->D) = i2c->txBuffer[1]; // DMA will start on next request
    1ca4:	6903      	ldr	r3, [r0, #16]
    1ca6:	f890 213d 	ldrb.w	r2, [r0, #317]	; 0x13d
    1caa:	701a      	strb	r2, [r3, #0]
    1cac:	e006      	b.n	1cbc <i2c_isr_handler+0x17c>
                        }
                        else
                        {
                            // ISR transmit next byte
                            *(i2c->D) = i2c->txBuffer[i2c->txBufferIndex];
    1cae:	6902      	ldr	r2, [r0, #16]
    1cb0:	f8d0 3240 	ldr.w	r3, [r0, #576]	; 0x240
    1cb4:	4403      	add	r3, r0
    1cb6:	f893 313c 	ldrb.w	r3, [r3, #316]	; 0x13c
    1cba:	7013      	strb	r3, [r2, #0]
                        }
                    }
                    *(i2c->S) = I2C_S_IICIF; // clear intr
    1cbc:	68c3      	ldr	r3, [r0, #12]
    1cbe:	2202      	movs	r2, #2
    1cc0:	701a      	strb	r2, [r3, #0]
                    return;
    1cc2:	bd38      	pop	{r3, r4, r5, pc}
                }
                else if(i2c->currentStatus == I2C_SEND_ADDR)
    1cc4:	f890 3251 	ldrb.w	r3, [r0, #593]	; 0x251
    1cc8:	b2db      	uxtb	r3, r3
    1cca:	2b02      	cmp	r3, #2
    1ccc:	d136      	bne.n	1d3c <i2c_isr_handler+0x1fc>
                {
                    // Master Receive, addr sent
                    if(status & I2C_S_ARBL)
    1cce:	f015 0f10 	tst.w	r5, #16
    1cd2:	d008      	beq.n	1ce6 <i2c_isr_handler+0x1a6>
                    {
                        // Arbitration Lost
                        i2c->currentStatus = I2C_ARB_LOST;
    1cd4:	2307      	movs	r3, #7
    1cd6:	f880 3251 	strb.w	r3, [r0, #593]	; 0x251
                        *(i2c->S) = I2C_S_ARBL | I2C_S_IICIF; // clear arbl flag and intr
    1cda:	2312      	movs	r3, #18
    1cdc:	7013      	strb	r3, [r2, #0]
                        *(i2c->C1) = I2C_C1_IICEN; // change to Rx mode, intr disabled (does this send STOP if ARBL flagged?)
    1cde:	6883      	ldr	r3, [r0, #8]
    1ce0:	2280      	movs	r2, #128	; 0x80
    1ce2:	701a      	strb	r2, [r3, #0]
                        return; // TODO does this need to check IAAS and drop to Slave Rx? if so set Rx + dummy read. not sure if this would work for DMA
    1ce4:	bd38      	pop	{r3, r4, r5, pc}
                    }
                    else if(status & I2C_S_RXAK)
    1ce6:	f015 0f01 	tst.w	r5, #1
    1cea:	d005      	beq.n	1cf8 <i2c_isr_handler+0x1b8>
                    {
                        // Slave addr NAK
                        i2c->currentStatus = I2C_ADDR_NAK; // NAK on Addr
    1cec:	2305      	movs	r3, #5
    1cee:	f880 3251 	strb.w	r3, [r0, #593]	; 0x251
                        // send STOP, change to Rx mode, intr disabled
                        *(i2c->C1) = I2C_C1_IICEN;
    1cf2:	2380      	movs	r3, #128	; 0x80
    1cf4:	700b      	strb	r3, [r1, #0]
    1cf6:	e01d      	b.n	1d34 <i2c_isr_handler+0x1f4>
                    }
                    else if(i2c->activeDMA == I2C_DMA_ADDR)
    1cf8:	f890 325a 	ldrb.w	r3, [r0, #602]	; 0x25a
    1cfc:	b2db      	uxtb	r3, r3
    1cfe:	2b01      	cmp	r3, #1
    1d00:	d10c      	bne.n	1d1c <i2c_isr_handler+0x1dc>
                    {
                        // Start DMA
                        i2c->activeDMA = I2C_DMA_BULK;
    1d02:	2302      	movs	r3, #2
    1d04:	f880 325a 	strb.w	r3, [r0, #602]	; 0x25a
                        *(i2c->C1) = I2C_C1_IICEN | I2C_C1_IICIE | I2C_C1_MST | I2C_C1_DMAEN; // intr en, no STOP, change to Rx, DMA en
    1d08:	23e1      	movs	r3, #225	; 0xe1
    1d0a:	700b      	strb	r3, [r1, #0]
    1d0c:	f8d0 3264 	ldr.w	r3, [r0, #612]	; 0x264
    1d10:	791a      	ldrb	r2, [r3, #4]
    1d12:	4b5c      	ldr	r3, [pc, #368]	; (1e84 <L_3900_delayMicroseconds+0x9c>)
    1d14:	701a      	strb	r2, [r3, #0]
                        i2c->DMA->enable();
                        data = *(i2c->D); // dummy read
    1d16:	6903      	ldr	r3, [r0, #16]
    1d18:	781b      	ldrb	r3, [r3, #0]
    1d1a:	e00b      	b.n	1d34 <i2c_isr_handler+0x1f4>
                    }
                    else
                    {
                        // Slave addr ACK, change to Rx mode
                        i2c->currentStatus = I2C_RECEIVING;
    1d1c:	2303      	movs	r3, #3
    1d1e:	f880 3251 	strb.w	r3, [r0, #593]	; 0x251
                        if(i2c->reqCount == 1)
    1d22:	f8d0 3254 	ldr.w	r3, [r0, #596]	; 0x254
    1d26:	2b01      	cmp	r3, #1
                            *(i2c->C1) = I2C_C1_IICEN | I2C_C1_IICIE | I2C_C1_MST | I2C_C1_TXAK; // no STOP, Rx, NAK on recv
    1d28:	bf0c      	ite	eq
    1d2a:	23e8      	moveq	r3, #232	; 0xe8
                        else
                            *(i2c->C1) = I2C_C1_IICEN | I2C_C1_IICIE | I2C_C1_MST; // no STOP, change to Rx
    1d2c:	23e0      	movne	r3, #224	; 0xe0
    1d2e:	700b      	strb	r3, [r1, #0]
                        data = *(i2c->D); // dummy read
    1d30:	6903      	ldr	r3, [r0, #16]
    1d32:	781b      	ldrb	r3, [r3, #0]
                    }
                    *(i2c->S) = I2C_S_IICIF; // clear intr
    1d34:	68c3      	ldr	r3, [r0, #12]
    1d36:	2202      	movs	r2, #2
    1d38:	701a      	strb	r2, [r3, #0]
                    return;
    1d3a:	bd38      	pop	{r3, r4, r5, pc}
                }
                else if(i2c->currentStatus == I2C_TIMEOUT)
    1d3c:	f890 3251 	ldrb.w	r3, [r0, #593]	; 0x251
    1d40:	b2db      	uxtb	r3, r3
    1d42:	2b04      	cmp	r3, #4
    1d44:	d10a      	bne.n	1d5c <i2c_isr_handler+0x21c>
                {
                    // send STOP if configured
                    if(i2c->currentStop == I2C_STOP)
    1d46:	f890 3250 	ldrb.w	r3, [r0, #592]	; 0x250
    1d4a:	2b01      	cmp	r3, #1
                    {
                        // send STOP, change to Rx mode, intr disabled
                        *(i2c->C1) = I2C_C1_IICEN;
    1d4c:	bf0c      	ite	eq
    1d4e:	2380      	moveq	r3, #128	; 0x80
                    }
                    else
                    {
                        // no STOP, stay in Tx mode, intr disabled
                        *(i2c->C1) = I2C_C1_IICEN | I2C_C1_MST | I2C_C1_TX;
    1d50:	23b0      	movne	r3, #176	; 0xb0
    1d52:	700b      	strb	r3, [r1, #0]
                    }
                    *(i2c->S) = I2C_S_IICIF; // clear intr
    1d54:	68c3      	ldr	r3, [r0, #12]
    1d56:	2202      	movs	r2, #2
    1d58:	701a      	strb	r2, [r3, #0]
                    return;
    1d5a:	bd38      	pop	{r3, r4, r5, pc}
                }
                else
                {
                    // Should not be in Tx mode if not sending
                    // send STOP, change to Rx mode, intr disabled
                    *(i2c->C1) = I2C_C1_IICEN;
    1d5c:	2380      	movs	r3, #128	; 0x80
    1d5e:	700b      	strb	r3, [r1, #0]
                    *(i2c->S) = I2C_S_IICIF; // clear intr
    1d60:	68c3      	ldr	r3, [r0, #12]
    1d62:	2202      	movs	r2, #2
    1d64:	701a      	strb	r2, [r3, #0]
                    return;
    1d66:	bd38      	pop	{r3, r4, r5, pc}
        }
        else
        {
            // Continue Master Receive
            //
            if(i2c->activeDMA == I2C_DMA_BULK || i2c->activeDMA == I2C_DMA_LAST)
    1d68:	f890 325a 	ldrb.w	r3, [r0, #602]	; 0x25a
    1d6c:	b2db      	uxtb	r3, r3
    1d6e:	2b02      	cmp	r3, #2
    1d70:	d004      	beq.n	1d7c <i2c_isr_handler+0x23c>
    1d72:	f890 325a 	ldrb.w	r3, [r0, #602]	; 0x25a
    1d76:	b2db      	uxtb	r3, r3
    1d78:	2b03      	cmp	r3, #3
    1d7a:	d155      	bne.n	1e28 <L_3900_delayMicroseconds+0x40>
            {
                if(i2c->DMA->complete() && i2c->activeDMA == I2C_DMA_BULK) // 2nd to last byte
    1d7c:	f8d0 2264 	ldr.w	r2, [r0, #612]	; 0x264
	/***************************************/
	/**    Status                         **/
	/***************************************/

	bool complete(void) {
		if (TCD->CSR & DMA_TCD_CSR_DONE) return true;
    1d80:	6813      	ldr	r3, [r2, #0]
    1d82:	8b9b      	ldrh	r3, [r3, #28]
    1d84:	f003 0380 	and.w	r3, r3, #128	; 0x80
    1d88:	b29b      	uxth	r3, r3
    1d8a:	2b00      	cmp	r3, #0
    1d8c:	f000 8190 	beq.w	20b0 <L_4039_delayMicroseconds+0x1fe>
    1d90:	f890 325a 	ldrb.w	r3, [r0, #602]	; 0x25a
    1d94:	b2db      	uxtb	r3, r3
    1d96:	2b02      	cmp	r3, #2
    1d98:	f040 818a 	bne.w	20b0 <L_4039_delayMicroseconds+0x1fe>
    1d9c:	e17e      	b.n	209c <L_4039_delayMicroseconds+0x1ea>
		return false;
	}
	void clearComplete(void) {
		DMA_CDNE = channel;
    1d9e:	7912      	ldrb	r2, [r2, #4]
    1da0:	4b34      	ldr	r3, [pc, #208]	; (1e74 <L_3900_delayMicroseconds+0x8c>)
    1da2:	701a      	strb	r2, [r3, #0]
                }
                else if(i2c->activeDMA == I2C_DMA_LAST) // last byte
                {
                    // clear DMA
                    i2c->DMA->clearComplete();
                    i2c->activeDMA = I2C_DMA_OFF;
    1da4:	2300      	movs	r3, #0
    1da6:	f880 325a 	strb.w	r3, [r0, #602]	; 0x25a
                    if(i2c->currentStatus != I2C_TIMEOUT)
    1daa:	f890 3251 	ldrb.w	r3, [r0, #593]	; 0x251
    1dae:	b2db      	uxtb	r3, r3
    1db0:	2b04      	cmp	r3, #4
                        i2c->currentStatus = I2C_WAITING; // Rx complete, change to waiting state
    1db2:	bf1c      	itt	ne
    1db4:	2300      	movne	r3, #0
    1db6:	f880 3251 	strbne.w	r3, [r0, #593]	; 0x251
                    // change to Tx mode
                    *(i2c->C1) = I2C_C1_IICEN | I2C_C1_MST | I2C_C1_TX;
    1dba:	6883      	ldr	r3, [r0, #8]
    1dbc:	22b0      	movs	r2, #176	; 0xb0
    1dbe:	701a      	strb	r2, [r3, #0]
                    // grab last data
                    i2c->rxBufferLength = i2c->reqCount-1;
    1dc0:	f8d0 3254 	ldr.w	r3, [r0, #596]	; 0x254
    1dc4:	3b01      	subs	r3, #1
    1dc6:	f8c0 3138 	str.w	r3, [r0, #312]	; 0x138
                    i2c->rxBuffer[i2c->rxBufferLength++] = *(i2c->D);
    1dca:	f8d0 3138 	ldr.w	r3, [r0, #312]	; 0x138
    1dce:	1c5a      	adds	r2, r3, #1
    1dd0:	f8c0 2138 	str.w	r2, [r0, #312]	; 0x138
    1dd4:	6902      	ldr	r2, [r0, #16]
    1dd6:	7812      	ldrb	r2, [r2, #0]
    1dd8:	4403      	add	r3, r0
    1dda:	f883 2030 	strb.w	r2, [r3, #48]	; 0x30
                    if(i2c->currentStop == I2C_STOP) // NAK then STOP
    1dde:	f890 3250 	ldrb.w	r3, [r0, #592]	; 0x250
    1de2:	2b01      	cmp	r3, #1
    1de4:	d11c      	bne.n	1e20 <L_3900_delayMicroseconds+0x38>
    1de6:	2310      	movs	r3, #16

00001de8 <L_3900_delayMicroseconds>:
    1de8:	3b01      	subs	r3, #1
    1dea:	d1fd      	bne.n	1de8 <L_3900_delayMicroseconds>
                    {
                        delayMicroseconds(1); // empirical patch, lets things settle before issuing STOP
                        *(i2c->C1) = I2C_C1_IICEN; // send STOP, change to Rx mode, intr disabled
    1dec:	6883      	ldr	r3, [r0, #8]
    1dee:	2280      	movs	r2, #128	; 0x80
    1df0:	701a      	strb	r2, [r3, #0]
    1df2:	e015      	b.n	1e20 <L_3900_delayMicroseconds+0x38>
	}
	bool error(void) {
		if (DMA_ERR & (1<<channel)) return true;
    1df4:	4b20      	ldr	r3, [pc, #128]	; (1e78 <L_3900_delayMicroseconds+0x90>)
    1df6:	6819      	ldr	r1, [r3, #0]
    1df8:	7912      	ldrb	r2, [r2, #4]
                    }
                    // else NAK no STOP
                }
                else if(i2c->DMA->error()) // not sure what would cause this...
    1dfa:	2301      	movs	r3, #1
    1dfc:	4093      	lsls	r3, r2
    1dfe:	420b      	tst	r3, r1
    1e00:	d00e      	beq.n	1e20 <L_3900_delayMicroseconds+0x38>
		return false;
	}
	void clearError(void) {
		DMA_CERR = channel;
    1e02:	4b1f      	ldr	r3, [pc, #124]	; (1e80 <L_3900_delayMicroseconds+0x98>)
    1e04:	701a      	strb	r2, [r3, #0]
	void detachInterrupt(void) {
		NVIC_DISABLE_IRQ(IRQ_DMA_CH0 + channel);
	}

	void clearInterrupt(void) {
		DMA_CINT = channel;
    1e06:	f8d0 3264 	ldr.w	r3, [r0, #612]	; 0x264
    1e0a:	791a      	ldrb	r2, [r3, #4]
    1e0c:	4b1b      	ldr	r3, [pc, #108]	; (1e7c <L_3900_delayMicroseconds+0x94>)
    1e0e:	701a      	strb	r2, [r3, #0]
                {
                    i2c->DMA->clearError();
                    i2c->DMA->clearInterrupt();
                    i2c->activeDMA = I2C_DMA_OFF;
    1e10:	2300      	movs	r3, #0
    1e12:	f880 325a 	strb.w	r3, [r0, #602]	; 0x25a
                    i2c->currentStatus = I2C_WAITING;
    1e16:	f880 3251 	strb.w	r3, [r0, #593]	; 0x251
                    *(i2c->C1) = I2C_C1_IICEN; // change to Rx mode, intr disabled, DMA disabled
    1e1a:	6883      	ldr	r3, [r0, #8]
    1e1c:	2280      	movs	r2, #128	; 0x80
    1e1e:	701a      	strb	r2, [r3, #0]
                }
                *(i2c->S) = I2C_S_IICIF; // clear intr
    1e20:	68c3      	ldr	r3, [r0, #12]
    1e22:	2202      	movs	r2, #2
    1e24:	701a      	strb	r2, [r3, #0]
                return;
    1e26:	bd38      	pop	{r3, r4, r5, pc}
            }
            else
            {
                // check if 2nd to last byte or timeout
                if((i2c->rxBufferLength+2) == i2c->reqCount || (i2c->currentStatus == I2C_TIMEOUT && !i2c->timeoutRxNAK))
    1e28:	f8d0 3138 	ldr.w	r3, [r0, #312]	; 0x138
    1e2c:	3302      	adds	r3, #2
    1e2e:	f8d0 2254 	ldr.w	r2, [r0, #596]	; 0x254
    1e32:	4293      	cmp	r3, r2
    1e34:	f000 8143 	beq.w	20be <L_4039_delayMicroseconds+0x20c>
    1e38:	f890 3251 	ldrb.w	r3, [r0, #593]	; 0x251
    1e3c:	b2db      	uxtb	r3, r3
    1e3e:	2b04      	cmp	r3, #4
    1e40:	d104      	bne.n	1e4c <L_3900_delayMicroseconds+0x64>
    1e42:	f890 3259 	ldrb.w	r3, [r0, #601]	; 0x259
    1e46:	2b00      	cmp	r3, #0
    1e48:	f000 8139 	beq.w	20be <L_4039_delayMicroseconds+0x20c>
                {
                    *(i2c->C1) = I2C_C1_IICEN | I2C_C1_IICIE | I2C_C1_MST | I2C_C1_TXAK; // no STOP, Rx, NAK on recv
                }
                // if last byte or timeout send STOP
                if((i2c->rxBufferLength+1) >= i2c->reqCount || (i2c->currentStatus == I2C_TIMEOUT && i2c->timeoutRxNAK))
    1e4c:	f8d0 3138 	ldr.w	r3, [r0, #312]	; 0x138
    1e50:	3301      	adds	r3, #1
    1e52:	f8d0 2254 	ldr.w	r2, [r0, #596]	; 0x254
    1e56:	4293      	cmp	r3, r2
    1e58:	f080 813f 	bcs.w	20da <L_4039_delayMicroseconds+0x228>
    1e5c:	f890 3251 	ldrb.w	r3, [r0, #593]	; 0x251
    1e60:	b2db      	uxtb	r3, r3
    1e62:	2b04      	cmp	r3, #4
    1e64:	f040 812e 	bne.w	20c4 <L_4039_delayMicroseconds+0x212>
    1e68:	f890 3259 	ldrb.w	r3, [r0, #601]	; 0x259
    1e6c:	2b00      	cmp	r3, #0
    1e6e:	f040 8134 	bne.w	20da <L_4039_delayMicroseconds+0x228>
    1e72:	e127      	b.n	20c4 <L_4039_delayMicroseconds+0x212>
    1e74:	4000801c 	.word	0x4000801c
    1e78:	4000802c 	.word	0x4000802c
    1e7c:	4000801f 	.word	0x4000801f
    1e80:	4000801e 	.word	0x4000801e
    1e84:	4000801b 	.word	0x4000801b
                {
                    i2c->timeoutRxNAK = 0; // clear flag
                    if(i2c->currentStatus != I2C_TIMEOUT)
                        i2c->currentStatus = I2C_WAITING; // Rx complete, change to waiting state
    1e88:	2300      	movs	r3, #0
    1e8a:	f880 3251 	strb.w	r3, [r0, #593]	; 0x251
                    // change to Tx mode
                    *(i2c->C1) = I2C_C1_IICEN | I2C_C1_MST | I2C_C1_TX;
    1e8e:	6883      	ldr	r3, [r0, #8]
    1e90:	22b0      	movs	r2, #176	; 0xb0
    1e92:	701a      	strb	r2, [r3, #0]
                    // grab last data
                    i2c->rxBuffer[i2c->rxBufferLength++] = *(i2c->D);
    1e94:	f8d0 3138 	ldr.w	r3, [r0, #312]	; 0x138
    1e98:	1c5a      	adds	r2, r3, #1
    1e9a:	f8c0 2138 	str.w	r2, [r0, #312]	; 0x138
    1e9e:	6902      	ldr	r2, [r0, #16]
    1ea0:	7812      	ldrb	r2, [r2, #0]
    1ea2:	4403      	add	r3, r0
    1ea4:	f883 2030 	strb.w	r2, [r3, #48]	; 0x30
                    if(i2c->currentStop == I2C_STOP) // NAK then STOP
    1ea8:	f890 3250 	ldrb.w	r3, [r0, #592]	; 0x250
    1eac:	2b01      	cmp	r3, #1
    1eae:	d105      	bne.n	1ebc <L_4039_delayMicroseconds+0xa>
    1eb0:	2310      	movs	r3, #16

00001eb2 <L_4039_delayMicroseconds>:
    1eb2:	3b01      	subs	r3, #1
    1eb4:	d1fd      	bne.n	1eb2 <L_4039_delayMicroseconds>
                    {
                        delayMicroseconds(1); // empirical patch, lets things settle before issuing STOP
                        *(i2c->C1) = I2C_C1_IICEN; // send STOP, change to Rx mode, intr disabled
    1eb6:	6883      	ldr	r3, [r0, #8]
    1eb8:	2280      	movs	r2, #128	; 0x80
    1eba:	701a      	strb	r2, [r3, #0]
                else
                {
                    // grab next data, not last byte, will ACK
                    i2c->rxBuffer[i2c->rxBufferLength++] = *(i2c->D);
                }
                if(i2c->currentStatus == I2C_TIMEOUT && !i2c->timeoutRxNAK)
    1ebc:	f890 3251 	ldrb.w	r3, [r0, #593]	; 0x251
    1ec0:	b2db      	uxtb	r3, r3
    1ec2:	2b04      	cmp	r3, #4
    1ec4:	d104      	bne.n	1ed0 <L_4039_delayMicroseconds+0x1e>
    1ec6:	f890 3259 	ldrb.w	r3, [r0, #601]	; 0x259
    1eca:	2b00      	cmp	r3, #0
    1ecc:	f000 810f 	beq.w	20ee <L_4039_delayMicroseconds+0x23c>
                    i2c->timeoutRxNAK = 1; // set flag to indicate NAK sent
                *(i2c->S) = I2C_S_IICIF; // clear intr
    1ed0:	68c3      	ldr	r3, [r0, #12]
    1ed2:	2202      	movs	r2, #2
    1ed4:	701a      	strb	r2, [r3, #0]
                return;
    1ed6:	bd38      	pop	{r3, r4, r5, pc}
    1ed8:	4604      	mov	r4, r0
    else
    {
        //
        // Slave Mode
        //
        if(status & I2C_S_ARBL)
    1eda:	f015 0f10 	tst.w	r5, #16
    1ede:	d008      	beq.n	1ef2 <L_4039_delayMicroseconds+0x40>
        {
            // Arbitration Lost
            *(i2c->S) = I2C_S_ARBL; // clear arbl flag
    1ee0:	2310      	movs	r3, #16
    1ee2:	7013      	strb	r3, [r2, #0]
            if(!(status & I2C_S_IAAS))
    1ee4:	f015 0f40 	tst.w	r5, #64	; 0x40
    1ee8:	d106      	bne.n	1ef8 <L_4039_delayMicroseconds+0x46>
            {
                #if defined(__MKL26Z64__) || defined(__MK64FX512__) || defined(__MK66FX1M0__) // LC/3.5/3.6
                    *(i2c->FLT) = flt;   // clear STOP/START intr
                #endif
                *(i2c->S) = I2C_S_IICIF; // clear intr
    1eea:	68c3      	ldr	r3, [r0, #12]
    1eec:	2202      	movs	r2, #2
    1eee:	701a      	strb	r2, [r3, #0]
                return;
    1ef0:	bd38      	pop	{r3, r4, r5, pc}
            }
        }
        if(status & I2C_S_IAAS)
    1ef2:	f015 0f40 	tst.w	r5, #64	; 0x40
    1ef6:	d060      	beq.n	1fba <L_4039_delayMicroseconds+0x108>
        {
            // If in Slave Rx already, then RepSTART occured, run callback
            if(i2c->currentStatus == I2C_SLAVE_RX && i2c->user_onReceive != nullptr)
    1ef8:	f894 3251 	ldrb.w	r3, [r4, #593]	; 0x251
    1efc:	b2db      	uxtb	r3, r3
    1efe:	2b0a      	cmp	r3, #10
    1f00:	d104      	bne.n	1f0c <L_4039_delayMicroseconds+0x5a>
    1f02:	f8d4 325c 	ldr.w	r3, [r4, #604]	; 0x25c
    1f06:	2b00      	cmp	r3, #0
    1f08:	f040 80f5 	bne.w	20f6 <L_4039_delayMicroseconds+0x244>
            {
                i2c->rxBufferIndex = 0;
                i2c->user_onReceive(i2c->rxBufferLength);
            }
            // Is Addressed As Slave
            if(status & I2C_S_SRW)
    1f0c:	f015 0f04 	tst.w	r5, #4
    1f10:	d01e      	beq.n	1f50 <L_4039_delayMicroseconds+0x9e>
            {
                // Addressed Slave Transmit
                //
                i2c->currentStatus = I2C_SLAVE_TX;
    1f12:	2309      	movs	r3, #9
    1f14:	f884 3251 	strb.w	r3, [r4, #593]	; 0x251
                i2c->txBufferLength = 0;
    1f18:	2300      	movs	r3, #0
    1f1a:	f8c4 3244 	str.w	r3, [r4, #580]	; 0x244
                *(i2c->C1) = I2C_C1_IICEN | I2C_C1_IICIE | I2C_C1_TX;
    1f1e:	68a3      	ldr	r3, [r4, #8]
    1f20:	22d0      	movs	r2, #208	; 0xd0
    1f22:	701a      	strb	r2, [r3, #0]
                i2c->rxAddr = (*(i2c->D) >> 1); // read to get target addr
    1f24:	6923      	ldr	r3, [r4, #16]
    1f26:	781b      	ldrb	r3, [r3, #0]
    1f28:	085b      	lsrs	r3, r3, #1
    1f2a:	f884 3252 	strb.w	r3, [r4, #594]	; 0x252
                if(i2c->user_onRequest != nullptr)
    1f2e:	f8d4 3260 	ldr.w	r3, [r4, #608]	; 0x260
    1f32:	b103      	cbz	r3, 1f36 <L_4039_delayMicroseconds+0x84>
                    i2c->user_onRequest(); // load Tx buffer with data
    1f34:	4798      	blx	r3
                if(i2c->txBufferLength == 0)
    1f36:	f8d4 3244 	ldr.w	r3, [r4, #580]	; 0x244
    1f3a:	b90b      	cbnz	r3, 1f40 <L_4039_delayMicroseconds+0x8e>
                    i2c->txBuffer[0] = 0; // send 0's if buffer empty
    1f3c:	f884 313c 	strb.w	r3, [r4, #316]	; 0x13c
                *(i2c->D) = i2c->txBuffer[0]; // send first data
    1f40:	6923      	ldr	r3, [r4, #16]
    1f42:	f894 213c 	ldrb.w	r2, [r4, #316]	; 0x13c
    1f46:	701a      	strb	r2, [r3, #0]
                i2c->txBufferIndex = 1;
    1f48:	2301      	movs	r3, #1
    1f4a:	f8c4 3240 	str.w	r3, [r4, #576]	; 0x240
    1f4e:	e030      	b.n	1fb2 <L_4039_delayMicroseconds+0x100>
            {
                // Addressed Slave Receive
                //
                // setup SDA-rising ISR - required for STOP detection in Slave Rx mode for 3.0/3.1/3.2
                #if defined(__MK20DX128__) || defined(__MK20DX256__) // 3.0/3.1/3.2
                    i2c->irqCount = 0;
    1f50:	2300      	movs	r3, #0
    1f52:	f884 3258 	strb.w	r3, [r4, #600]	; 0x258
                    if(i2c->currentPins == I2C_PINS_18_19)
    1f56:	f894 324a 	ldrb.w	r3, [r4, #586]	; 0x24a
    1f5a:	2b01      	cmp	r3, #1
    1f5c:	d105      	bne.n	1f6a <L_4039_delayMicroseconds+0xb8>
                        attachInterrupt(18, i2c_t3::sda0_rising_isr, RISING);
    1f5e:	2203      	movs	r2, #3
    1f60:	4968      	ldr	r1, [pc, #416]	; (2104 <L_4039_delayMicroseconds+0x252>)
    1f62:	2012      	movs	r0, #18
    1f64:	f000 fa98 	bl	2498 <attachInterrupt>
    1f68:	e015      	b.n	1f96 <L_4039_delayMicroseconds+0xe4>
                    else if(i2c->currentPins == I2C_PINS_16_17)
    1f6a:	b92b      	cbnz	r3, 1f78 <L_4039_delayMicroseconds+0xc6>
                        attachInterrupt(17, i2c_t3::sda0_rising_isr, RISING);
    1f6c:	2203      	movs	r2, #3
    1f6e:	4965      	ldr	r1, [pc, #404]	; (2104 <L_4039_delayMicroseconds+0x252>)
    1f70:	2011      	movs	r0, #17
    1f72:	f000 fa91 	bl	2498 <attachInterrupt>
    1f76:	e00e      	b.n	1f96 <L_4039_delayMicroseconds+0xe4>
                    #if I2C_BUS_NUM >= 2
                    else if(i2c->currentPins == I2C_PINS_29_30)
    1f78:	2b02      	cmp	r3, #2
    1f7a:	d105      	bne.n	1f88 <L_4039_delayMicroseconds+0xd6>
                        attachInterrupt(30, i2c_t3::sda1_rising_isr, RISING);
    1f7c:	2203      	movs	r2, #3
    1f7e:	4962      	ldr	r1, [pc, #392]	; (2108 <L_4039_delayMicroseconds+0x256>)
    1f80:	201e      	movs	r0, #30
    1f82:	f000 fa89 	bl	2498 <attachInterrupt>
    1f86:	e006      	b.n	1f96 <L_4039_delayMicroseconds+0xe4>
                    else if(i2c->currentPins == I2C_PINS_26_31)
    1f88:	2b03      	cmp	r3, #3
    1f8a:	d104      	bne.n	1f96 <L_4039_delayMicroseconds+0xe4>
                        attachInterrupt(31, i2c_t3::sda1_rising_isr, RISING);
    1f8c:	2203      	movs	r2, #3
    1f8e:	495e      	ldr	r1, [pc, #376]	; (2108 <L_4039_delayMicroseconds+0x256>)
    1f90:	201f      	movs	r0, #31
    1f92:	f000 fa81 	bl	2498 <attachInterrupt>
                    #endif
                #elif defined(__MKL26Z64__) || defined(__MK64FX512__) || defined(__MK66FX1M0__)
                    *(i2c->FLT) |= I2C_FLT_SSIE; // enable START/STOP intr for LC/3.5/3.6
                #endif
                i2c->currentStatus = I2C_SLAVE_RX;
    1f96:	230a      	movs	r3, #10
    1f98:	f884 3251 	strb.w	r3, [r4, #593]	; 0x251
                i2c->rxBufferLength = 0;
    1f9c:	2300      	movs	r3, #0
    1f9e:	f8c4 3138 	str.w	r3, [r4, #312]	; 0x138
                *(i2c->C1) = I2C_C1_IICEN | I2C_C1_IICIE;
    1fa2:	68a3      	ldr	r3, [r4, #8]
    1fa4:	22c0      	movs	r2, #192	; 0xc0
    1fa6:	701a      	strb	r2, [r3, #0]
                i2c->rxAddr = (*(i2c->D) >> 1); // read to get target addr
    1fa8:	6923      	ldr	r3, [r4, #16]
    1faa:	781b      	ldrb	r3, [r3, #0]
    1fac:	085b      	lsrs	r3, r3, #1
    1fae:	f884 3252 	strb.w	r3, [r4, #594]	; 0x252
            }
            #if defined(__MKL26Z64__) || defined(__MK64FX512__) || defined(__MK66FX1M0__) // LC/3.5/3.6
                *(i2c->FLT) = flt;   // clear STOP/START intr
            #endif
            *(i2c->S) = I2C_S_IICIF; // clear intr
    1fb2:	68e3      	ldr	r3, [r4, #12]
    1fb4:	2202      	movs	r2, #2
    1fb6:	701a      	strb	r2, [r3, #0]
            return;
    1fb8:	bd38      	pop	{r3, r4, r5, pc}
        }
        if(c1 & I2C_C1_TX)
    1fba:	f013 0f10 	tst.w	r3, #16
    1fbe:	d020      	beq.n	2002 <L_4039_delayMicroseconds+0x150>
        {
            // Continue Slave Transmit
            if((status & I2C_S_RXAK) == 0)
    1fc0:	f015 0f01 	tst.w	r5, #1
    1fc4:	d115      	bne.n	1ff2 <L_4039_delayMicroseconds+0x140>
            {
                // Master ACK'd previous byte
                if(i2c->txBufferIndex < i2c->txBufferLength)
    1fc6:	f8d0 2240 	ldr.w	r2, [r0, #576]	; 0x240
    1fca:	f8d0 3244 	ldr.w	r3, [r0, #580]	; 0x244
    1fce:	429a      	cmp	r2, r3
    1fd0:	d208      	bcs.n	1fe4 <L_4039_delayMicroseconds+0x132>
                    data = i2c->txBuffer[i2c->txBufferIndex++];
    1fd2:	f8d0 3240 	ldr.w	r3, [r0, #576]	; 0x240
    1fd6:	1c5a      	adds	r2, r3, #1
    1fd8:	f8c0 2240 	str.w	r2, [r0, #576]	; 0x240
    1fdc:	4403      	add	r3, r0
    1fde:	f893 213c 	ldrb.w	r2, [r3, #316]	; 0x13c
    1fe2:	e000      	b.n	1fe6 <L_4039_delayMicroseconds+0x134>
                else
                    data = 0; // send 0's if buffer empty
    1fe4:	2200      	movs	r2, #0
                *(i2c->D) = data;
    1fe6:	6923      	ldr	r3, [r4, #16]
    1fe8:	701a      	strb	r2, [r3, #0]
                *(i2c->C1) = I2C_C1_IICEN | I2C_C1_IICIE | I2C_C1_TX;
    1fea:	68a3      	ldr	r3, [r4, #8]
    1fec:	22d0      	movs	r2, #208	; 0xd0
    1fee:	701a      	strb	r2, [r3, #0]
    1ff0:	e03f      	b.n	2072 <L_4039_delayMicroseconds+0x1c0>
            }
            else
            {
                // Master did not ACK previous byte
                *(i2c->C1) = I2C_C1_IICEN | I2C_C1_IICIE; // switch to Rx mode
    1ff2:	23c0      	movs	r3, #192	; 0xc0
    1ff4:	700b      	strb	r3, [r1, #0]
                data = *(i2c->D); // dummy read
    1ff6:	6903      	ldr	r3, [r0, #16]
    1ff8:	781b      	ldrb	r3, [r3, #0]
                i2c->currentStatus = I2C_WAITING;
    1ffa:	2300      	movs	r3, #0
    1ffc:	f880 3251 	strb.w	r3, [r0, #593]	; 0x251
    2000:	e037      	b.n	2072 <L_4039_delayMicroseconds+0x1c0>
            }
        }
        else if(i2c->currentStatus == I2C_SLAVE_RX)
    2002:	f890 3251 	ldrb.w	r3, [r0, #593]	; 0x251
    2006:	b2db      	uxtb	r3, r3
    2008:	2b0a      	cmp	r3, #10
    200a:	d132      	bne.n	2072 <L_4039_delayMicroseconds+0x1c0>
            #endif
            // Continue Slave Receive
            //
            // setup SDA-rising ISR - required for STOP detection in Slave Rx mode for 3.0/3.1/3.2
            #if defined(__MK20DX128__) || defined(__MK20DX256__) // 3.0/3.1
                i2c->irqCount = 0;
    200c:	2300      	movs	r3, #0
    200e:	f880 3258 	strb.w	r3, [r0, #600]	; 0x258
                if(i2c->currentPins == I2C_PINS_18_19)
    2012:	f890 324a 	ldrb.w	r3, [r0, #586]	; 0x24a
    2016:	2b01      	cmp	r3, #1
    2018:	d105      	bne.n	2026 <L_4039_delayMicroseconds+0x174>
                    attachInterrupt(18, i2c_t3::sda0_rising_isr, RISING);
    201a:	2203      	movs	r2, #3
    201c:	4939      	ldr	r1, [pc, #228]	; (2104 <L_4039_delayMicroseconds+0x252>)
    201e:	2012      	movs	r0, #18
    2020:	f000 fa3a 	bl	2498 <attachInterrupt>
    2024:	e015      	b.n	2052 <L_4039_delayMicroseconds+0x1a0>
                else if(i2c->currentPins == I2C_PINS_16_17)
    2026:	b92b      	cbnz	r3, 2034 <L_4039_delayMicroseconds+0x182>
                    attachInterrupt(17, i2c_t3::sda0_rising_isr, RISING);
    2028:	2203      	movs	r2, #3
    202a:	4936      	ldr	r1, [pc, #216]	; (2104 <L_4039_delayMicroseconds+0x252>)
    202c:	2011      	movs	r0, #17
    202e:	f000 fa33 	bl	2498 <attachInterrupt>
    2032:	e00e      	b.n	2052 <L_4039_delayMicroseconds+0x1a0>
                #if I2C_BUS_NUM >= 2
                else if(i2c->currentPins == I2C_PINS_29_30)
    2034:	2b02      	cmp	r3, #2
    2036:	d105      	bne.n	2044 <L_4039_delayMicroseconds+0x192>
                    attachInterrupt(30, i2c_t3::sda1_rising_isr, RISING);
    2038:	2203      	movs	r2, #3
    203a:	4933      	ldr	r1, [pc, #204]	; (2108 <L_4039_delayMicroseconds+0x256>)
    203c:	201e      	movs	r0, #30
    203e:	f000 fa2b 	bl	2498 <attachInterrupt>
    2042:	e006      	b.n	2052 <L_4039_delayMicroseconds+0x1a0>
                else if(i2c->currentPins == I2C_PINS_26_31)
    2044:	2b03      	cmp	r3, #3
    2046:	d104      	bne.n	2052 <L_4039_delayMicroseconds+0x1a0>
                    attachInterrupt(31, i2c_t3::sda1_rising_isr, RISING);
    2048:	2203      	movs	r2, #3
    204a:	492f      	ldr	r1, [pc, #188]	; (2108 <L_4039_delayMicroseconds+0x256>)
    204c:	201f      	movs	r0, #31
    204e:	f000 fa23 	bl	2498 <attachInterrupt>
                #endif
            #endif
            data = *(i2c->D);
    2052:	6923      	ldr	r3, [r4, #16]
    2054:	781b      	ldrb	r3, [r3, #0]
    2056:	b2db      	uxtb	r3, r3
            if(i2c->rxBufferLength < I2C_RX_BUFFER_LENGTH)
    2058:	f8d4 2138 	ldr.w	r2, [r4, #312]	; 0x138
    205c:	f5b2 7f81 	cmp.w	r2, #258	; 0x102
    2060:	d807      	bhi.n	2072 <L_4039_delayMicroseconds+0x1c0>
                i2c->rxBuffer[i2c->rxBufferLength++] = data;
    2062:	f8d4 2138 	ldr.w	r2, [r4, #312]	; 0x138
    2066:	1c51      	adds	r1, r2, #1
    2068:	f8c4 1138 	str.w	r1, [r4, #312]	; 0x138
    206c:	4422      	add	r2, r4
    206e:	f882 3030 	strb.w	r3, [r2, #48]	; 0x30
        }
        #if defined(__MKL26Z64__) || defined(__MK64FX512__) || defined(__MK66FX1M0__) // LC/3.5/3.6
            *(i2c->FLT) = flt;   // clear STOP/START intr
        #endif
        *(i2c->S) = I2C_S_IICIF; // clear intr
    2072:	68e3      	ldr	r3, [r4, #12]
    2074:	2202      	movs	r2, #2
    2076:	701a      	strb	r2, [r3, #0]
    2078:	bd38      	pop	{r3, r4, r5, pc}
    207a:	790a      	ldrb	r2, [r1, #4]
    207c:	4b23      	ldr	r3, [pc, #140]	; (210c <L_4039_delayMicroseconds+0x25a>)
    207e:	701a      	strb	r2, [r3, #0]
            {
                if(i2c->DMA->complete() && i2c->activeDMA == I2C_DMA_BULK)
                {
                    // clear DMA interrupt, final byte should trigger another ISR
                    i2c->DMA->clearInterrupt();
                    *(i2c->C1) = I2C_C1_IICEN | I2C_C1_IICIE | I2C_C1_MST | I2C_C1_TX; // intr en, Tx mode, DMA disabled
    2080:	6883      	ldr	r3, [r0, #8]
    2082:	22f0      	movs	r2, #240	; 0xf0
    2084:	701a      	strb	r2, [r3, #0]
                    // DMA says complete at the beginning of its last byte, need to
                    // wait until end of its last byte to re-engage ISR
                    i2c->activeDMA = I2C_DMA_LAST;
    2086:	2303      	movs	r3, #3
    2088:	f880 325a 	strb.w	r3, [r0, #602]	; 0x25a
    208c:	e5ba      	b.n	1c04 <i2c_isr_handler+0xc4>
                }
                else if(i2c->activeDMA == I2C_DMA_LAST)
    208e:	f890 325a 	ldrb.w	r3, [r0, #602]	; 0x25a
    2092:	b2db      	uxtb	r3, r3
    2094:	2b03      	cmp	r3, #3
    2096:	f47f ad94 	bne.w	1bc2 <i2c_isr_handler+0x82>
    209a:	e57b      	b.n	1b94 <i2c_isr_handler+0x54>
    209c:	7912      	ldrb	r2, [r2, #4]
    209e:	4b1b      	ldr	r3, [pc, #108]	; (210c <L_4039_delayMicroseconds+0x25a>)
    20a0:	701a      	strb	r2, [r3, #0]
            {
                if(i2c->DMA->complete() && i2c->activeDMA == I2C_DMA_BULK) // 2nd to last byte
                {
                    // clear DMA interrupt, final byte should trigger another ISR
                    i2c->DMA->clearInterrupt();
                    *(i2c->C1) = I2C_C1_IICEN | I2C_C1_IICIE | I2C_C1_MST | I2C_C1_TXAK; // intr en, Rx mode, DMA disabled, NAK on recv
    20a2:	6883      	ldr	r3, [r0, #8]
    20a4:	22e8      	movs	r2, #232	; 0xe8
    20a6:	701a      	strb	r2, [r3, #0]
                    i2c->activeDMA = I2C_DMA_LAST;
    20a8:	2303      	movs	r3, #3
    20aa:	f880 325a 	strb.w	r3, [r0, #602]	; 0x25a
    20ae:	e6b7      	b.n	1e20 <L_3900_delayMicroseconds+0x38>
                }
                else if(i2c->activeDMA == I2C_DMA_LAST) // last byte
    20b0:	f890 325a 	ldrb.w	r3, [r0, #602]	; 0x25a
    20b4:	b2db      	uxtb	r3, r3
    20b6:	2b03      	cmp	r3, #3
    20b8:	f47f ae9c 	bne.w	1df4 <L_3900_delayMicroseconds+0xc>
    20bc:	e66f      	b.n	1d9e <i2c_isr_handler+0x25e>
            else
            {
                // check if 2nd to last byte or timeout
                if((i2c->rxBufferLength+2) == i2c->reqCount || (i2c->currentStatus == I2C_TIMEOUT && !i2c->timeoutRxNAK))
                {
                    *(i2c->C1) = I2C_C1_IICEN | I2C_C1_IICIE | I2C_C1_MST | I2C_C1_TXAK; // no STOP, Rx, NAK on recv
    20be:	23e8      	movs	r3, #232	; 0xe8
    20c0:	700b      	strb	r3, [r1, #0]
    20c2:	e6c3      	b.n	1e4c <L_3900_delayMicroseconds+0x64>
                    // else NAK no STOP
                }
                else
                {
                    // grab next data, not last byte, will ACK
                    i2c->rxBuffer[i2c->rxBufferLength++] = *(i2c->D);
    20c4:	f8d0 3138 	ldr.w	r3, [r0, #312]	; 0x138
    20c8:	1c5a      	adds	r2, r3, #1
    20ca:	f8c0 2138 	str.w	r2, [r0, #312]	; 0x138
    20ce:	6902      	ldr	r2, [r0, #16]
    20d0:	7812      	ldrb	r2, [r2, #0]
    20d2:	4403      	add	r3, r0
    20d4:	f883 2030 	strb.w	r2, [r3, #48]	; 0x30
    20d8:	e6f0      	b.n	1ebc <L_4039_delayMicroseconds+0xa>
                    *(i2c->C1) = I2C_C1_IICEN | I2C_C1_IICIE | I2C_C1_MST | I2C_C1_TXAK; // no STOP, Rx, NAK on recv
                }
                // if last byte or timeout send STOP
                if((i2c->rxBufferLength+1) >= i2c->reqCount || (i2c->currentStatus == I2C_TIMEOUT && i2c->timeoutRxNAK))
                {
                    i2c->timeoutRxNAK = 0; // clear flag
    20da:	2300      	movs	r3, #0
    20dc:	f880 3259 	strb.w	r3, [r0, #601]	; 0x259
                    if(i2c->currentStatus != I2C_TIMEOUT)
    20e0:	f890 3251 	ldrb.w	r3, [r0, #593]	; 0x251
    20e4:	b2db      	uxtb	r3, r3
    20e6:	2b04      	cmp	r3, #4
    20e8:	f47f aece 	bne.w	1e88 <L_3900_delayMicroseconds+0xa0>
    20ec:	e6cf      	b.n	1e8e <L_3900_delayMicroseconds+0xa6>
                {
                    // grab next data, not last byte, will ACK
                    i2c->rxBuffer[i2c->rxBufferLength++] = *(i2c->D);
                }
                if(i2c->currentStatus == I2C_TIMEOUT && !i2c->timeoutRxNAK)
                    i2c->timeoutRxNAK = 1; // set flag to indicate NAK sent
    20ee:	2301      	movs	r3, #1
    20f0:	f880 3259 	strb.w	r3, [r0, #601]	; 0x259
    20f4:	e6ec      	b.n	1ed0 <L_4039_delayMicroseconds+0x1e>
        if(status & I2C_S_IAAS)
        {
            // If in Slave Rx already, then RepSTART occured, run callback
            if(i2c->currentStatus == I2C_SLAVE_RX && i2c->user_onReceive != nullptr)
            {
                i2c->rxBufferIndex = 0;
    20f6:	2200      	movs	r2, #0
    20f8:	f8c4 2134 	str.w	r2, [r4, #308]	; 0x134
                i2c->user_onReceive(i2c->rxBufferLength);
    20fc:	f8d4 0138 	ldr.w	r0, [r4, #312]	; 0x138
    2100:	4798      	blx	r3
    2102:	e703      	b.n	1f0c <L_4039_delayMicroseconds+0x5a>
    2104:	000021d5 	.word	0x000021d5
    2108:	000021e5 	.word	0x000021e5
    210c:	4000801f 	.word	0x4000801f

00002110 <i2c0_isr>:
// ------------------------------------------------------------------------------------------------------
// ======================================================================================================


void i2c0_isr(void) // I2C0 ISR
{
    2110:	b508      	push	{r3, lr}
    I2C0_INTR_FLAG_ON;
    i2c_isr_handler(&(i2c_t3::i2cData[0]),0);
    2112:	2100      	movs	r1, #0
    2114:	4801      	ldr	r0, [pc, #4]	; (211c <i2c0_isr+0xc>)
    2116:	f7ff fd13 	bl	1b40 <i2c_isr_handler>
    211a:	bd08      	pop	{r3, pc}
    211c:	1fff8800 	.word	0x1fff8800

00002120 <i2c1_isr>:
    I2C0_INTR_FLAG_OFF;
}
#if I2C_BUS_NUM >= 2
    void i2c1_isr(void) // I2C1 ISR
    {
    2120:	b508      	push	{r3, lr}
        I2C1_INTR_FLAG_ON;
        i2c_isr_handler(&(i2c_t3::i2cData[1]),1);
    2122:	2101      	movs	r1, #1
    2124:	4801      	ldr	r0, [pc, #4]	; (212c <i2c1_isr+0xc>)
    2126:	f7ff fd0b 	bl	1b40 <i2c_isr_handler>
    212a:	bd08      	pop	{r3, pc}
    212c:	1fff8a70 	.word	0x1fff8a70

00002130 <i2c_t3::sda_rising_isr_handler(i2cStruct*, unsigned char)>:

//
// SDA ISR base handler
//
void i2c_t3::sda_rising_isr_handler(struct i2cStruct* i2c, uint8_t bus)
{
    2130:	b510      	push	{r4, lr}
    2132:	4604      	mov	r4, r0
    uint8_t status = *(i2c->S); // capture status first, can change if ISR is too slow
    2134:	68c3      	ldr	r3, [r0, #12]
    2136:	781b      	ldrb	r3, [r3, #0]
    if(!(status & I2C_S_BUSY))
    2138:	f013 0f20 	tst.w	r3, #32
    213c:	d124      	bne.n	2188 <i2c_t3::sda_rising_isr_handler(i2cStruct*, unsigned char)+0x58>
    {
        i2c->currentStatus = I2C_WAITING;
    213e:	2300      	movs	r3, #0
    2140:	f880 3251 	strb.w	r3, [r0, #593]	; 0x251
        if(i2c->currentPins == I2C_PINS_18_19)
    2144:	f890 324a 	ldrb.w	r3, [r0, #586]	; 0x24a
    2148:	2b01      	cmp	r3, #1
    214a:	d103      	bne.n	2154 <i2c_t3::sda_rising_isr_handler(i2cStruct*, unsigned char)+0x24>
            detachInterrupt(18);
    214c:	2012      	movs	r0, #18
    214e:	f000 f8d7 	bl	2300 <detachInterrupt>
    2152:	e00f      	b.n	2174 <i2c_t3::sda_rising_isr_handler(i2cStruct*, unsigned char)+0x44>
        else if(i2c->currentPins == I2C_PINS_16_17)
    2154:	b91b      	cbnz	r3, 215e <i2c_t3::sda_rising_isr_handler(i2cStruct*, unsigned char)+0x2e>
            detachInterrupt(17);
    2156:	2011      	movs	r0, #17
    2158:	f000 f8d2 	bl	2300 <detachInterrupt>
    215c:	e00a      	b.n	2174 <i2c_t3::sda_rising_isr_handler(i2cStruct*, unsigned char)+0x44>
        #if I2C_BUS_NUM >= 2
        else if(i2c->currentPins == I2C_PINS_29_30)
    215e:	2b02      	cmp	r3, #2
    2160:	d103      	bne.n	216a <i2c_t3::sda_rising_isr_handler(i2cStruct*, unsigned char)+0x3a>
            detachInterrupt(30);
    2162:	201e      	movs	r0, #30
    2164:	f000 f8cc 	bl	2300 <detachInterrupt>
    2168:	e004      	b.n	2174 <i2c_t3::sda_rising_isr_handler(i2cStruct*, unsigned char)+0x44>
        else if(i2c->currentPins == I2C_PINS_26_31)
    216a:	2b03      	cmp	r3, #3
    216c:	d102      	bne.n	2174 <i2c_t3::sda_rising_isr_handler(i2cStruct*, unsigned char)+0x44>
            detachInterrupt(31);
    216e:	201f      	movs	r0, #31
    2170:	f000 f8c6 	bl	2300 <detachInterrupt>
        #endif
        if(i2c->user_onReceive != nullptr)
    2174:	f8d4 325c 	ldr.w	r3, [r4, #604]	; 0x25c
    2178:	b353      	cbz	r3, 21d0 <i2c_t3::sda_rising_isr_handler(i2cStruct*, unsigned char)+0xa0>
        {
            i2c->rxBufferIndex = 0;
    217a:	2200      	movs	r2, #0
    217c:	f8c4 2134 	str.w	r2, [r4, #308]	; 0x134
            i2c->user_onReceive(i2c->rxBufferLength);
    2180:	f8d4 0138 	ldr.w	r0, [r4, #312]	; 0x138
    2184:	4798      	blx	r3
    2186:	bd10      	pop	{r4, pc}
        }
    }
    else
    {
        if(++(i2c->irqCount) >= 2 || !(i2c->currentMode == I2C_SLAVE))
    2188:	f890 3258 	ldrb.w	r3, [r0, #600]	; 0x258
    218c:	3301      	adds	r3, #1
    218e:	b2db      	uxtb	r3, r3
    2190:	f880 3258 	strb.w	r3, [r0, #600]	; 0x258
    2194:	2b01      	cmp	r3, #1
    2196:	d803      	bhi.n	21a0 <i2c_t3::sda_rising_isr_handler(i2cStruct*, unsigned char)+0x70>
    2198:	f890 3249 	ldrb.w	r3, [r0, #585]	; 0x249
    219c:	2b01      	cmp	r3, #1
    219e:	d017      	beq.n	21d0 <i2c_t3::sda_rising_isr_handler(i2cStruct*, unsigned char)+0xa0>
        {
            if(i2c->currentPins == I2C_PINS_18_19)
    21a0:	f894 324a 	ldrb.w	r3, [r4, #586]	; 0x24a
    21a4:	2b01      	cmp	r3, #1
    21a6:	d103      	bne.n	21b0 <i2c_t3::sda_rising_isr_handler(i2cStruct*, unsigned char)+0x80>
                detachInterrupt(18);
    21a8:	2012      	movs	r0, #18
    21aa:	f000 f8a9 	bl	2300 <detachInterrupt>
    21ae:	bd10      	pop	{r4, pc}
            else if(i2c->currentPins == I2C_PINS_16_17)
    21b0:	b91b      	cbnz	r3, 21ba <i2c_t3::sda_rising_isr_handler(i2cStruct*, unsigned char)+0x8a>
                detachInterrupt(17);
    21b2:	2011      	movs	r0, #17
    21b4:	f000 f8a4 	bl	2300 <detachInterrupt>
    21b8:	bd10      	pop	{r4, pc}
            #if I2C_BUS_NUM >= 2
            else if(i2c->currentPins == I2C_PINS_29_30)
    21ba:	2b02      	cmp	r3, #2
    21bc:	d103      	bne.n	21c6 <i2c_t3::sda_rising_isr_handler(i2cStruct*, unsigned char)+0x96>
                detachInterrupt(30);
    21be:	201e      	movs	r0, #30
    21c0:	f000 f89e 	bl	2300 <detachInterrupt>
    21c4:	bd10      	pop	{r4, pc}
            else if(i2c->currentPins == I2C_PINS_26_31)
    21c6:	2b03      	cmp	r3, #3
    21c8:	d102      	bne.n	21d0 <i2c_t3::sda_rising_isr_handler(i2cStruct*, unsigned char)+0xa0>
                detachInterrupt(31);
    21ca:	201f      	movs	r0, #31
    21cc:	f000 f898 	bl	2300 <detachInterrupt>
    21d0:	bd10      	pop	{r4, pc}
    21d2:	bf00      	nop

000021d4 <i2c_t3::sda0_rising_isr()>:
// Detects the stop condition that terminates a slave receive transfer.
//

// I2C0 SDA ISR
void i2c_t3::sda0_rising_isr(void)
{
    21d4:	b508      	push	{r3, lr}
    i2c_t3::sda_rising_isr_handler(&(i2c_t3::i2cData[0]),0);
    21d6:	2100      	movs	r1, #0
    21d8:	4801      	ldr	r0, [pc, #4]	; (21e0 <i2c_t3::sda0_rising_isr()+0xc>)
    21da:	f7ff ffa9 	bl	2130 <i2c_t3::sda_rising_isr_handler(i2cStruct*, unsigned char)>
    21de:	bd08      	pop	{r3, pc}
    21e0:	1fff8800 	.word	0x1fff8800

000021e4 <i2c_t3::sda1_rising_isr()>:
}

#if I2C_BUS_NUM >= 2
    // I2C1 SDA ISR
    void i2c_t3::sda1_rising_isr(void)
    {
    21e4:	b508      	push	{r3, lr}
        i2c_t3::sda_rising_isr_handler(&(i2c_t3::i2cData[1]),1);
    21e6:	2101      	movs	r1, #1
    21e8:	4801      	ldr	r0, [pc, #4]	; (21f0 <i2c_t3::sda1_rising_isr()+0xc>)
    21ea:	f7ff ffa1 	bl	2130 <i2c_t3::sda_rising_isr_handler(i2cStruct*, unsigned char)>
    21ee:	bd08      	pop	{r3, pc}
    21f0:	1fff8a70 	.word	0x1fff8a70

000021f4 <_GLOBAL__sub_I__ZN6i2c_t37i2cDataE>:
// ------------------------------------------------------------------------------------------------------
// Instantiate
//
i2c_t3 Wire  = i2c_t3(0);       // I2C0
#if I2C_BUS_NUM >= 2
    i2c_t3 Wire1 = i2c_t3(1);   // I2C1
    21f4:	b570      	push	{r4, r5, r6, lr}
#endif // sda_rising_isr

// ------------------------------------------------------------------------------------------------------
// Instantiate
//
i2c_t3 Wire  = i2c_t3(0);       // I2C0
    21f6:	4c0b      	ldr	r4, [pc, #44]	; (2224 <_GLOBAL__sub_I__ZN6i2c_t37i2cDataE+0x30>)
    21f8:	2100      	movs	r1, #0
    21fa:	4620      	mov	r0, r4
    21fc:	f7fe fe16 	bl	e2c <i2c_t3::i2c_t3(unsigned char)>
    2200:	4e09      	ldr	r6, [pc, #36]	; (2228 <_GLOBAL__sub_I__ZN6i2c_t37i2cDataE+0x34>)
    2202:	4d0a      	ldr	r5, [pc, #40]	; (222c <_GLOBAL__sub_I__ZN6i2c_t37i2cDataE+0x38>)
    2204:	4632      	mov	r2, r6
    2206:	4629      	mov	r1, r5
    2208:	4620      	mov	r0, r4
    220a:	f002 faad 	bl	4768 <__aeabi_atexit>
#if I2C_BUS_NUM >= 2
    i2c_t3 Wire1 = i2c_t3(1);   // I2C1
    220e:	4c08      	ldr	r4, [pc, #32]	; (2230 <_GLOBAL__sub_I__ZN6i2c_t37i2cDataE+0x3c>)
    2210:	2101      	movs	r1, #1
    2212:	4620      	mov	r0, r4
    2214:	f7fe fe0a 	bl	e2c <i2c_t3::i2c_t3(unsigned char)>
    2218:	4632      	mov	r2, r6
    221a:	4629      	mov	r1, r5
    221c:	4620      	mov	r0, r4
    221e:	f002 faa3 	bl	4768 <__aeabi_atexit>
    2222:	bd70      	pop	{r4, r5, r6, pc}
    2224:	1fff98fc 	.word	0x1fff98fc
    2228:	1fff87fc 	.word	0x1fff87fc
    222c:	00000dfd 	.word	0x00000dfd
    2230:	1fff98e8 	.word	0x1fff98e8

00002234 <fault_isr>:
void _init_Teensyduino_internal_(void) __attribute__((noinline));
void __libc_init_array(void);


void fault_isr(void)
{
    2234:	b508      	push	{r3, lr}
        asm("ldr %0, [sp, #0]" : "=r" (addr) ::);
#endif
	while (1) {
		// keep polling some communication while in fault
		// mode, so we don't completely die.
		if (SIM_SCGC4 & SIM_SCGC4_USBOTG) usb_isr();
    2236:	4c0d      	ldr	r4, [pc, #52]	; (226c <fault_isr+0x38>)
    2238:	6823      	ldr	r3, [r4, #0]
    223a:	f413 2f80 	tst.w	r3, #262144	; 0x40000
    223e:	d001      	beq.n	2244 <fault_isr+0x10>
    2240:	f000 fb26 	bl	2890 <usb_isr>
		if (SIM_SCGC4 & SIM_SCGC4_UART0) uart0_status_isr();
    2244:	6823      	ldr	r3, [r4, #0]
    2246:	f413 6f80 	tst.w	r3, #1024	; 0x400
    224a:	d001      	beq.n	2250 <fault_isr+0x1c>
    224c:	f001 fb7e 	bl	394c <uart0_status_isr>
		if (SIM_SCGC4 & SIM_SCGC4_UART1) uart1_status_isr();
    2250:	6823      	ldr	r3, [r4, #0]
    2252:	f413 6f00 	tst.w	r3, #2048	; 0x800
    2256:	d001      	beq.n	225c <fault_isr+0x28>
    2258:	f001 fc1a 	bl	3a90 <uart1_status_isr>
		if (SIM_SCGC4 & SIM_SCGC4_UART2) uart2_status_isr();
    225c:	6823      	ldr	r3, [r4, #0]
    225e:	f413 5f80 	tst.w	r3, #4096	; 0x1000
    2262:	d0e9      	beq.n	2238 <fault_isr+0x4>
    2264:	f001 fcb6 	bl	3bd4 <uart2_status_isr>
    2268:	e7e6      	b.n	2238 <fault_isr+0x4>
    226a:	bf00      	nop
    226c:	40048034 	.word	0x40048034

00002270 <unused_isr>:
	}
}

void unused_isr(void)
{
    2270:	b508      	push	{r3, lr}
	fault_isr();
    2272:	f7ff ffdf 	bl	2234 <fault_isr>
    2276:	bf00      	nop

00002278 <startup_early_hook>:
extern void rtc_set(unsigned long t);


static void startup_default_early_hook(void) {
#if defined(KINETISK)
	WDOG_STCTRLH = WDOG_STCTRLH_ALLOWUPDATE;
    2278:	2210      	movs	r2, #16
    227a:	4b01      	ldr	r3, [pc, #4]	; (2280 <startup_early_hook+0x8>)
    227c:	801a      	strh	r2, [r3, #0]
    227e:	4770      	bx	lr
    2280:	40052000 	.word	0x40052000

00002284 <startup_late_hook>:
#elif defined(KINETISL)
	SIM_COPC = 0;  // disable the watchdog
#endif
}
static void startup_default_late_hook(void) {}
    2284:	4770      	bx	lr
    2286:	bf00      	nop

00002288 <_sbrk>:

#pragma GCC diagnostic push
#pragma GCC diagnostic ignored "-Wunused-parameter"

void * _sbrk(int incr)
{
    2288:	b508      	push	{r3, lr}
	char *prev, *stack;

	prev = __brkval;
    228a:	4b0b      	ldr	r3, [pc, #44]	; (22b8 <_sbrk+0x30>)
    228c:	681b      	ldr	r3, [r3, #0]
	if (incr != 0) {
    228e:	b180      	cbz	r0, 22b2 <_sbrk+0x2a>
		__asm__ volatile("mov %0, sp" : "=r" (stack) ::);
    2290:	466a      	mov	r2, sp
		if (prev + incr >= stack - STACK_MARGIN) {
    2292:	1818      	adds	r0, r3, r0
    2294:	f5a2 5280 	sub.w	r2, r2, #4096	; 0x1000
    2298:	4290      	cmp	r0, r2
    229a:	d306      	bcc.n	22aa <_sbrk+0x22>
			errno = ENOMEM;
    229c:	f002 fa70 	bl	4780 <__errno>
    22a0:	230c      	movs	r3, #12
    22a2:	6003      	str	r3, [r0, #0]
			return (void *)-1;
    22a4:	f04f 30ff 	mov.w	r0, #4294967295	; 0xffffffff
    22a8:	bd08      	pop	{r3, pc}
		}
		__brkval = prev + incr;
    22aa:	4a03      	ldr	r2, [pc, #12]	; (22b8 <_sbrk+0x30>)
    22ac:	6010      	str	r0, [r2, #0]
	}
	return prev;
    22ae:	4618      	mov	r0, r3
    22b0:	bd08      	pop	{r3, pc}
    22b2:	4618      	mov	r0, r3
}
    22b4:	bd08      	pop	{r3, pc}
    22b6:	bf00      	nop
    22b8:	1fff8ce0 	.word	0x1fff8ce0

000022bc <nvic_execution_priority>:
	uint32_t priority=256;
	uint32_t primask, faultmask, basepri, ipsr;

	// full algorithm in ARM DDI0403D, page B1-639
	// this isn't quite complete, but hopefully good enough
	__asm__ volatile("mrs %0, faultmask\n" : "=r" (faultmask)::);
    22bc:	f3ef 8313 	mrs	r3, FAULTMASK
	if (faultmask) return -1;
    22c0:	b9ab      	cbnz	r3, 22ee <nvic_execution_priority+0x32>
	__asm__ volatile("mrs %0, primask\n" : "=r" (primask)::);
    22c2:	f3ef 8310 	mrs	r3, PRIMASK
	if (primask) return 0;
    22c6:	b9ab      	cbnz	r3, 22f4 <nvic_execution_priority+0x38>
	__asm__ volatile("mrs %0, ipsr\n" : "=r" (ipsr)::);
    22c8:	f3ef 8305 	mrs	r3, IPSR
	if (ipsr) {
    22cc:	b123      	cbz	r3, 22d8 <nvic_execution_priority+0x1c>
		if (ipsr < 16) priority = 0; // could be non-zero
    22ce:	2b0f      	cmp	r3, #15
    22d0:	d905      	bls.n	22de <nvic_execution_priority+0x22>
		else priority = NVIC_GET_PRIORITY(ipsr - 16);
    22d2:	4a09      	ldr	r2, [pc, #36]	; (22f8 <nvic_execution_priority+0x3c>)
    22d4:	5c98      	ldrb	r0, [r3, r2]
    22d6:	e003      	b.n	22e0 <nvic_execution_priority+0x24>

#pragma GCC diagnostic pop

int nvic_execution_priority(void)
{
	uint32_t priority=256;
    22d8:	f44f 7080 	mov.w	r0, #256	; 0x100
    22dc:	e000      	b.n	22e0 <nvic_execution_priority+0x24>
	if (faultmask) return -1;
	__asm__ volatile("mrs %0, primask\n" : "=r" (primask)::);
	if (primask) return 0;
	__asm__ volatile("mrs %0, ipsr\n" : "=r" (ipsr)::);
	if (ipsr) {
		if (ipsr < 16) priority = 0; // could be non-zero
    22de:	2000      	movs	r0, #0
		else priority = NVIC_GET_PRIORITY(ipsr - 16);
	}
	__asm__ volatile("mrs %0, basepri\n" : "=r" (basepri)::);
    22e0:	f3ef 8311 	mrs	r3, BASEPRI
	if (basepri > 0 && basepri < priority) priority = basepri;
    22e4:	b13b      	cbz	r3, 22f6 <nvic_execution_priority+0x3a>
    22e6:	4298      	cmp	r0, r3
    22e8:	bf28      	it	cs
    22ea:	4618      	movcs	r0, r3
	return priority;
    22ec:	4770      	bx	lr
	uint32_t primask, faultmask, basepri, ipsr;

	// full algorithm in ARM DDI0403D, page B1-639
	// this isn't quite complete, but hopefully good enough
	__asm__ volatile("mrs %0, faultmask\n" : "=r" (faultmask)::);
	if (faultmask) return -1;
    22ee:	f04f 30ff 	mov.w	r0, #4294967295	; 0xffffffff
    22f2:	4770      	bx	lr
	__asm__ volatile("mrs %0, primask\n" : "=r" (primask)::);
	if (primask) return 0;
    22f4:	2000      	movs	r0, #0
		else priority = NVIC_GET_PRIORITY(ipsr - 16);
	}
	__asm__ volatile("mrs %0, basepri\n" : "=r" (basepri)::);
	if (basepri > 0 && basepri < priority) priority = basepri;
	return priority;
}
    22f6:	4770      	bx	lr
    22f8:	e000e3f0 	.word	0xe000e3f0

000022fc <dummy_isr>:
	{((volatile uint8_t *)&CORE_PIN26_PORTREG + (CORE_PIN26_BIT >> 3)), &CORE_PIN26_CONFIG, (1<<(CORE_PIN26_BIT & 7))}
};

#endif

static void dummy_isr() {};
    22fc:	4770      	bx	lr
    22fe:	bf00      	nop

00002300 <detachInterrupt>:

void detachInterrupt(uint8_t pin)
{
	volatile uint32_t *config;

	config = portConfigRegister(pin);
    2300:	4b1d      	ldr	r3, [pc, #116]	; (2378 <detachInterrupt+0x78>)
    2302:	eb03 00c0 	add.w	r0, r3, r0, lsl #3
    2306:	6843      	ldr	r3, [r0, #4]

// The Pin Config Register is used to look up the correct interrupt table
// for the corresponding port.
inline voidFuncPtr* getIsrTable(volatile uint32_t *config) {
	voidFuncPtr* isr_table = NULL;
	if(&PORTA_PCR0 <= config && config <= &PORTA_PCR31) isr_table = isr_table_portA;
    2308:	f103 4240 	add.w	r2, r3, #3221225472	; 0xc0000000
    230c:	f5a2 2292 	sub.w	r2, r2, #299008	; 0x49000
    2310:	2a7c      	cmp	r2, #124	; 0x7c
    2312:	d918      	bls.n	2346 <detachInterrupt+0x46>
	else if(&PORTB_PCR0 <= config && config <= &PORTB_PCR31) isr_table = isr_table_portB;
    2314:	f103 4240 	add.w	r2, r3, #3221225472	; 0xc0000000
    2318:	f5a2 2294 	sub.w	r2, r2, #303104	; 0x4a000
    231c:	2a7c      	cmp	r2, #124	; 0x7c
    231e:	d914      	bls.n	234a <detachInterrupt+0x4a>
	else if(&PORTC_PCR0 <= config && config <= &PORTC_PCR31) isr_table = isr_table_portC;
    2320:	f103 4240 	add.w	r2, r3, #3221225472	; 0xc0000000
    2324:	f5a2 2296 	sub.w	r2, r2, #307200	; 0x4b000
    2328:	2a7c      	cmp	r2, #124	; 0x7c
    232a:	d910      	bls.n	234e <detachInterrupt+0x4e>
	else if(&PORTD_PCR0 <= config && config <= &PORTD_PCR31) isr_table = isr_table_portD;
    232c:	f103 4240 	add.w	r2, r3, #3221225472	; 0xc0000000
    2330:	f5a2 2298 	sub.w	r2, r2, #311296	; 0x4c000
    2334:	2a7c      	cmp	r2, #124	; 0x7c
    2336:	d90c      	bls.n	2352 <detachInterrupt+0x52>
	else if(&PORTE_PCR0 <= config && config <= &PORTE_PCR31) isr_table = isr_table_portE;
    2338:	f103 4240 	add.w	r2, r3, #3221225472	; 0xc0000000
    233c:	f5a2 229a 	sub.w	r2, r2, #315392	; 0x4d000
    2340:	2a7c      	cmp	r2, #124	; 0x7c
    2342:	d908      	bls.n	2356 <detachInterrupt+0x56>
    2344:	4770      	bx	lr

// The Pin Config Register is used to look up the correct interrupt table
// for the corresponding port.
inline voidFuncPtr* getIsrTable(volatile uint32_t *config) {
	voidFuncPtr* isr_table = NULL;
	if(&PORTA_PCR0 <= config && config <= &PORTA_PCR31) isr_table = isr_table_portA;
    2346:	490d      	ldr	r1, [pc, #52]	; (237c <detachInterrupt+0x7c>)
    2348:	e006      	b.n	2358 <detachInterrupt+0x58>
	else if(&PORTB_PCR0 <= config && config <= &PORTB_PCR31) isr_table = isr_table_portB;
    234a:	490d      	ldr	r1, [pc, #52]	; (2380 <detachInterrupt+0x80>)
    234c:	e004      	b.n	2358 <detachInterrupt+0x58>
	else if(&PORTC_PCR0 <= config && config <= &PORTC_PCR31) isr_table = isr_table_portC;
    234e:	490d      	ldr	r1, [pc, #52]	; (2384 <detachInterrupt+0x84>)
    2350:	e002      	b.n	2358 <detachInterrupt+0x58>
	else if(&PORTD_PCR0 <= config && config <= &PORTD_PCR31) isr_table = isr_table_portD;
    2352:	490d      	ldr	r1, [pc, #52]	; (2388 <detachInterrupt+0x88>)
    2354:	e000      	b.n	2358 <detachInterrupt+0x58>
	else if(&PORTE_PCR0 <= config && config <= &PORTE_PCR31) isr_table = isr_table_portE;
    2356:	490d      	ldr	r1, [pc, #52]	; (238c <detachInterrupt+0x8c>)
	config = portConfigRegister(pin);
#if defined(KINETISK)
	voidFuncPtr* isr_table = getIsrTable(config);
	if(!isr_table) return;
	uint32_t pin_index = getPinIndex(config);
	__disable_irq();
    2358:	b672      	cpsid	i
	*config = ((*config & ~0x000F0000) | 0x01000000);
    235a:	681a      	ldr	r2, [r3, #0]
    235c:	f022 7287 	bic.w	r2, r2, #17694720	; 0x10e0000
    2360:	f422 3280 	bic.w	r2, r2, #65536	; 0x10000
    2364:	f042 7280 	orr.w	r2, r2, #16777216	; 0x1000000
    2368:	601a      	str	r2, [r3, #0]
	isr_table[pin_index] = dummy_isr;
    236a:	f3c3 0384 	ubfx	r3, r3, #2, #5
    236e:	4a08      	ldr	r2, [pc, #32]	; (2390 <detachInterrupt+0x90>)
    2370:	f841 2023 	str.w	r2, [r1, r3, lsl #2]
	__enable_irq();
    2374:	b662      	cpsie	i
    2376:	4770      	bx	lr
    2378:	00008e2c 	.word	0x00008e2c
    237c:	1fff8ce4 	.word	0x1fff8ce4
    2380:	1fff8d1c 	.word	0x1fff8d1c
    2384:	1fff8d6c 	.word	0x1fff8d6c
    2388:	1fff8d9c 	.word	0x1fff8d9c
    238c:	1fff8dbc 	.word	0x1fff8dbc
    2390:	000022fd 	.word	0x000022fd

00002394 <rtc_set>:
	return RTC_TSR;
}

void rtc_set(unsigned long t)
{
	RTC_SR = 0;
    2394:	4b04      	ldr	r3, [pc, #16]	; (23a8 <rtc_set+0x14>)
    2396:	2200      	movs	r2, #0
    2398:	601a      	str	r2, [r3, #0]
	RTC_TPR = 0;
    239a:	4904      	ldr	r1, [pc, #16]	; (23ac <rtc_set+0x18>)
    239c:	600a      	str	r2, [r1, #0]
	RTC_TSR = t;
    239e:	4a04      	ldr	r2, [pc, #16]	; (23b0 <rtc_set+0x1c>)
    23a0:	6010      	str	r0, [r2, #0]
	RTC_SR = RTC_SR_TCE;
    23a2:	2210      	movs	r2, #16
    23a4:	601a      	str	r2, [r3, #0]
    23a6:	4770      	bx	lr
    23a8:	4003d014 	.word	0x4003d014
    23ac:	4003d004 	.word	0x4003d004
    23b0:	4003d000 	.word	0x4003d000

000023b4 <digitalWrite>:

// TODO: startup code needs to initialize all pins to GPIO mode, input by default

void digitalWrite(uint8_t pin, uint8_t val)
{
	if (pin >= CORE_NUM_DIGITAL) return;
    23b4:	2821      	cmp	r0, #33	; 0x21
    23b6:	d81e      	bhi.n	23f6 <digitalWrite+0x42>
#ifdef KINETISK
	if (*portModeRegister(pin)) {
    23b8:	4b0f      	ldr	r3, [pc, #60]	; (23f8 <digitalWrite+0x44>)
    23ba:	f853 3030 	ldr.w	r3, [r3, r0, lsl #3]
    23be:	f893 2280 	ldrb.w	r2, [r3, #640]	; 0x280
    23c2:	f012 0fff 	tst.w	r2, #255	; 0xff
    23c6:	d008      	beq.n	23da <digitalWrite+0x26>
		if (val) {
    23c8:	b119      	cbz	r1, 23d2 <digitalWrite+0x1e>
			*portSetRegister(pin) = 1;
    23ca:	2201      	movs	r2, #1
    23cc:	f883 2080 	strb.w	r2, [r3, #128]	; 0x80
    23d0:	4770      	bx	lr
		} else {
			*portClearRegister(pin) = 1;
    23d2:	2201      	movs	r2, #1
    23d4:	f883 2100 	strb.w	r2, [r3, #256]	; 0x100
    23d8:	4770      	bx	lr
		} else {
			*portClearRegister(pin) = digitalPinToBitMask(pin);
		}
#endif
	} else {
		volatile uint32_t *config = portConfigRegister(pin);
    23da:	4b07      	ldr	r3, [pc, #28]	; (23f8 <digitalWrite+0x44>)
    23dc:	eb03 00c0 	add.w	r0, r3, r0, lsl #3
    23e0:	6843      	ldr	r3, [r0, #4]
		if (val) {
    23e2:	b121      	cbz	r1, 23ee <digitalWrite+0x3a>
			// TODO use bitband for atomic read-mod-write
			*config |= (PORT_PCR_PE | PORT_PCR_PS);
    23e4:	681a      	ldr	r2, [r3, #0]
    23e6:	f042 0203 	orr.w	r2, r2, #3
    23ea:	601a      	str	r2, [r3, #0]
    23ec:	4770      	bx	lr
			//*config = PORT_PCR_MUX(1) | PORT_PCR_PE | PORT_PCR_PS;
		} else {
			// TODO use bitband for atomic read-mod-write
			*config &= ~(PORT_PCR_PE);
    23ee:	681a      	ldr	r2, [r3, #0]
    23f0:	f022 0202 	bic.w	r2, r2, #2
    23f4:	601a      	str	r2, [r3, #0]
    23f6:	4770      	bx	lr
    23f8:	00008e2c 	.word	0x00008e2c

000023fc <digitalRead>:

}

uint8_t digitalRead(uint8_t pin)
{
	if (pin >= CORE_NUM_DIGITAL) return 0;
    23fc:	2821      	cmp	r0, #33	; 0x21
    23fe:	d806      	bhi.n	240e <digitalRead+0x12>
#ifdef KINETISK
	return *portInputRegister(pin);
    2400:	4b04      	ldr	r3, [pc, #16]	; (2414 <digitalRead+0x18>)
    2402:	f853 3030 	ldr.w	r3, [r3, r0, lsl #3]
    2406:	f893 0200 	ldrb.w	r0, [r3, #512]	; 0x200
    240a:	b2c0      	uxtb	r0, r0
    240c:	4770      	bx	lr

}

uint8_t digitalRead(uint8_t pin)
{
	if (pin >= CORE_NUM_DIGITAL) return 0;
    240e:	2000      	movs	r0, #0
#ifdef KINETISK
	return *portInputRegister(pin);
#else
	return (*portInputRegister(pin) & digitalPinToBitMask(pin)) ? 1 : 0;
#endif
}
    2410:	4770      	bx	lr
    2412:	bf00      	nop
    2414:	00008e2c 	.word	0x00008e2c

00002418 <pinMode>:

void pinMode(uint8_t pin, uint8_t mode)
{
	volatile uint32_t *config;

	if (pin >= CORE_NUM_DIGITAL) return;
    2418:	2821      	cmp	r0, #33	; 0x21
    241a:	d83a      	bhi.n	2492 <pinMode+0x7a>
	config = portConfigRegister(pin);
    241c:	4b1d      	ldr	r3, [pc, #116]	; (2494 <pinMode+0x7c>)
    241e:	eb03 03c0 	add.w	r3, r3, r0, lsl #3
    2422:	685b      	ldr	r3, [r3, #4]

	if (mode == OUTPUT || mode == OUTPUT_OPENDRAIN) {
    2424:	2901      	cmp	r1, #1
    2426:	d019      	beq.n	245c <pinMode+0x44>
    2428:	2904      	cmp	r1, #4
    242a:	d025      	beq.n	2478 <pinMode+0x60>
		} else {
		    *config &= ~PORT_PCR_ODE;
                }
	} else {
#ifdef KINETISK
		*portModeRegister(pin) = 0;
    242c:	4a19      	ldr	r2, [pc, #100]	; (2494 <pinMode+0x7c>)
    242e:	f852 2030 	ldr.w	r2, [r2, r0, lsl #3]
    2432:	2000      	movs	r0, #0
    2434:	f882 0280 	strb.w	r0, [r2, #640]	; 0x280
#else
		*portModeRegister(pin) &= ~digitalPinToBitMask(pin);
#endif
		if (mode == INPUT) {
    2438:	b919      	cbnz	r1, 2442 <pinMode+0x2a>
			*config = PORT_PCR_MUX(1);
    243a:	f44f 7280 	mov.w	r2, #256	; 0x100
    243e:	601a      	str	r2, [r3, #0]
    2440:	4770      	bx	lr
		} else if (mode == INPUT_PULLUP) {
    2442:	2902      	cmp	r1, #2
    2444:	d103      	bne.n	244e <pinMode+0x36>
			*config = PORT_PCR_MUX(1) | PORT_PCR_PE | PORT_PCR_PS;
    2446:	f240 1203 	movw	r2, #259	; 0x103
    244a:	601a      	str	r2, [r3, #0]
    244c:	4770      	bx	lr
		} else if (mode == INPUT_PULLDOWN) {
    244e:	2903      	cmp	r1, #3
			*config = PORT_PCR_MUX(1) | PORT_PCR_PE;
    2450:	bf0c      	ite	eq
    2452:	f44f 7281 	moveq.w	r2, #258	; 0x102
		} else { // INPUT_DISABLE
			*config = 0;
    2456:	2200      	movne	r2, #0
    2458:	601a      	str	r2, [r3, #0]
    245a:	4770      	bx	lr
	if (pin >= CORE_NUM_DIGITAL) return;
	config = portConfigRegister(pin);

	if (mode == OUTPUT || mode == OUTPUT_OPENDRAIN) {
#ifdef KINETISK
		*portModeRegister(pin) = 1;
    245c:	4a0d      	ldr	r2, [pc, #52]	; (2494 <pinMode+0x7c>)
    245e:	f852 2030 	ldr.w	r2, [r2, r0, lsl #3]
    2462:	2101      	movs	r1, #1
    2464:	f882 1280 	strb.w	r1, [r2, #640]	; 0x280
#else
		*portModeRegister(pin) |= digitalPinToBitMask(pin); // TODO: atomic
#endif
		*config = PORT_PCR_SRE | PORT_PCR_DSE | PORT_PCR_MUX(1);
    2468:	f44f 72a2 	mov.w	r2, #324	; 0x144
    246c:	601a      	str	r2, [r3, #0]
		if (mode == OUTPUT_OPENDRAIN) {
		    *config |= PORT_PCR_ODE;
		} else {
		    *config &= ~PORT_PCR_ODE;
    246e:	681a      	ldr	r2, [r3, #0]
    2470:	f022 0220 	bic.w	r2, r2, #32
    2474:	601a      	str	r2, [r3, #0]
    2476:	4770      	bx	lr
	if (pin >= CORE_NUM_DIGITAL) return;
	config = portConfigRegister(pin);

	if (mode == OUTPUT || mode == OUTPUT_OPENDRAIN) {
#ifdef KINETISK
		*portModeRegister(pin) = 1;
    2478:	4a06      	ldr	r2, [pc, #24]	; (2494 <pinMode+0x7c>)
    247a:	f852 2030 	ldr.w	r2, [r2, r0, lsl #3]
    247e:	2101      	movs	r1, #1
    2480:	f882 1280 	strb.w	r1, [r2, #640]	; 0x280
#else
		*portModeRegister(pin) |= digitalPinToBitMask(pin); // TODO: atomic
#endif
		*config = PORT_PCR_SRE | PORT_PCR_DSE | PORT_PCR_MUX(1);
    2484:	f44f 72a2 	mov.w	r2, #324	; 0x144
    2488:	601a      	str	r2, [r3, #0]
		if (mode == OUTPUT_OPENDRAIN) {
		    *config |= PORT_PCR_ODE;
    248a:	681a      	ldr	r2, [r3, #0]
    248c:	f042 0220 	orr.w	r2, r2, #32
    2490:	601a      	str	r2, [r3, #0]
    2492:	4770      	bx	lr
    2494:	00008e2c 	.word	0x00008e2c

00002498 <attachInterrupt>:
{
	_VectorsRam[irq + 16] = function;
}

void attachInterrupt(uint8_t pin, void (*function)(void), int mode)
{
    2498:	b570      	push	{r4, r5, r6, lr}
	volatile uint32_t *config;
	uint32_t cfg, mask;

	if (pin >= CORE_NUM_DIGITAL) return;
    249a:	2821      	cmp	r0, #33	; 0x21
    249c:	d862      	bhi.n	2564 <attachInterrupt+0xcc>
	switch (mode) {
    249e:	2a04      	cmp	r2, #4
    24a0:	d860      	bhi.n	2564 <attachInterrupt+0xcc>
    24a2:	e8df f002 	tbb	[pc, r2]
    24a6:	0907      	.short	0x0907
    24a8:	0305      	.short	0x0305
    24aa:	0b          	.byte	0x0b
    24ab:	00          	.byte	0x00
	  case CHANGE:	mask = 0x0B; break;
	  case RISING:	mask = 0x09; break;
    24ac:	2609      	movs	r6, #9
    24ae:	e006      	b.n	24be <attachInterrupt+0x26>
	  case FALLING:	mask = 0x0A; break;
    24b0:	260a      	movs	r6, #10
    24b2:	e004      	b.n	24be <attachInterrupt+0x26>
	  case LOW:	mask = 0x08; break;
    24b4:	2608      	movs	r6, #8
    24b6:	e002      	b.n	24be <attachInterrupt+0x26>
	  case HIGH:	mask = 0x0C; break;
    24b8:	260c      	movs	r6, #12
    24ba:	e000      	b.n	24be <attachInterrupt+0x26>
	volatile uint32_t *config;
	uint32_t cfg, mask;

	if (pin >= CORE_NUM_DIGITAL) return;
	switch (mode) {
	  case CHANGE:	mask = 0x0B; break;
    24bc:	260b      	movs	r6, #11
    24be:	460d      	mov	r5, r1
	  case FALLING:	mask = 0x0A; break;
	  case LOW:	mask = 0x08; break;
	  case HIGH:	mask = 0x0C; break;
	  default: return;
	}
	mask = (mask << 16) | 0x01000000;
    24c0:	0436      	lsls	r6, r6, #16
	config = portConfigRegister(pin);
    24c2:	4b29      	ldr	r3, [pc, #164]	; (2568 <attachInterrupt+0xd0>)
    24c4:	eb03 03c0 	add.w	r3, r3, r0, lsl #3
    24c8:	685c      	ldr	r4, [r3, #4]
	if ((*config & 0x00000700) == 0) {
    24ca:	6823      	ldr	r3, [r4, #0]
    24cc:	f413 6fe0 	tst.w	r3, #1792	; 0x700
    24d0:	d102      	bne.n	24d8 <attachInterrupt+0x40>
		// for compatibility with programs which depend
		// on AVR hardware default to input mode.
		pinMode(pin, INPUT);
    24d2:	2100      	movs	r1, #0
    24d4:	f7ff ffa0 	bl	2418 <pinMode>
static void portcd_interrupt(void);
#endif

void attachInterruptVector(enum IRQ_NUMBER_t irq, void (*function)(void))
{
	_VectorsRam[irq + 16] = function;
    24d8:	4b24      	ldr	r3, [pc, #144]	; (256c <attachInterrupt+0xd4>)
    24da:	4a25      	ldr	r2, [pc, #148]	; (2570 <attachInterrupt+0xd8>)
    24dc:	f8c3 219c 	str.w	r2, [r3, #412]	; 0x19c
    24e0:	4a24      	ldr	r2, [pc, #144]	; (2574 <attachInterrupt+0xdc>)
    24e2:	f8c3 21a0 	str.w	r2, [r3, #416]	; 0x1a0
    24e6:	4a24      	ldr	r2, [pc, #144]	; (2578 <attachInterrupt+0xe0>)
    24e8:	f8c3 21a4 	str.w	r2, [r3, #420]	; 0x1a4
    24ec:	4a23      	ldr	r2, [pc, #140]	; (257c <attachInterrupt+0xe4>)
    24ee:	f8c3 21a8 	str.w	r2, [r3, #424]	; 0x1a8
    24f2:	4a23      	ldr	r2, [pc, #140]	; (2580 <attachInterrupt+0xe8>)
    24f4:	f8c3 21ac 	str.w	r2, [r3, #428]	; 0x1ac

// The Pin Config Register is used to look up the correct interrupt table
// for the corresponding port.
inline voidFuncPtr* getIsrTable(volatile uint32_t *config) {
	voidFuncPtr* isr_table = NULL;
	if(&PORTA_PCR0 <= config && config <= &PORTA_PCR31) isr_table = isr_table_portA;
    24f8:	f104 4340 	add.w	r3, r4, #3221225472	; 0xc0000000
    24fc:	f5a3 2392 	sub.w	r3, r3, #299008	; 0x49000
    2500:	2b7c      	cmp	r3, #124	; 0x7c
    2502:	d918      	bls.n	2536 <attachInterrupt+0x9e>
	else if(&PORTB_PCR0 <= config && config <= &PORTB_PCR31) isr_table = isr_table_portB;
    2504:	f104 4340 	add.w	r3, r4, #3221225472	; 0xc0000000
    2508:	f5a3 2394 	sub.w	r3, r3, #303104	; 0x4a000
    250c:	2b7c      	cmp	r3, #124	; 0x7c
    250e:	d914      	bls.n	253a <attachInterrupt+0xa2>
	else if(&PORTC_PCR0 <= config && config <= &PORTC_PCR31) isr_table = isr_table_portC;
    2510:	f104 4340 	add.w	r3, r4, #3221225472	; 0xc0000000
    2514:	f5a3 2396 	sub.w	r3, r3, #307200	; 0x4b000
    2518:	2b7c      	cmp	r3, #124	; 0x7c
    251a:	d910      	bls.n	253e <attachInterrupt+0xa6>
	else if(&PORTD_PCR0 <= config && config <= &PORTD_PCR31) isr_table = isr_table_portD;
    251c:	f104 4340 	add.w	r3, r4, #3221225472	; 0xc0000000
    2520:	f5a3 2398 	sub.w	r3, r3, #311296	; 0x4c000
    2524:	2b7c      	cmp	r3, #124	; 0x7c
    2526:	d90c      	bls.n	2542 <attachInterrupt+0xaa>
	else if(&PORTE_PCR0 <= config && config <= &PORTE_PCR31) isr_table = isr_table_portE;
    2528:	f104 4340 	add.w	r3, r4, #3221225472	; 0xc0000000
    252c:	f5a3 239a 	sub.w	r3, r3, #315392	; 0x4d000
    2530:	2b7c      	cmp	r3, #124	; 0x7c
    2532:	d908      	bls.n	2546 <attachInterrupt+0xae>
    2534:	bd70      	pop	{r4, r5, r6, pc}

// The Pin Config Register is used to look up the correct interrupt table
// for the corresponding port.
inline voidFuncPtr* getIsrTable(volatile uint32_t *config) {
	voidFuncPtr* isr_table = NULL;
	if(&PORTA_PCR0 <= config && config <= &PORTA_PCR31) isr_table = isr_table_portA;
    2536:	4913      	ldr	r1, [pc, #76]	; (2584 <attachInterrupt+0xec>)
    2538:	e006      	b.n	2548 <attachInterrupt+0xb0>
	else if(&PORTB_PCR0 <= config && config <= &PORTB_PCR31) isr_table = isr_table_portB;
    253a:	4913      	ldr	r1, [pc, #76]	; (2588 <attachInterrupt+0xf0>)
    253c:	e004      	b.n	2548 <attachInterrupt+0xb0>
	else if(&PORTC_PCR0 <= config && config <= &PORTC_PCR31) isr_table = isr_table_portC;
    253e:	4913      	ldr	r1, [pc, #76]	; (258c <attachInterrupt+0xf4>)
    2540:	e002      	b.n	2548 <attachInterrupt+0xb0>
	else if(&PORTD_PCR0 <= config && config <= &PORTD_PCR31) isr_table = isr_table_portD;
    2542:	4913      	ldr	r1, [pc, #76]	; (2590 <attachInterrupt+0xf8>)
    2544:	e000      	b.n	2548 <attachInterrupt+0xb0>
	else if(&PORTE_PCR0 <= config && config <= &PORTE_PCR31) isr_table = isr_table_portE;
    2546:	4913      	ldr	r1, [pc, #76]	; (2594 <attachInterrupt+0xfc>)
	attachInterruptVector(IRQ_PORTD, port_D_isr);
	attachInterruptVector(IRQ_PORTE, port_E_isr);
	voidFuncPtr* isr_table = getIsrTable(config);
	if(!isr_table) return;
	uint32_t pin_index = getPinIndex(config);
	__disable_irq();
    2548:	b672      	cpsid	i
	cfg = *config;
    254a:	6823      	ldr	r3, [r4, #0]
	cfg &= ~0x000F0000;		// disable any previous interrupt
    254c:	f423 2370 	bic.w	r3, r3, #983040	; 0xf0000
    2550:	f043 7280 	orr.w	r2, r3, #16777216	; 0x1000000
	*config = cfg;
    2554:	6023      	str	r3, [r4, #0]
	isr_table[pin_index] = function;	// set the function pointer
    2556:	f3c4 0384 	ubfx	r3, r4, #2, #5
    255a:	f841 5023 	str.w	r5, [r1, r3, lsl #2]
	cfg |= mask;
    255e:	4316      	orrs	r6, r2
	*config = cfg;			// enable the new interrupt
    2560:	6026      	str	r6, [r4, #0]
	__enable_irq();
    2562:	b662      	cpsie	i
    2564:	bd70      	pop	{r4, r5, r6, pc}
    2566:	bf00      	nop
    2568:	00008e2c 	.word	0x00008e2c
    256c:	1fff8200 	.word	0x1fff8200
    2570:	1fff87d1 	.word	0x1fff87d1
    2574:	1fff87a5 	.word	0x1fff87a5
    2578:	1fff8779 	.word	0x1fff8779
    257c:	1fff874d 	.word	0x1fff874d
    2580:	1fff8721 	.word	0x1fff8721
    2584:	1fff8ce4 	.word	0x1fff8ce4
    2588:	1fff8d1c 	.word	0x1fff8d1c
    258c:	1fff8d6c 	.word	0x1fff8d6c
    2590:	1fff8d9c 	.word	0x1fff8d9c
    2594:	1fff8dbc 	.word	0x1fff8dbc

00002598 <micros>:

uint32_t micros(void)
{
	uint32_t count, current, istatus;

	__disable_irq();
    2598:	b672      	cpsid	i
	current = SYST_CVR;
    259a:	4b0d      	ldr	r3, [pc, #52]	; (25d0 <micros+0x38>)
    259c:	681b      	ldr	r3, [r3, #0]
	count = systick_millis_count;
    259e:	4a0d      	ldr	r2, [pc, #52]	; (25d4 <micros+0x3c>)
    25a0:	6810      	ldr	r0, [r2, #0]
	istatus = SCB_ICSR;	// bit 26 indicates if systick exception pending
    25a2:	4a0d      	ldr	r2, [pc, #52]	; (25d8 <micros+0x40>)
    25a4:	6812      	ldr	r2, [r2, #0]
	__enable_irq();
    25a6:	b662      	cpsie	i
	 //systick_current = current;
	 //systick_count = count;
	 //systick_istatus = istatus & SCB_ICSR_PENDSTSET ? 1 : 0;
	if ((istatus & SCB_ICSR_PENDSTSET) && current > 50) count++;
    25a8:	f012 6f80 	tst.w	r2, #67108864	; 0x4000000
    25ac:	d002      	beq.n	25b4 <micros+0x1c>
    25ae:	2b32      	cmp	r3, #50	; 0x32
    25b0:	bf88      	it	hi
    25b2:	3001      	addhi	r0, #1
#if defined(KINETISL) && F_CPU == 48000000
	return count * 1000 + ((current * (uint32_t)87381) >> 22);
#elif defined(KINETISL) && F_CPU == 24000000
	return count * 1000 + ((current * (uint32_t)174763) >> 22);
#endif
	return count * 1000 + current / (F_CPU / 1000000);
    25b4:	f5c3 433b 	rsb	r3, r3, #47872	; 0xbb00
    25b8:	337f      	adds	r3, #127	; 0x7f
    25ba:	4a08      	ldr	r2, [pc, #32]	; (25dc <micros+0x44>)
    25bc:	fba2 2303 	umull	r2, r3, r2, r3
    25c0:	f44f 727a 	mov.w	r2, #1000	; 0x3e8
    25c4:	fb02 f000 	mul.w	r0, r2, r0
}
    25c8:	eb00 1053 	add.w	r0, r0, r3, lsr #5
    25cc:	4770      	bx	lr
    25ce:	bf00      	nop
    25d0:	e000e018 	.word	0xe000e018
    25d4:	1fff9910 	.word	0x1fff9910
    25d8:	e000ed04 	.word	0xe000ed04
    25dc:	aaaaaaab 	.word	0xaaaaaaab

000025e0 <delay>:

void delay(uint32_t ms)
{
    25e0:	b538      	push	{r3, r4, r5, lr}
    25e2:	4605      	mov	r5, r0
	uint32_t start = micros();
    25e4:	f7ff ffd8 	bl	2598 <micros>
    25e8:	4604      	mov	r4, r0

	if (ms > 0) {
    25ea:	b925      	cbnz	r5, 25f6 <delay+0x16>
    25ec:	bd38      	pop	{r3, r4, r5, pc}
		while (1) {
			while ((micros() - start) >= 1000) {
				ms--;
				if (ms == 0) return;
    25ee:	3d01      	subs	r5, #1
    25f0:	d00a      	beq.n	2608 <delay+0x28>
				start += 1000;
    25f2:	f504 747a 	add.w	r4, r4, #1000	; 0x3e8
{
	uint32_t start = micros();

	if (ms > 0) {
		while (1) {
			while ((micros() - start) >= 1000) {
    25f6:	f7ff ffcf 	bl	2598 <micros>
    25fa:	1b00      	subs	r0, r0, r4
    25fc:	f5b0 7f7a 	cmp.w	r0, #1000	; 0x3e8
    2600:	d2f5      	bcs.n	25ee <delay+0xe>
				ms--;
				if (ms == 0) return;
				start += 1000;
			}
			yield();
    2602:	f000 fff5 	bl	35f0 <yield>
		}
    2606:	e7f6      	b.n	25f6 <delay+0x16>
    2608:	bd38      	pop	{r3, r4, r5, pc}
    260a:	bf00      	nop

0000260c <_init_Teensyduino_internal_>:
#endif

//void init_pins(void)
__attribute__((noinline))
void _init_Teensyduino_internal_(void)
{
    260c:	b510      	push	{r4, lr}
#if defined(__MK20DX128__) || defined(__MK20DX256__) || defined(__MK64FX512__) || defined(__MK66FX1M0__)
	NVIC_ENABLE_IRQ(IRQ_PORTA);
    260e:	4b27      	ldr	r3, [pc, #156]	; (26ac <_init_Teensyduino_internal_+0xa0>)
    2610:	f44f 0200 	mov.w	r2, #8388608	; 0x800000
    2614:	601a      	str	r2, [r3, #0]
	NVIC_ENABLE_IRQ(IRQ_PORTB);
    2616:	f04f 7280 	mov.w	r2, #16777216	; 0x1000000
    261a:	601a      	str	r2, [r3, #0]
	NVIC_ENABLE_IRQ(IRQ_PORTC);
    261c:	f04f 7200 	mov.w	r2, #33554432	; 0x2000000
    2620:	601a      	str	r2, [r3, #0]
	NVIC_ENABLE_IRQ(IRQ_PORTD);
    2622:	f04f 6280 	mov.w	r2, #67108864	; 0x4000000
    2626:	601a      	str	r2, [r3, #0]
	NVIC_ENABLE_IRQ(IRQ_PORTE);
    2628:	f04f 6200 	mov.w	r2, #134217728	; 0x8000000
    262c:	601a      	str	r2, [r3, #0]
	NVIC_ENABLE_IRQ(IRQ_PORTA);
	NVIC_ENABLE_IRQ(IRQ_PORTCD);
#endif
	//SIM_SCGC6 |= SIM_SCGC6_FTM0;	// TODO: use bitband for atomic read-mod-write
	//SIM_SCGC6 |= SIM_SCGC6_FTM1;
	FTM0_CNT = 0;
    262e:	2000      	movs	r0, #0
    2630:	4b1f      	ldr	r3, [pc, #124]	; (26b0 <_init_Teensyduino_internal_+0xa4>)
    2632:	6018      	str	r0, [r3, #0]
	FTM0_MOD = DEFAULT_FTM_MOD;
    2634:	f64b 71ff 	movw	r1, #49151	; 0xbfff
    2638:	3304      	adds	r3, #4
    263a:	6019      	str	r1, [r3, #0]
	FTM0_C0SC = 0x28; // MSnB:MSnA = 10, ELSnB:ELSnA = 10
    263c:	2328      	movs	r3, #40	; 0x28
    263e:	4a1d      	ldr	r2, [pc, #116]	; (26b4 <_init_Teensyduino_internal_+0xa8>)
    2640:	6013      	str	r3, [r2, #0]
	FTM0_C1SC = 0x28;
    2642:	3208      	adds	r2, #8
    2644:	6013      	str	r3, [r2, #0]
	FTM0_C2SC = 0x28;
    2646:	3208      	adds	r2, #8
    2648:	6013      	str	r3, [r2, #0]
	FTM0_C3SC = 0x28;
    264a:	3208      	adds	r2, #8
    264c:	6013      	str	r3, [r2, #0]
	FTM0_C4SC = 0x28;
    264e:	3208      	adds	r2, #8
    2650:	6013      	str	r3, [r2, #0]
	FTM0_C5SC = 0x28;
    2652:	3208      	adds	r2, #8
    2654:	6013      	str	r3, [r2, #0]
#if defined(__MK20DX128__) || defined(__MK20DX256__) || defined(__MK64FX512__) || defined(__MK66FX1M0__)
	FTM0_C6SC = 0x28;
    2656:	3208      	adds	r2, #8
    2658:	6013      	str	r3, [r2, #0]
	FTM0_C7SC = 0x28;
    265a:	3208      	adds	r2, #8
    265c:	6013      	str	r3, [r2, #0]
	FTM3_C4SC = 0x28;
	FTM3_C5SC = 0x28;
	FTM3_C6SC = 0x28;
	FTM3_C7SC = 0x28;
#endif
	FTM0_SC = FTM_SC_CLKS(1) | FTM_SC_PS(DEFAULT_FTM_PRESCALE);
    265e:	2209      	movs	r2, #9
    2660:	4c15      	ldr	r4, [pc, #84]	; (26b8 <_init_Teensyduino_internal_+0xac>)
    2662:	6022      	str	r2, [r4, #0]
	FTM1_CNT = 0;
    2664:	f504 5480 	add.w	r4, r4, #4096	; 0x1000
    2668:	3404      	adds	r4, #4
    266a:	6020      	str	r0, [r4, #0]
	FTM1_MOD = DEFAULT_FTM_MOD;
    266c:	3404      	adds	r4, #4
    266e:	6021      	str	r1, [r4, #0]
	FTM1_C0SC = 0x28;
    2670:	3404      	adds	r4, #4
    2672:	6023      	str	r3, [r4, #0]
	FTM1_C1SC = 0x28;
    2674:	3408      	adds	r4, #8
    2676:	6023      	str	r3, [r4, #0]
	FTM1_SC = FTM_SC_CLKS(1) | FTM_SC_PS(DEFAULT_FTM_PRESCALE);
    2678:	3c14      	subs	r4, #20
    267a:	6022      	str	r2, [r4, #0]
#if defined(__MK20DX256__) || defined(__MK64FX512__) || defined(__MK66FX1M0__) || defined(__MKL26Z64__)
	FTM2_CNT = 0;
    267c:	f504 24fe 	add.w	r4, r4, #520192	; 0x7f000
    2680:	3404      	adds	r4, #4
    2682:	6020      	str	r0, [r4, #0]
	FTM2_MOD = DEFAULT_FTM_MOD;
    2684:	480d      	ldr	r0, [pc, #52]	; (26bc <_init_Teensyduino_internal_+0xb0>)
    2686:	6001      	str	r1, [r0, #0]
	FTM2_C0SC = 0x28;
    2688:	490d      	ldr	r1, [pc, #52]	; (26c0 <_init_Teensyduino_internal_+0xb4>)
    268a:	600b      	str	r3, [r1, #0]
	FTM2_C1SC = 0x28;
    268c:	3108      	adds	r1, #8
    268e:	600b      	str	r3, [r1, #0]
	FTM2_SC = FTM_SC_CLKS(1) | FTM_SC_PS(DEFAULT_FTM_PRESCALE);
    2690:	4b0c      	ldr	r3, [pc, #48]	; (26c4 <_init_Teensyduino_internal_+0xb8>)
    2692:	601a      	str	r2, [r3, #0]
	TPM1_MOD = 32767;
	TPM1_C0SC = 0x28;
	TPM1_C1SC = 0x28;
	TPM1_SC = FTM_SC_CLKS(1) | FTM_SC_PS(0);
#endif
	analog_init();
    2694:	f001 f896 	bl	37c4 <analog_init>
	// for background about this startup delay, please see these conversations
	// https://forum.pjrc.com/threads/36606-startup-time-(400ms)?p=113980&viewfull=1#post113980
	// https://forum.pjrc.com/threads/31290-Teensey-3-2-Teensey-Loader-1-24-Issues?p=87273&viewfull=1#post87273
	delay(50);
    2698:	2032      	movs	r0, #50	; 0x32
    269a:	f7ff ffa1 	bl	25e0 <delay>
	usb_init();
    269e:	f000 fc7f 	bl	2fa0 <usb_init>
	delay(350);
    26a2:	f44f 70af 	mov.w	r0, #350	; 0x15e
    26a6:	f7ff ff9b 	bl	25e0 <delay>
    26aa:	bd10      	pop	{r4, pc}
    26ac:	e000e108 	.word	0xe000e108
    26b0:	40038004 	.word	0x40038004
    26b4:	4003800c 	.word	0x4003800c
    26b8:	40038000 	.word	0x40038000
    26bc:	400b8008 	.word	0x400b8008
    26c0:	400b800c 	.word	0x400b800c
    26c4:	400b8000 	.word	0x400b8000

000026c8 <endpoint0_transmit>:
	USB0_ENDPT0 = USB_ENDPT_EPSTALL | USB_ENDPT_EPRXEN | USB_ENDPT_EPTXEN | USB_ENDPT_EPHSHK;
}


static void endpoint0_transmit(const void *data, uint32_t len)
{
    26c8:	b410      	push	{r4}
	serial_print(",");
	serial_phex16(len);
	serial_print(ep0_tx_bdt_bank ? ", odd" : ", even");
	serial_print(ep0_tx_data_toggle ? ", d1\n" : ", d0\n");
#endif
	table[index(0, TX, ep0_tx_bdt_bank)].addr = (void *)data;
    26ca:	4b0e      	ldr	r3, [pc, #56]	; (2704 <endpoint0_transmit+0x3c>)
    26cc:	781b      	ldrb	r3, [r3, #0]
    26ce:	f043 0402 	orr.w	r4, r3, #2
    26d2:	4a0d      	ldr	r2, [pc, #52]	; (2708 <endpoint0_transmit+0x40>)
    26d4:	eb02 02c4 	add.w	r2, r2, r4, lsl #3
    26d8:	6050      	str	r0, [r2, #4]
	table[index(0, TX, ep0_tx_bdt_bank)].desc = BDT_DESC(len, ep0_tx_data_toggle);
    26da:	4a0c      	ldr	r2, [pc, #48]	; (270c <endpoint0_transmit+0x44>)
    26dc:	7812      	ldrb	r2, [r2, #0]
    26de:	2a00      	cmp	r2, #0
    26e0:	bf14      	ite	ne
    26e2:	20c8      	movne	r0, #200	; 0xc8
    26e4:	2088      	moveq	r0, #136	; 0x88
    26e6:	ea40 4101 	orr.w	r1, r0, r1, lsl #16
    26ea:	4807      	ldr	r0, [pc, #28]	; (2708 <endpoint0_transmit+0x40>)
    26ec:	f840 1034 	str.w	r1, [r0, r4, lsl #3]
	ep0_tx_data_toggle ^= 1;
    26f0:	f082 0201 	eor.w	r2, r2, #1
    26f4:	4905      	ldr	r1, [pc, #20]	; (270c <endpoint0_transmit+0x44>)
    26f6:	700a      	strb	r2, [r1, #0]
	ep0_tx_bdt_bank ^= 1;
    26f8:	f083 0301 	eor.w	r3, r3, #1
    26fc:	4a01      	ldr	r2, [pc, #4]	; (2704 <endpoint0_transmit+0x3c>)
    26fe:	7013      	strb	r3, [r2, #0]
}
    2700:	bc10      	pop	{r4}
    2702:	4770      	bx	lr
    2704:	1fff997c 	.word	0x1fff997c
    2708:	1fff8000 	.word	0x1fff8000
    270c:	1fff99f5 	.word	0x1fff99f5

00002710 <usb_rx>:


usb_packet_t *usb_rx(uint32_t endpoint)
{
	usb_packet_t *ret;
	endpoint--;
    2710:	1e43      	subs	r3, r0, #1
	if (endpoint >= NUM_ENDPOINTS) return NULL;
    2712:	2b03      	cmp	r3, #3
    2714:	d811      	bhi.n	273a <usb_rx+0x2a>
	__disable_irq();
    2716:	b672      	cpsid	i
	ret = rx_first[endpoint];
    2718:	4a0b      	ldr	r2, [pc, #44]	; (2748 <usb_rx+0x38>)
    271a:	f852 0023 	ldr.w	r0, [r2, r3, lsl #2]
	if (ret) {
    271e:	b180      	cbz	r0, 2742 <usb_rx+0x32>




usb_packet_t *usb_rx(uint32_t endpoint)
{
    2720:	b410      	push	{r4}
	endpoint--;
	if (endpoint >= NUM_ENDPOINTS) return NULL;
	__disable_irq();
	ret = rx_first[endpoint];
	if (ret) {
		rx_first[endpoint] = ret->next;
    2722:	6841      	ldr	r1, [r0, #4]
    2724:	f842 1023 	str.w	r1, [r2, r3, lsl #2]
		usb_rx_byte_count_data[endpoint] -= ret->len;
    2728:	4908      	ldr	r1, [pc, #32]	; (274c <usb_rx+0x3c>)
    272a:	f831 2013 	ldrh.w	r2, [r1, r3, lsl #1]
    272e:	8804      	ldrh	r4, [r0, #0]
    2730:	1b12      	subs	r2, r2, r4
    2732:	f821 2013 	strh.w	r2, [r1, r3, lsl #1]
	}
	__enable_irq();
    2736:	b662      	cpsie	i
	//serial_print("rx, epidx=");
	//serial_phex(endpoint);
	//serial_print(", packet=");
	//serial_phex32(ret);
	//serial_print("\n");
	return ret;
    2738:	e001      	b.n	273e <usb_rx+0x2e>

usb_packet_t *usb_rx(uint32_t endpoint)
{
	usb_packet_t *ret;
	endpoint--;
	if (endpoint >= NUM_ENDPOINTS) return NULL;
    273a:	2000      	movs	r0, #0
    273c:	4770      	bx	lr
	//serial_phex(endpoint);
	//serial_print(", packet=");
	//serial_phex32(ret);
	//serial_print("\n");
	return ret;
}
    273e:	bc10      	pop	{r4}
    2740:	4770      	bx	lr
	ret = rx_first[endpoint];
	if (ret) {
		rx_first[endpoint] = ret->next;
		usb_rx_byte_count_data[endpoint] -= ret->len;
	}
	__enable_irq();
    2742:	b662      	cpsie	i
	//serial_phex(endpoint);
	//serial_print(", packet=");
	//serial_phex32(ret);
	//serial_print("\n");
	return ret;
}
    2744:	4770      	bx	lr
    2746:	bf00      	nop
    2748:	1fff996c 	.word	0x1fff996c
    274c:	1fff9be8 	.word	0x1fff9be8

00002750 <usb_tx_packet_count>:
uint32_t usb_tx_packet_count(uint32_t endpoint)
{
	const usb_packet_t *p;
	uint32_t count=0;

	endpoint--;
    2750:	3801      	subs	r0, #1
	if (endpoint >= NUM_ENDPOINTS) return 0;
    2752:	2803      	cmp	r0, #3
    2754:	d80d      	bhi.n	2772 <usb_tx_packet_count+0x22>
	__disable_irq();
    2756:	b672      	cpsid	i
	for (p = tx_first[endpoint]; p; p = p->next) count++;
    2758:	4b07      	ldr	r3, [pc, #28]	; (2778 <usb_tx_packet_count+0x28>)
    275a:	f853 3020 	ldr.w	r3, [r3, r0, lsl #2]
    275e:	b12b      	cbz	r3, 276c <usb_tx_packet_count+0x1c>
    2760:	2000      	movs	r0, #0
    2762:	3001      	adds	r0, #1
    2764:	685b      	ldr	r3, [r3, #4]
    2766:	2b00      	cmp	r3, #0
    2768:	d1fb      	bne.n	2762 <usb_tx_packet_count+0x12>
    276a:	e000      	b.n	276e <usb_tx_packet_count+0x1e>
}

uint32_t usb_tx_packet_count(uint32_t endpoint)
{
	const usb_packet_t *p;
	uint32_t count=0;
    276c:	2000      	movs	r0, #0

	endpoint--;
	if (endpoint >= NUM_ENDPOINTS) return 0;
	__disable_irq();
	for (p = tx_first[endpoint]; p; p = p->next) count++;
	__enable_irq();
    276e:	b662      	cpsie	i
	return count;
    2770:	4770      	bx	lr
{
	const usb_packet_t *p;
	uint32_t count=0;

	endpoint--;
	if (endpoint >= NUM_ENDPOINTS) return 0;
    2772:	2000      	movs	r0, #0
	__disable_irq();
	for (p = tx_first[endpoint]; p; p = p->next) count++;
	__enable_irq();
	return count;
}
    2774:	4770      	bx	lr
    2776:	bf00      	nop
    2778:	1fff99c0 	.word	0x1fff99c0

0000277c <usb_rx_memory>:
// user is creating data very quickly, their consumption could starve reception
// without this prioritization.  The packet buffer (input) is assigned to the
// first endpoint needing memory.
//
void usb_rx_memory(usb_packet_t *packet)
{
    277c:	b538      	push	{r3, r4, r5, lr}
	unsigned int i;
	const uint8_t *cfg;

	cfg = usb_endpoint_config_table;
	//serial_print("rx_mem:");
	__disable_irq();
    277e:	b672      	cpsid	i
void usb_rx_memory(usb_packet_t *packet)
{
	unsigned int i;
	const uint8_t *cfg;

	cfg = usb_endpoint_config_table;
    2780:	491b      	ldr	r1, [pc, #108]	; (27f0 <usb_rx_memory+0x74>)
	//serial_print("rx_mem:");
	__disable_irq();
	for (i=1; i <= NUM_ENDPOINTS; i++) {
    2782:	2301      	movs	r3, #1
#ifdef AUDIO_INTERFACE
		if (i == AUDIO_RX_ENDPOINT) continue;
#endif
		if (*cfg++ & USB_ENDPT_EPRXEN) {
			if (table[index(i, RX, EVEN)].desc == 0) {
    2784:	4c1b      	ldr	r4, [pc, #108]	; (27f4 <usb_rx_memory+0x78>)
	__disable_irq();
	for (i=1; i <= NUM_ENDPOINTS; i++) {
#ifdef AUDIO_INTERFACE
		if (i == AUDIO_RX_ENDPOINT) continue;
#endif
		if (*cfg++ & USB_ENDPT_EPRXEN) {
    2786:	f811 2b01 	ldrb.w	r2, [r1], #1
    278a:	f012 0f08 	tst.w	r2, #8
    278e:	d024      	beq.n	27da <usb_rx_memory+0x5e>
			if (table[index(i, RX, EVEN)].desc == 0) {
    2790:	009a      	lsls	r2, r3, #2
    2792:	f854 5032 	ldr.w	r5, [r4, r2, lsl #3]
    2796:	b96d      	cbnz	r5, 27b4 <usb_rx_memory+0x38>
				table[index(i, RX, EVEN)].addr = packet->buf;
    2798:	4b16      	ldr	r3, [pc, #88]	; (27f4 <usb_rx_memory+0x78>)
    279a:	eb03 01c2 	add.w	r1, r3, r2, lsl #3
    279e:	3008      	adds	r0, #8
    27a0:	6048      	str	r0, [r1, #4]
				table[index(i, RX, EVEN)].desc = BDT_DESC(64, 0);
    27a2:	4915      	ldr	r1, [pc, #84]	; (27f8 <usb_rx_memory+0x7c>)
    27a4:	f843 1032 	str.w	r1, [r3, r2, lsl #3]
				usb_rx_memory_needed--;
    27a8:	4a14      	ldr	r2, [pc, #80]	; (27fc <usb_rx_memory+0x80>)
    27aa:	7813      	ldrb	r3, [r2, #0]
    27ac:	3b01      	subs	r3, #1
    27ae:	7013      	strb	r3, [r2, #0]
				__enable_irq();
    27b0:	b662      	cpsie	i
				//serial_phex(i);
				//serial_print(",even\n");
				return;
    27b2:	bd38      	pop	{r3, r4, r5, pc}
			}
			if (table[index(i, RX, ODD)].desc == 0) {
    27b4:	f042 0201 	orr.w	r2, r2, #1
    27b8:	f854 5032 	ldr.w	r5, [r4, r2, lsl #3]
    27bc:	b96d      	cbnz	r5, 27da <usb_rx_memory+0x5e>
				table[index(i, RX, ODD)].addr = packet->buf;
    27be:	4b0d      	ldr	r3, [pc, #52]	; (27f4 <usb_rx_memory+0x78>)
    27c0:	eb03 01c2 	add.w	r1, r3, r2, lsl #3
    27c4:	3008      	adds	r0, #8
    27c6:	6048      	str	r0, [r1, #4]
				table[index(i, RX, ODD)].desc = BDT_DESC(64, 1);
    27c8:	490d      	ldr	r1, [pc, #52]	; (2800 <usb_rx_memory+0x84>)
    27ca:	f843 1032 	str.w	r1, [r3, r2, lsl #3]
				usb_rx_memory_needed--;
    27ce:	4a0b      	ldr	r2, [pc, #44]	; (27fc <usb_rx_memory+0x80>)
    27d0:	7813      	ldrb	r3, [r2, #0]
    27d2:	3b01      	subs	r3, #1
    27d4:	7013      	strb	r3, [r2, #0]
				__enable_irq();
    27d6:	b662      	cpsie	i
				//serial_phex(i);
				//serial_print(",odd\n");
				return;
    27d8:	bd38      	pop	{r3, r4, r5, pc}
	const uint8_t *cfg;

	cfg = usb_endpoint_config_table;
	//serial_print("rx_mem:");
	__disable_irq();
	for (i=1; i <= NUM_ENDPOINTS; i++) {
    27da:	3301      	adds	r3, #1
    27dc:	2b05      	cmp	r3, #5
    27de:	d1d2      	bne.n	2786 <usb_rx_memory+0xa>
				//serial_print(",odd\n");
				return;
			}
		}
	}
	__enable_irq();
    27e0:	b662      	cpsie	i
	// we should never reach this point.  If we get here, it means
	// usb_rx_memory_needed was set greater than zero, but no memory
	// was actually needed.
	usb_rx_memory_needed = 0;
    27e2:	2200      	movs	r2, #0
    27e4:	4b05      	ldr	r3, [pc, #20]	; (27fc <usb_rx_memory+0x80>)
    27e6:	701a      	strb	r2, [r3, #0]
	usb_free(packet);
    27e8:	f000 fc40 	bl	306c <usb_free>
    27ec:	bd38      	pop	{r3, r4, r5, pc}
    27ee:	bf00      	nop
    27f0:	00008f68 	.word	0x00008f68
    27f4:	1fff8000 	.word	0x1fff8000
    27f8:	00400088 	.word	0x00400088
    27fc:	1fff99ea 	.word	0x1fff99ea
    2800:	004000c8 	.word	0x004000c8

00002804 <usb_tx>:
void usb_tx(uint32_t endpoint, usb_packet_t *packet)
{
	bdt_t *b = &table[index(endpoint, TX, EVEN)];
	uint8_t next;

	endpoint--;
    2804:	1e43      	subs	r3, r0, #1
	if (endpoint >= NUM_ENDPOINTS) return;
    2806:	2b03      	cmp	r3, #3
    2808:	d839      	bhi.n	287e <usb_tx+0x7a>

//#define index(endpoint, tx, odd) (((endpoint) << 2) | ((tx) << 1) | (odd))
//#define stat2bufferdescriptor(stat) (table + ((stat) >> 2))

void usb_tx(uint32_t endpoint, usb_packet_t *packet)
{
    280a:	b410      	push	{r4}
	bdt_t *b = &table[index(endpoint, TX, EVEN)];
    280c:	0140      	lsls	r0, r0, #5
    280e:	f040 0010 	orr.w	r0, r0, #16
    2812:	4a1b      	ldr	r2, [pc, #108]	; (2880 <usb_tx+0x7c>)
    2814:	4410      	add	r0, r2
	uint8_t next;

	endpoint--;
	if (endpoint >= NUM_ENDPOINTS) return;
	__disable_irq();
    2816:	b672      	cpsid	i
	//serial_print("txstate=");
	//serial_phex(tx_state[endpoint]);
	//serial_print("\n");
	switch (tx_state[endpoint]) {
    2818:	4a1a      	ldr	r2, [pc, #104]	; (2884 <usb_tx+0x80>)
    281a:	5cd2      	ldrb	r2, [r2, r3]
    281c:	2a03      	cmp	r2, #3
    281e:	d80b      	bhi.n	2838 <usb_tx+0x34>
    2820:	e8df f002 	tbb	[pc, r2]
    2824:	0702041b 	.word	0x0702041b
	  case TX_STATE_BOTH_FREE_ODD_FIRST:
		b++;
		next = TX_STATE_EVEN_FREE;
		break;
	  case TX_STATE_EVEN_FREE:
		next = TX_STATE_NONE_FREE_ODD_FIRST;
    2828:	2205      	movs	r2, #5
    282a:	e017      	b.n	285c <usb_tx+0x58>
	switch (tx_state[endpoint]) {
	  case TX_STATE_BOTH_FREE_EVEN_FIRST:
		next = TX_STATE_ODD_FREE;
		break;
	  case TX_STATE_BOTH_FREE_ODD_FIRST:
		b++;
    282c:	3008      	adds	r0, #8
		next = TX_STATE_EVEN_FREE;
    282e:	2202      	movs	r2, #2
		break;
    2830:	e014      	b.n	285c <usb_tx+0x58>
	  case TX_STATE_EVEN_FREE:
		next = TX_STATE_NONE_FREE_ODD_FIRST;
		break;
	  case TX_STATE_ODD_FREE:
		b++;
    2832:	3008      	adds	r0, #8
		next = TX_STATE_NONE_FREE_EVEN_FIRST;
    2834:	2204      	movs	r2, #4
		break;
    2836:	e011      	b.n	285c <usb_tx+0x58>
	  default:
		if (tx_first[endpoint] == NULL) {
    2838:	4a13      	ldr	r2, [pc, #76]	; (2888 <usb_tx+0x84>)
    283a:	f852 2023 	ldr.w	r2, [r2, r3, lsl #2]
    283e:	b91a      	cbnz	r2, 2848 <usb_tx+0x44>
			tx_first[endpoint] = packet;
    2840:	4a11      	ldr	r2, [pc, #68]	; (2888 <usb_tx+0x84>)
    2842:	f842 1023 	str.w	r1, [r2, r3, lsl #2]
    2846:	e003      	b.n	2850 <usb_tx+0x4c>
		} else {
			tx_last[endpoint]->next = packet;
    2848:	4a10      	ldr	r2, [pc, #64]	; (288c <usb_tx+0x88>)
    284a:	f852 2023 	ldr.w	r2, [r2, r3, lsl #2]
    284e:	6051      	str	r1, [r2, #4]
		}
		tx_last[endpoint] = packet;
    2850:	4a0e      	ldr	r2, [pc, #56]	; (288c <usb_tx+0x88>)
    2852:	f842 1023 	str.w	r1, [r2, r3, lsl #2]
		__enable_irq();
    2856:	b662      	cpsie	i
		return;
    2858:	e010      	b.n	287c <usb_tx+0x78>
	//serial_print("txstate=");
	//serial_phex(tx_state[endpoint]);
	//serial_print("\n");
	switch (tx_state[endpoint]) {
	  case TX_STATE_BOTH_FREE_EVEN_FIRST:
		next = TX_STATE_ODD_FREE;
    285a:	2203      	movs	r2, #3
		}
		tx_last[endpoint] = packet;
		__enable_irq();
		return;
	}
	tx_state[endpoint] = next;
    285c:	4c09      	ldr	r4, [pc, #36]	; (2884 <usb_tx+0x80>)
    285e:	54e2      	strb	r2, [r4, r3]
	b->addr = packet->buf;
    2860:	f101 0308 	add.w	r3, r1, #8
    2864:	6043      	str	r3, [r0, #4]
	b->desc = BDT_DESC(packet->len, ((uint32_t)b & 8) ? DATA1 : DATA0);
    2866:	f000 0308 	and.w	r3, r0, #8
    286a:	2b00      	cmp	r3, #0
    286c:	bf14      	ite	ne
    286e:	23c8      	movne	r3, #200	; 0xc8
    2870:	2388      	moveq	r3, #136	; 0x88
    2872:	880a      	ldrh	r2, [r1, #0]
    2874:	ea43 4302 	orr.w	r3, r3, r2, lsl #16
    2878:	6003      	str	r3, [r0, #0]
	__enable_irq();
    287a:	b662      	cpsie	i
}
    287c:	bc10      	pop	{r4}
    287e:	4770      	bx	lr
    2880:	1fff8000 	.word	0x1fff8000
    2884:	1fff9928 	.word	0x1fff9928
    2888:	1fff99c0 	.word	0x1fff99c0
    288c:	1fff99d0 	.word	0x1fff99d0

00002890 <usb_isr>:
}



void usb_isr(void)
{
    2890:	e92d 4ff0 	stmdb	sp!, {r4, r5, r6, r7, r8, r9, sl, fp, lr}
    2894:	b085      	sub	sp, #20
	//serial_print("isr");
	//status = USB0_ISTAT;
	//serial_phex(status);
	//serial_print("\n");
	restart:
	status = USB0_ISTAT;
    2896:	4cab      	ldr	r4, [pc, #684]	; (2b44 <usb_isr+0x2b4>)
		USB0_ISTAT = USB_ISTAT_SOFTOK;
	}

	if ((status & USB_ISTAT_TOKDNE /* 08 */ )) {
		uint8_t endpoint;
		stat = USB0_STAT;
    2898:	f8df a2f8 	ldr.w	sl, [pc, #760]	; 2b94 <usb_isr+0x304>
	//default:
		//serial_print("PID=unknown:");
		//serial_phex(pid);
		//serial_print("\n");
	}
	USB0_CTL = USB_CTL_USBENSOFEN; // clear TXSUSPENDTOKENBUSY bit
    289c:	f8df b2f8 	ldr.w	fp, [pc, #760]	; 2b98 <usb_isr+0x308>
	//serial_print("isr");
	//status = USB0_ISTAT;
	//serial_phex(status);
	//serial_print("\n");
	restart:
	status = USB0_ISTAT;
    28a0:	7825      	ldrb	r5, [r4, #0]
    28a2:	b2ed      	uxtb	r5, r5

	if ((status & USB_ISTAT_SOFTOK /* 04 */ )) {
    28a4:	f015 0f04 	tst.w	r5, #4
    28a8:	d01d      	beq.n	28e6 <usb_isr+0x56>
		if (usb_configuration) {
    28aa:	4ba7      	ldr	r3, [pc, #668]	; (2b48 <usb_isr+0x2b8>)
    28ac:	781b      	ldrb	r3, [r3, #0]
    28ae:	f013 0fff 	tst.w	r3, #255	; 0xff
    28b2:	d016      	beq.n	28e2 <usb_isr+0x52>
			t = usb_reboot_timer;
    28b4:	4ba5      	ldr	r3, [pc, #660]	; (2b4c <usb_isr+0x2bc>)
    28b6:	781a      	ldrb	r2, [r3, #0]
			if (t) {
    28b8:	f002 03ff 	and.w	r3, r2, #255	; 0xff
    28bc:	b12a      	cbz	r2, 28ca <usb_isr+0x3a>
				usb_reboot_timer = --t;
    28be:	3b01      	subs	r3, #1
    28c0:	b2db      	uxtb	r3, r3
    28c2:	4aa2      	ldr	r2, [pc, #648]	; (2b4c <usb_isr+0x2bc>)
    28c4:	7013      	strb	r3, [r2, #0]
				if (!t) _reboot_Teensyduino_();
    28c6:	b903      	cbnz	r3, 28ca <usb_isr+0x3a>


void _reboot_Teensyduino_(void)
{
	// TODO: initialize R0 with a code....
	__asm__ volatile("bkpt");
    28c8:	be00      	bkpt	0x0000
			if (t) {
				usb_reboot_timer = --t;
				if (!t) _reboot_Teensyduino_();
			}
#ifdef CDC_DATA_INTERFACE
			t = usb_cdc_transmit_flush_timer;
    28ca:	4ba1      	ldr	r3, [pc, #644]	; (2b50 <usb_isr+0x2c0>)
    28cc:	781a      	ldrb	r2, [r3, #0]
			if (t) {
    28ce:	f002 03ff 	and.w	r3, r2, #255	; 0xff
    28d2:	b132      	cbz	r2, 28e2 <usb_isr+0x52>
				usb_cdc_transmit_flush_timer = --t;
    28d4:	3b01      	subs	r3, #1
    28d6:	b2db      	uxtb	r3, r3
    28d8:	4a9d      	ldr	r2, [pc, #628]	; (2b50 <usb_isr+0x2c0>)
    28da:	7013      	strb	r3, [r2, #0]
				if (t == 0) usb_serial_flush_callback();
    28dc:	b90b      	cbnz	r3, 28e2 <usb_isr+0x52>
    28de:	f000 fd49 	bl	3374 <usb_serial_flush_callback>
#endif
#ifdef MULTITOUCH_INTERFACE
			usb_touchscreen_update_callback();
#endif
		}
		USB0_ISTAT = USB_ISTAT_SOFTOK;
    28e2:	2304      	movs	r3, #4
    28e4:	7023      	strb	r3, [r4, #0]
	}

	if ((status & USB_ISTAT_TOKDNE /* 08 */ )) {
    28e6:	f015 0f08 	tst.w	r5, #8
    28ea:	f000 82ef 	beq.w	2ecc <usb_isr+0x63c>
		uint8_t endpoint;
		stat = USB0_STAT;
    28ee:	f89a 3000 	ldrb.w	r3, [sl]
    28f2:	b2db      	uxtb	r3, r3
		//serial_print("token: ep=");
		//serial_phex(stat >> 4);
		//serial_print(stat & 0x08 ? ",tx" : ",rx");
		//serial_print(stat & 0x04 ? ",odd\n" : ",even\n");
		endpoint = stat >> 4;
		if (endpoint == 0) {
    28f4:	091d      	lsrs	r5, r3, #4
    28f6:	f040 822a 	bne.w	2d4e <usb_isr+0x4be>
	bdt_t *b;
	uint32_t pid, size;
	uint8_t *buf;
	const uint8_t *data;

	b = stat2bufferdescriptor(stat);
    28fa:	4e96      	ldr	r6, [pc, #600]	; (2b54 <usb_isr+0x2c4>)
    28fc:	089d      	lsrs	r5, r3, #2
    28fe:	eb06 03c5 	add.w	r3, r6, r5, lsl #3
	pid = BDT_PID(b->desc);
	//count = b->desc >> 16;
	buf = b->addr;
    2902:	685a      	ldr	r2, [r3, #4]
	//serial_phex(pid);
	//serial_print(", count:");
	//serial_phex(count);
	//serial_print("\n");

	switch (pid) {
    2904:	f856 3035 	ldr.w	r3, [r6, r5, lsl #3]
    2908:	f3c3 0383 	ubfx	r3, r3, #2, #4
    290c:	3b01      	subs	r3, #1
    290e:	2b0c      	cmp	r3, #12
    2910:	f200 8219 	bhi.w	2d46 <usb_isr+0x4b6>
    2914:	e8df f013 	tbh	[pc, r3, lsl #1]
    2918:	01d401d4 	.word	0x01d401d4
    291c:	02170217 	.word	0x02170217
    2920:	02170217 	.word	0x02170217
    2924:	02170217 	.word	0x02170217
    2928:	021701f1 	.word	0x021701f1
    292c:	02170217 	.word	0x02170217
    2930:	000d      	.short	0x000d
	case 0x0D: // Setup received from host
		//serial_print("PID=Setup\n");
		//if (count != 8) ; // panic?
		// grab the 8 byte setup info
		setup.word1 = *(uint32_t *)(buf);
    2932:	4989      	ldr	r1, [pc, #548]	; (2b58 <usb_isr+0x2c8>)
    2934:	6813      	ldr	r3, [r2, #0]
    2936:	600b      	str	r3, [r1, #0]
		setup.word2 = *(uint32_t *)(buf + 4);
    2938:	6852      	ldr	r2, [r2, #4]
    293a:	604a      	str	r2, [r1, #4]

		// give the buffer back
		b->desc = BDT_DESC(EP0_SIZE, DATA1);
    293c:	4a87      	ldr	r2, [pc, #540]	; (2b5c <usb_isr+0x2cc>)
    293e:	f846 2035 	str.w	r2, [r6, r5, lsl #3]
		//table[index(0, RX, EVEN)].desc = BDT_DESC(EP0_SIZE, 1);
		//table[index(0, RX, ODD)].desc = BDT_DESC(EP0_SIZE, 1);

		// clear any leftover pending IN transactions
		ep0_tx_ptr = NULL;
    2942:	2200      	movs	r2, #0
    2944:	4986      	ldr	r1, [pc, #536]	; (2b60 <usb_isr+0x2d0>)
    2946:	600a      	str	r2, [r1, #0]
			//serial_print("leftover tx even\n");
		//}
		//if (table[index(0, TX, ODD)].desc & 0x80) {
			//serial_print("leftover tx odd\n");
		//}
		table[index(0, TX, EVEN)].desc = 0;
    2948:	4982      	ldr	r1, [pc, #520]	; (2b54 <usb_isr+0x2c4>)
    294a:	610a      	str	r2, [r1, #16]
		table[index(0, TX, ODD)].desc = 0;
    294c:	618a      	str	r2, [r1, #24]
		// first IN after Setup is always DATA1
		ep0_tx_data_toggle = 1;
    294e:	2101      	movs	r1, #1
    2950:	4a84      	ldr	r2, [pc, #528]	; (2b64 <usb_isr+0x2d4>)
    2952:	7011      	strb	r1, [r2, #0]
	volatile uint8_t *reg;
	uint8_t epconf;
	const uint8_t *cfg;
	int i;

	switch (setup.wRequestAndType) {
    2954:	b29b      	uxth	r3, r3
    2956:	f240 6281 	movw	r2, #1665	; 0x681
    295a:	4293      	cmp	r3, r2
    295c:	d818      	bhi.n	2990 <usb_isr+0x100>
    295e:	f5b3 6fd0 	cmp.w	r3, #1664	; 0x680
    2962:	d22e      	bcs.n	29c2 <usb_isr+0x132>
    2964:	f5b3 7f81 	cmp.w	r3, #258	; 0x102
    2968:	f000 812d 	beq.w	2bc6 <usb_isr+0x336>
    296c:	d806      	bhi.n	297c <usb_isr+0xec>
    296e:	2b80      	cmp	r3, #128	; 0x80
    2970:	f000 80d7 	beq.w	2b22 <usb_isr+0x292>
    2974:	2b82      	cmp	r3, #130	; 0x82
    2976:	f000 80da 	beq.w	2b2e <usb_isr+0x29e>
    297a:	e16f      	b.n	2c5c <usb_isr+0x3cc>
    297c:	f240 3202 	movw	r2, #770	; 0x302
    2980:	4293      	cmp	r3, r2
    2982:	f000 8135 	beq.w	2bf0 <usb_isr+0x360>
    2986:	f5b3 6fa0 	cmp.w	r3, #1280	; 0x500
    298a:	f000 816b 	beq.w	2c64 <usb_isr+0x3d4>
    298e:	e165      	b.n	2c5c <usb_isr+0x3cc>
    2990:	f242 0221 	movw	r2, #8225	; 0x2021
    2994:	4293      	cmp	r3, r2
    2996:	f000 818f 	beq.w	2cb8 <usb_isr+0x428>
    299a:	d807      	bhi.n	29ac <usb_isr+0x11c>
    299c:	f5b3 6f08 	cmp.w	r3, #2176	; 0x880
    29a0:	f000 80b9 	beq.w	2b16 <usb_isr+0x286>
    29a4:	f5b3 6f10 	cmp.w	r3, #2304	; 0x900
    29a8:	d011      	beq.n	29ce <usb_isr+0x13e>
    29aa:	e157      	b.n	2c5c <usb_isr+0x3cc>
    29ac:	f242 2221 	movw	r2, #8737	; 0x2221
    29b0:	4293      	cmp	r3, r2
    29b2:	f000 814a 	beq.w	2c4a <usb_isr+0x3ba>
    29b6:	f242 3221 	movw	r2, #8993	; 0x2321
    29ba:	4293      	cmp	r3, r2
    29bc:	f000 8152 	beq.w	2c64 <usb_isr+0x3d4>
    29c0:	e14c      	b.n	2c5c <usb_isr+0x3cc>
	  case 0x0681:
		//serial_print("desc:");
		//serial_phex16(setup.wValue);
		//serial_print("\n");
		for (list = usb_descriptor_list; 1; list++) {
			if (list->addr == NULL) break;
    29c2:	4b69      	ldr	r3, [pc, #420]	; (2b68 <usb_isr+0x2d8>)
    29c4:	685d      	ldr	r5, [r3, #4]
    29c6:	2d00      	cmp	r5, #0
    29c8:	f040 8127 	bne.w	2c1a <usb_isr+0x38a>
    29cc:	e139      	b.n	2c42 <usb_isr+0x3b2>
	switch (setup.wRequestAndType) {
	  case 0x0500: // SET_ADDRESS
		break;
	  case 0x0900: // SET_CONFIGURATION
		//serial_print("configure\n");
		usb_configuration = setup.wValue;
    29ce:	4b62      	ldr	r3, [pc, #392]	; (2b58 <usb_isr+0x2c8>)
    29d0:	789a      	ldrb	r2, [r3, #2]
    29d2:	4b5d      	ldr	r3, [pc, #372]	; (2b48 <usb_isr+0x2b8>)
    29d4:	701a      	strb	r2, [r3, #0]
    29d6:	4d5f      	ldr	r5, [pc, #380]	; (2b54 <usb_isr+0x2c4>)
    29d8:	f105 0680 	add.w	r6, r5, #128	; 0x80
		reg = &USB0_ENDPT1;
		cfg = usb_endpoint_config_table;
		// clear all BDT entries, free any allocated memory...
		for (i=4; i < (NUM_ENDPOINTS+1)*4; i++) {
			if (table[i].desc & BDT_OWN) {
    29dc:	6a2b      	ldr	r3, [r5, #32]
    29de:	f013 0f80 	tst.w	r3, #128	; 0x80
    29e2:	d003      	beq.n	29ec <usb_isr+0x15c>
				usb_free((usb_packet_t *)((uint8_t *)(table[i].addr) - 8));
    29e4:	6a68      	ldr	r0, [r5, #36]	; 0x24
    29e6:	3808      	subs	r0, #8
    29e8:	f000 fb40 	bl	306c <usb_free>
    29ec:	3508      	adds	r5, #8
		//serial_print("configure\n");
		usb_configuration = setup.wValue;
		reg = &USB0_ENDPT1;
		cfg = usb_endpoint_config_table;
		// clear all BDT entries, free any allocated memory...
		for (i=4; i < (NUM_ENDPOINTS+1)*4; i++) {
    29ee:	42b5      	cmp	r5, r6
    29f0:	d1f4      	bne.n	29dc <usb_isr+0x14c>
    29f2:	4b5e      	ldr	r3, [pc, #376]	; (2b6c <usb_isr+0x2dc>)
    29f4:	9300      	str	r3, [sp, #0]
    29f6:	f8df 81a4 	ldr.w	r8, [pc, #420]	; 2b9c <usb_isr+0x30c>
    29fa:	4b5d      	ldr	r3, [pc, #372]	; (2b70 <usb_isr+0x2e0>)
    29fc:	9301      	str	r3, [sp, #4]
    29fe:	f8df 91a0 	ldr.w	r9, [pc, #416]	; 2ba0 <usb_isr+0x310>
    2a02:	2700      	movs	r7, #0
			while (p) {
				n = p->next;
				usb_free(p);
				p = n;
			}
			rx_first[i] = NULL;
    2a04:	463e      	mov	r6, r7
    2a06:	9b00      	ldr	r3, [sp, #0]
    2a08:	9302      	str	r3, [sp, #8]
			}
		}
		// free all queued packets
		for (i=0; i < NUM_ENDPOINTS; i++) {
			usb_packet_t *p, *n;
			p = rx_first[i];
    2a0a:	6818      	ldr	r0, [r3, #0]
			while (p) {
    2a0c:	b128      	cbz	r0, 2a1a <usb_isr+0x18a>
				n = p->next;
    2a0e:	6845      	ldr	r5, [r0, #4]
				usb_free(p);
    2a10:	f000 fb2c 	bl	306c <usb_free>
				p = n;
    2a14:	4628      	mov	r0, r5
		}
		// free all queued packets
		for (i=0; i < NUM_ENDPOINTS; i++) {
			usb_packet_t *p, *n;
			p = rx_first[i];
			while (p) {
    2a16:	2d00      	cmp	r5, #0
    2a18:	d1f9      	bne.n	2a0e <usb_isr+0x17e>
				n = p->next;
				usb_free(p);
				p = n;
			}
			rx_first[i] = NULL;
    2a1a:	9b02      	ldr	r3, [sp, #8]
    2a1c:	601e      	str	r6, [r3, #0]
    2a1e:	9702      	str	r7, [sp, #8]
			rx_last[i] = NULL;
    2a20:	4b54      	ldr	r3, [pc, #336]	; (2b74 <usb_isr+0x2e4>)
    2a22:	f843 6027 	str.w	r6, [r3, r7, lsl #2]
    2a26:	f8cd 800c 	str.w	r8, [sp, #12]
			p = tx_first[i];
    2a2a:	f8d8 0000 	ldr.w	r0, [r8]
			while (p) {
    2a2e:	b128      	cbz	r0, 2a3c <usb_isr+0x1ac>
				n = p->next;
    2a30:	6845      	ldr	r5, [r0, #4]
				usb_free(p);
    2a32:	f000 fb1b 	bl	306c <usb_free>
				p = n;
    2a36:	4628      	mov	r0, r5
				p = n;
			}
			rx_first[i] = NULL;
			rx_last[i] = NULL;
			p = tx_first[i];
			while (p) {
    2a38:	2d00      	cmp	r5, #0
    2a3a:	d1f9      	bne.n	2a30 <usb_isr+0x1a0>
				n = p->next;
				usb_free(p);
				p = n;
			}
			tx_first[i] = NULL;
    2a3c:	9b03      	ldr	r3, [sp, #12]
    2a3e:	601e      	str	r6, [r3, #0]
			tx_last[i] = NULL;
    2a40:	9b01      	ldr	r3, [sp, #4]
    2a42:	f843 6b04 	str.w	r6, [r3], #4
    2a46:	9301      	str	r3, [sp, #4]
			usb_rx_byte_count_data[i] = 0;
    2a48:	4b4b      	ldr	r3, [pc, #300]	; (2b78 <usb_isr+0x2e8>)
    2a4a:	9a02      	ldr	r2, [sp, #8]
    2a4c:	f823 6012 	strh.w	r6, [r3, r2, lsl #1]
			switch (tx_state[i]) {
    2a50:	f899 3000 	ldrb.w	r3, [r9]
    2a54:	3b02      	subs	r3, #2
    2a56:	2b03      	cmp	r3, #3
    2a58:	d809      	bhi.n	2a6e <usb_isr+0x1de>
    2a5a:	e8df f003 	tbb	[pc, r3]
    2a5e:	0502      	.short	0x0502
    2a60:	0502      	.short	0x0502
			  case TX_STATE_EVEN_FREE:
			  case TX_STATE_NONE_FREE_EVEN_FIRST:
				tx_state[i] = TX_STATE_BOTH_FREE_EVEN_FIRST;
    2a62:	f889 6000 	strb.w	r6, [r9]
    2a66:	e002      	b.n	2a6e <usb_isr+0x1de>
				break;
			  case TX_STATE_ODD_FREE:
			  case TX_STATE_NONE_FREE_ODD_FIRST:
				tx_state[i] = TX_STATE_BOTH_FREE_ODD_FIRST;
    2a68:	2301      	movs	r3, #1
    2a6a:	f889 3000 	strb.w	r3, [r9]
			if (table[i].desc & BDT_OWN) {
				usb_free((usb_packet_t *)((uint8_t *)(table[i].addr) - 8));
			}
		}
		// free all queued packets
		for (i=0; i < NUM_ENDPOINTS; i++) {
    2a6e:	3701      	adds	r7, #1
    2a70:	9b00      	ldr	r3, [sp, #0]
    2a72:	3304      	adds	r3, #4
    2a74:	9300      	str	r3, [sp, #0]
    2a76:	f108 0804 	add.w	r8, r8, #4
    2a7a:	f109 0901 	add.w	r9, r9, #1
    2a7e:	2f04      	cmp	r7, #4
    2a80:	d1c1      	bne.n	2a06 <usb_isr+0x176>
				break;
			  default:
				break;
			}
		}
		usb_rx_memory_needed = 0;
    2a82:	2200      	movs	r2, #0
    2a84:	4b3d      	ldr	r3, [pc, #244]	; (2b7c <usb_isr+0x2ec>)
    2a86:	701a      	strb	r2, [r3, #0]
		for (i=1; i <= NUM_ENDPOINTS; i++) {
    2a88:	2501      	movs	r5, #1
	  case 0x0500: // SET_ADDRESS
		break;
	  case 0x0900: // SET_CONFIGURATION
		//serial_print("configure\n");
		usb_configuration = setup.wValue;
		reg = &USB0_ENDPT1;
    2a8a:	4e3d      	ldr	r6, [pc, #244]	; (2b80 <usb_isr+0x2f0>)
		cfg = usb_endpoint_config_table;
    2a8c:	f8df 9114 	ldr.w	r9, [pc, #276]	; 2ba4 <usb_isr+0x314>
				p = usb_malloc();
				if (p) {
					table[index(i, RX, ODD)].addr = p->buf;
					table[index(i, RX, ODD)].desc = BDT_DESC(64, 1);
				} else {
					table[index(i, RX, ODD)].desc = 0;
    2a90:	4f30      	ldr	r7, [pc, #192]	; (2b54 <usb_isr+0x2c4>)
    2a92:	4690      	mov	r8, r2
				break;
			}
		}
		usb_rx_memory_needed = 0;
		for (i=1; i <= NUM_ENDPOINTS; i++) {
			epconf = *cfg++;
    2a94:	f819 3b01 	ldrb.w	r3, [r9], #1
			*reg = epconf;
    2a98:	f806 3b04 	strb.w	r3, [r6], #4
				table[index(i, RX, EVEN)].desc = (AUDIO_RX_SIZE<<16) | BDT_OWN;
				table[index(i, RX, ODD)].addr = usb_audio_receive_buffer;
				table[index(i, RX, ODD)].desc = (AUDIO_RX_SIZE<<16) | BDT_OWN;
			} else
#endif
			if (epconf & USB_ENDPT_EPRXEN) {
    2a9c:	f013 0f08 	tst.w	r3, #8
    2aa0:	d02b      	beq.n	2afa <usb_isr+0x26a>
				usb_packet_t *p;
				p = usb_malloc();
    2aa2:	f000 fac3 	bl	302c <usb_malloc>
				if (p) {
    2aa6:	4603      	mov	r3, r0
    2aa8:	b140      	cbz	r0, 2abc <usb_isr+0x22c>
					table[index(i, RX, EVEN)].addr = p->buf;
    2aaa:	00aa      	lsls	r2, r5, #2
    2aac:	eb07 1145 	add.w	r1, r7, r5, lsl #5
    2ab0:	3308      	adds	r3, #8
    2ab2:	604b      	str	r3, [r1, #4]
					table[index(i, RX, EVEN)].desc = BDT_DESC(64, 0);
    2ab4:	4933      	ldr	r1, [pc, #204]	; (2b84 <usb_isr+0x2f4>)
    2ab6:	f847 1032 	str.w	r1, [r7, r2, lsl #3]
    2aba:	e006      	b.n	2aca <usb_isr+0x23a>
				} else {
					table[index(i, RX, EVEN)].desc = 0;
    2abc:	00ab      	lsls	r3, r5, #2
    2abe:	f847 8033 	str.w	r8, [r7, r3, lsl #3]
					usb_rx_memory_needed++;
    2ac2:	4a2e      	ldr	r2, [pc, #184]	; (2b7c <usb_isr+0x2ec>)
    2ac4:	7813      	ldrb	r3, [r2, #0]
    2ac6:	3301      	adds	r3, #1
    2ac8:	7013      	strb	r3, [r2, #0]
				}
				p = usb_malloc();
    2aca:	f000 faaf 	bl	302c <usb_malloc>
				if (p) {
    2ace:	4602      	mov	r2, r0
    2ad0:	b150      	cbz	r0, 2ae8 <usb_isr+0x258>
					table[index(i, RX, ODD)].addr = p->buf;
    2ad2:	00ab      	lsls	r3, r5, #2
    2ad4:	f043 0301 	orr.w	r3, r3, #1
    2ad8:	eb07 01c3 	add.w	r1, r7, r3, lsl #3
    2adc:	3208      	adds	r2, #8
    2ade:	604a      	str	r2, [r1, #4]
					table[index(i, RX, ODD)].desc = BDT_DESC(64, 1);
    2ae0:	4a1e      	ldr	r2, [pc, #120]	; (2b5c <usb_isr+0x2cc>)
    2ae2:	f847 2033 	str.w	r2, [r7, r3, lsl #3]
    2ae6:	e008      	b.n	2afa <usb_isr+0x26a>
				} else {
					table[index(i, RX, ODD)].desc = 0;
    2ae8:	00ab      	lsls	r3, r5, #2
    2aea:	f043 0301 	orr.w	r3, r3, #1
    2aee:	f847 8033 	str.w	r8, [r7, r3, lsl #3]
					usb_rx_memory_needed++;
    2af2:	4a22      	ldr	r2, [pc, #136]	; (2b7c <usb_isr+0x2ec>)
    2af4:	7813      	ldrb	r3, [r2, #0]
    2af6:	3301      	adds	r3, #1
    2af8:	7013      	strb	r3, [r2, #0]
				}
			}
			table[index(i, TX, EVEN)].desc = 0;
    2afa:	00ab      	lsls	r3, r5, #2
    2afc:	f043 0202 	orr.w	r2, r3, #2
    2b00:	f847 8032 	str.w	r8, [r7, r2, lsl #3]
			table[index(i, TX, ODD)].desc = 0;
    2b04:	f043 0303 	orr.w	r3, r3, #3
    2b08:	f847 8033 	str.w	r8, [r7, r3, lsl #3]
			  default:
				break;
			}
		}
		usb_rx_memory_needed = 0;
		for (i=1; i <= NUM_ENDPOINTS; i++) {
    2b0c:	3501      	adds	r5, #1
    2b0e:	4b1e      	ldr	r3, [pc, #120]	; (2b88 <usb_isr+0x2f8>)
    2b10:	429e      	cmp	r6, r3
    2b12:	d1bf      	bne.n	2a94 <usb_isr+0x204>
    2b14:	e219      	b.n	2f4a <usb_isr+0x6ba>
			}
#endif
		}
		break;
	  case 0x0880: // GET_CONFIGURATION
		reply_buffer[0] = usb_configuration;
    2b16:	4b0c      	ldr	r3, [pc, #48]	; (2b48 <usb_isr+0x2b8>)
    2b18:	781b      	ldrb	r3, [r3, #0]
    2b1a:	4d1c      	ldr	r5, [pc, #112]	; (2b8c <usb_isr+0x2fc>)
    2b1c:	702b      	strb	r3, [r5, #0]
		datalen = 1;
    2b1e:	2301      	movs	r3, #1
    2b20:	e0a5      	b.n	2c6e <usb_isr+0x3de>
		data = reply_buffer;
		break;
	  case 0x0080: // GET_STATUS (device)
		reply_buffer[0] = 0;
    2b22:	4d1a      	ldr	r5, [pc, #104]	; (2b8c <usb_isr+0x2fc>)
    2b24:	2300      	movs	r3, #0
    2b26:	702b      	strb	r3, [r5, #0]
		reply_buffer[1] = 0;
    2b28:	706b      	strb	r3, [r5, #1]
		datalen = 2;
    2b2a:	2302      	movs	r3, #2
    2b2c:	e09f      	b.n	2c6e <usb_isr+0x3de>
		data = reply_buffer;
		break;
	  case 0x0082: // GET_STATUS (endpoint)
		i = setup.wIndex & 0x7F;
    2b2e:	4b0a      	ldr	r3, [pc, #40]	; (2b58 <usb_isr+0x2c8>)
    2b30:	889b      	ldrh	r3, [r3, #4]
    2b32:	f003 037f 	and.w	r3, r3, #127	; 0x7f
		if (i > NUM_ENDPOINTS) {
    2b36:	2b04      	cmp	r3, #4
    2b38:	dd36      	ble.n	2ba8 <usb_isr+0x318>
volatile uint8_t usb_reboot_timer = 0;


static void endpoint0_stall(void)
{
	USB0_ENDPT0 = USB_ENDPT_EPSTALL | USB_ENDPT_EPRXEN | USB_ENDPT_EPTXEN | USB_ENDPT_EPHSHK;
    2b3a:	220f      	movs	r2, #15
    2b3c:	4b14      	ldr	r3, [pc, #80]	; (2b90 <usb_isr+0x300>)
    2b3e:	701a      	strb	r2, [r3, #0]
    2b40:	e0ba      	b.n	2cb8 <usb_isr+0x428>
    2b42:	bf00      	nop
    2b44:	40072080 	.word	0x40072080
    2b48:	1fff99f4 	.word	0x1fff99f4
    2b4c:	1fff997d 	.word	0x1fff997d
    2b50:	1fff99f6 	.word	0x1fff99f6
    2b54:	1fff8000 	.word	0x1fff8000
    2b58:	1fff99e0 	.word	0x1fff99e0
    2b5c:	004000c8 	.word	0x004000c8
    2b60:	1fff9914 	.word	0x1fff9914
    2b64:	1fff99f5 	.word	0x1fff99f5
    2b68:	00008f6c 	.word	0x00008f6c
    2b6c:	1fff996c 	.word	0x1fff996c
    2b70:	1fff99d0 	.word	0x1fff99d0
    2b74:	1fff9918 	.word	0x1fff9918
    2b78:	1fff9be8 	.word	0x1fff9be8
    2b7c:	1fff99ea 	.word	0x1fff99ea
    2b80:	400720c4 	.word	0x400720c4
    2b84:	00400088 	.word	0x00400088
    2b88:	400720d4 	.word	0x400720d4
    2b8c:	1fff99ec 	.word	0x1fff99ec
    2b90:	400720c0 	.word	0x400720c0
    2b94:	40072090 	.word	0x40072090
    2b98:	40072094 	.word	0x40072094
    2b9c:	1fff99c0 	.word	0x1fff99c0
    2ba0:	1fff9928 	.word	0x1fff9928
    2ba4:	00008f68 	.word	0x00008f68
		if (i > NUM_ENDPOINTS) {
			// TODO: do we need to handle IN vs OUT here?
			endpoint0_stall();
			return;
		}
		reply_buffer[0] = 0;
    2ba8:	4a9d      	ldr	r2, [pc, #628]	; (2e20 <usb_isr+0x590>)
    2baa:	2100      	movs	r1, #0
    2bac:	7011      	strb	r1, [r2, #0]
		reply_buffer[1] = 0;
    2bae:	7051      	strb	r1, [r2, #1]
		if (*(uint8_t *)(&USB0_ENDPT0 + i * 4) & 0x02) reply_buffer[0] = 1;
    2bb0:	4a9c      	ldr	r2, [pc, #624]	; (2e24 <usb_isr+0x594>)
    2bb2:	f812 3023 	ldrb.w	r3, [r2, r3, lsl #2]
    2bb6:	f013 0f02 	tst.w	r3, #2
    2bba:	d056      	beq.n	2c6a <usb_isr+0x3da>
    2bbc:	4d98      	ldr	r5, [pc, #608]	; (2e20 <usb_isr+0x590>)
    2bbe:	2301      	movs	r3, #1
    2bc0:	702b      	strb	r3, [r5, #0]
		data = reply_buffer;
		datalen = 2;
    2bc2:	2302      	movs	r3, #2
    2bc4:	e053      	b.n	2c6e <usb_isr+0x3de>
		break;
	  case 0x0102: // CLEAR_FEATURE (endpoint)
		i = setup.wIndex & 0x7F;
    2bc6:	4b98      	ldr	r3, [pc, #608]	; (2e28 <usb_isr+0x598>)
    2bc8:	889b      	ldrh	r3, [r3, #4]
    2bca:	f003 037f 	and.w	r3, r3, #127	; 0x7f
		if (i > NUM_ENDPOINTS || setup.wValue != 0) {
    2bce:	2b04      	cmp	r3, #4
    2bd0:	dc02      	bgt.n	2bd8 <usb_isr+0x348>
    2bd2:	4a95      	ldr	r2, [pc, #596]	; (2e28 <usb_isr+0x598>)
    2bd4:	8852      	ldrh	r2, [r2, #2]
    2bd6:	b11a      	cbz	r2, 2be0 <usb_isr+0x350>
volatile uint8_t usb_reboot_timer = 0;


static void endpoint0_stall(void)
{
	USB0_ENDPT0 = USB_ENDPT_EPSTALL | USB_ENDPT_EPRXEN | USB_ENDPT_EPTXEN | USB_ENDPT_EPHSHK;
    2bd8:	220f      	movs	r2, #15
    2bda:	4b92      	ldr	r3, [pc, #584]	; (2e24 <usb_isr+0x594>)
    2bdc:	701a      	strb	r2, [r3, #0]
    2bde:	e06b      	b.n	2cb8 <usb_isr+0x428>
		if (i > NUM_ENDPOINTS || setup.wValue != 0) {
			// TODO: do we need to handle IN vs OUT here?
			endpoint0_stall();
			return;
		}
		(*(uint8_t *)(&USB0_ENDPT0 + i * 4)) &= ~0x02;
    2be0:	4990      	ldr	r1, [pc, #576]	; (2e24 <usb_isr+0x594>)
    2be2:	f811 2023 	ldrb.w	r2, [r1, r3, lsl #2]
    2be6:	f022 0202 	bic.w	r2, r2, #2
    2bea:	f801 2023 	strb.w	r2, [r1, r3, lsl #2]
    2bee:	e1ac      	b.n	2f4a <usb_isr+0x6ba>
		// TODO: do we need to clear the data toggle here?
		break;
	  case 0x0302: // SET_FEATURE (endpoint)
		i = setup.wIndex & 0x7F;
    2bf0:	4b8d      	ldr	r3, [pc, #564]	; (2e28 <usb_isr+0x598>)
    2bf2:	889b      	ldrh	r3, [r3, #4]
    2bf4:	f003 037f 	and.w	r3, r3, #127	; 0x7f
		if (i > NUM_ENDPOINTS || setup.wValue != 0) {
    2bf8:	2b04      	cmp	r3, #4
    2bfa:	dc02      	bgt.n	2c02 <usb_isr+0x372>
    2bfc:	4a8a      	ldr	r2, [pc, #552]	; (2e28 <usb_isr+0x598>)
    2bfe:	8852      	ldrh	r2, [r2, #2]
    2c00:	b11a      	cbz	r2, 2c0a <usb_isr+0x37a>
volatile uint8_t usb_reboot_timer = 0;


static void endpoint0_stall(void)
{
	USB0_ENDPT0 = USB_ENDPT_EPSTALL | USB_ENDPT_EPRXEN | USB_ENDPT_EPTXEN | USB_ENDPT_EPHSHK;
    2c02:	220f      	movs	r2, #15
    2c04:	4b87      	ldr	r3, [pc, #540]	; (2e24 <usb_isr+0x594>)
    2c06:	701a      	strb	r2, [r3, #0]
    2c08:	e056      	b.n	2cb8 <usb_isr+0x428>
		if (i > NUM_ENDPOINTS || setup.wValue != 0) {
			// TODO: do we need to handle IN vs OUT here?
			endpoint0_stall();
			return;
		}
		(*(uint8_t *)(&USB0_ENDPT0 + i * 4)) |= 0x02;
    2c0a:	4986      	ldr	r1, [pc, #536]	; (2e24 <usb_isr+0x594>)
    2c0c:	f811 2023 	ldrb.w	r2, [r1, r3, lsl #2]
    2c10:	f042 0202 	orr.w	r2, r2, #2
    2c14:	f801 2023 	strb.w	r2, [r1, r3, lsl #2]
    2c18:	e197      	b.n	2f4a <usb_isr+0x6ba>
		//serial_print("\n");
		for (list = usb_descriptor_list; 1; list++) {
			if (list->addr == NULL) break;
			//if (setup.wValue == list->wValue &&
			//(setup.wIndex == list->wIndex) || ((setup.wValue >> 8) == 3)) {
			if (setup.wValue == list->wValue && setup.wIndex == list->wIndex) {
    2c1a:	4b83      	ldr	r3, [pc, #524]	; (2e28 <usb_isr+0x598>)
    2c1c:	8859      	ldrh	r1, [r3, #2]
    2c1e:	8898      	ldrh	r0, [r3, #4]
    2c20:	4b82      	ldr	r3, [pc, #520]	; (2e2c <usb_isr+0x59c>)
    2c22:	881a      	ldrh	r2, [r3, #0]
    2c24:	428a      	cmp	r2, r1
    2c26:	d108      	bne.n	2c3a <usb_isr+0x3aa>
    2c28:	885a      	ldrh	r2, [r3, #2]
    2c2a:	4282      	cmp	r2, r0
    2c2c:	d105      	bne.n	2c3a <usb_isr+0x3aa>
				data = list->addr;
				if ((setup.wValue >> 8) == 3) {
    2c2e:	0a09      	lsrs	r1, r1, #8
    2c30:	2903      	cmp	r1, #3
					// for string descriptors, use the descriptor's
					// length field, allowing runtime configured
					// length.
					datalen = *(list->addr);
    2c32:	bf0c      	ite	eq
    2c34:	782b      	ldrbeq	r3, [r5, #0]
				} else {
					datalen = list->length;
    2c36:	891b      	ldrhne	r3, [r3, #8]
    2c38:	e019      	b.n	2c6e <usb_isr+0x3de>
	  case 0x0680: // GET_DESCRIPTOR
	  case 0x0681:
		//serial_print("desc:");
		//serial_phex16(setup.wValue);
		//serial_print("\n");
		for (list = usb_descriptor_list; 1; list++) {
    2c3a:	330c      	adds	r3, #12
			if (list->addr == NULL) break;
    2c3c:	685d      	ldr	r5, [r3, #4]
    2c3e:	2d00      	cmp	r5, #0
    2c40:	d1ef      	bne.n	2c22 <usb_isr+0x392>
volatile uint8_t usb_reboot_timer = 0;


static void endpoint0_stall(void)
{
	USB0_ENDPT0 = USB_ENDPT_EPSTALL | USB_ENDPT_EPRXEN | USB_ENDPT_EPTXEN | USB_ENDPT_EPHSHK;
    2c42:	220f      	movs	r2, #15
    2c44:	4b77      	ldr	r3, [pc, #476]	; (2e24 <usb_isr+0x594>)
    2c46:	701a      	strb	r2, [r3, #0]
    2c48:	e036      	b.n	2cb8 <usb_isr+0x428>
		//serial_print("desc: not found\n");
		endpoint0_stall();
		return;
#if defined(CDC_STATUS_INTERFACE)
	  case 0x2221: // CDC_SET_CONTROL_LINE_STATE
		usb_cdc_line_rtsdtr_millis = systick_millis_count;
    2c4a:	4b79      	ldr	r3, [pc, #484]	; (2e30 <usb_isr+0x5a0>)
    2c4c:	681a      	ldr	r2, [r3, #0]
    2c4e:	4b79      	ldr	r3, [pc, #484]	; (2e34 <usb_isr+0x5a4>)
    2c50:	601a      	str	r2, [r3, #0]
		usb_cdc_line_rtsdtr = setup.wValue;
    2c52:	4b75      	ldr	r3, [pc, #468]	; (2e28 <usb_isr+0x598>)
    2c54:	789a      	ldrb	r2, [r3, #2]
    2c56:	4b78      	ldr	r3, [pc, #480]	; (2e38 <usb_isr+0x5a8>)
    2c58:	701a      	strb	r2, [r3, #0]
    2c5a:	e176      	b.n	2f4a <usb_isr+0x6ba>
volatile uint8_t usb_reboot_timer = 0;


static void endpoint0_stall(void)
{
	USB0_ENDPT0 = USB_ENDPT_EPSTALL | USB_ENDPT_EPRXEN | USB_ENDPT_EPTXEN | USB_ENDPT_EPHSHK;
    2c5c:	220f      	movs	r2, #15
    2c5e:	4b71      	ldr	r3, [pc, #452]	; (2e24 <usb_isr+0x594>)
    2c60:	701a      	strb	r2, [r3, #0]
    2c62:	e029      	b.n	2cb8 <usb_isr+0x428>
static uint8_t reply_buffer[8];

static void usb_setup(void)
{
	const uint8_t *data = NULL;
	uint32_t datalen = 0;
    2c64:	2300      	movs	r3, #0

static uint8_t reply_buffer[8];

static void usb_setup(void)
{
	const uint8_t *data = NULL;
    2c66:	461d      	mov	r5, r3
    2c68:	e001      	b.n	2c6e <usb_isr+0x3de>
		}
		reply_buffer[0] = 0;
		reply_buffer[1] = 0;
		if (*(uint8_t *)(&USB0_ENDPT0 + i * 4) & 0x02) reply_buffer[0] = 1;
		data = reply_buffer;
		datalen = 2;
    2c6a:	2302      	movs	r3, #2
			return;
		}
		reply_buffer[0] = 0;
		reply_buffer[1] = 0;
		if (*(uint8_t *)(&USB0_ENDPT0 + i * 4) & 0x02) reply_buffer[0] = 1;
		data = reply_buffer;
    2c6c:	4d6c      	ldr	r5, [pc, #432]	; (2e20 <usb_isr+0x590>)
	//serial_phex32(data);
	//serial_print(",");
	//serial_phex16(datalen);
	//serial_print("\n");

	if (datalen > setup.wLength) datalen = setup.wLength;
    2c6e:	4a6e      	ldr	r2, [pc, #440]	; (2e28 <usb_isr+0x598>)
    2c70:	88d6      	ldrh	r6, [r2, #6]
    2c72:	429e      	cmp	r6, r3
    2c74:	bf28      	it	cs
    2c76:	461e      	movcs	r6, r3
    2c78:	4637      	mov	r7, r6
    2c7a:	2e40      	cmp	r6, #64	; 0x40
    2c7c:	bf28      	it	cs
    2c7e:	2740      	movcs	r7, #64	; 0x40
	size = datalen;
	if (size > EP0_SIZE) size = EP0_SIZE;
	endpoint0_transmit(data, size);
    2c80:	4639      	mov	r1, r7
    2c82:	4628      	mov	r0, r5
    2c84:	f7ff fd20 	bl	26c8 <endpoint0_transmit>
	data += size;
    2c88:	443d      	add	r5, r7
	datalen -= size;
	if (datalen == 0 && size < EP0_SIZE) return;
    2c8a:	1bf6      	subs	r6, r6, r7
    2c8c:	d103      	bne.n	2c96 <usb_isr+0x406>
    2c8e:	2f3f      	cmp	r7, #63	; 0x3f
    2c90:	f200 8160 	bhi.w	2f54 <usb_isr+0x6c4>
    2c94:	e010      	b.n	2cb8 <usb_isr+0x428>
    2c96:	4637      	mov	r7, r6
    2c98:	2e40      	cmp	r6, #64	; 0x40
    2c9a:	bf28      	it	cs
    2c9c:	2740      	movcs	r7, #64	; 0x40

	size = datalen;
	if (size > EP0_SIZE) size = EP0_SIZE;
	endpoint0_transmit(data, size);
    2c9e:	4639      	mov	r1, r7
    2ca0:	4628      	mov	r0, r5
    2ca2:	f7ff fd11 	bl	26c8 <endpoint0_transmit>
	data += size;
    2ca6:	443d      	add	r5, r7
	datalen -= size;
	if (datalen == 0 && size < EP0_SIZE) return;
    2ca8:	1bf6      	subs	r6, r6, r7
    2caa:	d101      	bne.n	2cb0 <usb_isr+0x420>
    2cac:	2f3f      	cmp	r7, #63	; 0x3f
    2cae:	d903      	bls.n	2cb8 <usb_isr+0x428>

	ep0_tx_ptr = data;
    2cb0:	4b62      	ldr	r3, [pc, #392]	; (2e3c <usb_isr+0x5ac>)
    2cb2:	601d      	str	r5, [r3, #0]
	ep0_tx_len = datalen;
    2cb4:	4b62      	ldr	r3, [pc, #392]	; (2e40 <usb_isr+0x5b0>)
    2cb6:	801e      	strh	r6, [r3, #0]
		serial_print("\n");
#endif
		// actually "do" the setup request
		usb_setup();
		// unfreeze the USB, now that we're ready
		USB0_CTL = USB_CTL_USBENSOFEN; // clear TXSUSPENDTOKENBUSY bit
    2cb8:	2301      	movs	r3, #1
    2cba:	f88b 3000 	strb.w	r3, [fp]
    2cbe:	e042      	b.n	2d46 <usb_isr+0x4b6>
		break;
	case 0x01:  // OUT transaction received from host
	case 0x02:
		//serial_print("PID=OUT\n");
#ifdef CDC_STATUS_INTERFACE
		if (setup.wRequestAndType == 0x2021 /*CDC_SET_LINE_CODING*/) {
    2cc0:	4b59      	ldr	r3, [pc, #356]	; (2e28 <usb_isr+0x598>)
    2cc2:	8819      	ldrh	r1, [r3, #0]
    2cc4:	f242 0321 	movw	r3, #8225	; 0x2021
    2cc8:	4299      	cmp	r1, r3
    2cca:	d112      	bne.n	2cf2 <usb_isr+0x462>
    2ccc:	4b5d      	ldr	r3, [pc, #372]	; (2e44 <usb_isr+0x5b4>)
    2cce:	1dd0      	adds	r0, r2, #7
			int i;
			uint8_t *dst = (uint8_t *)usb_cdc_line_coding;
			//serial_print("set line coding ");
			for (i=0; i<7; i++) {
				//serial_phex(*buf);
				*dst++ = *buf++;
    2cd0:	f812 1b01 	ldrb.w	r1, [r2], #1
    2cd4:	f803 1f01 	strb.w	r1, [r3, #1]!
#ifdef CDC_STATUS_INTERFACE
		if (setup.wRequestAndType == 0x2021 /*CDC_SET_LINE_CODING*/) {
			int i;
			uint8_t *dst = (uint8_t *)usb_cdc_line_coding;
			//serial_print("set line coding ");
			for (i=0; i<7; i++) {
    2cd8:	4282      	cmp	r2, r0
    2cda:	d1f9      	bne.n	2cd0 <usb_isr+0x440>
				//serial_phex(*buf);
				*dst++ = *buf++;
			}
			//serial_phex32(usb_cdc_line_coding[0]);
			//serial_print("\n");
			if (usb_cdc_line_coding[0] == 134) usb_reboot_timer = 15;
    2cdc:	4b5a      	ldr	r3, [pc, #360]	; (2e48 <usb_isr+0x5b8>)
    2cde:	681b      	ldr	r3, [r3, #0]
    2ce0:	2b86      	cmp	r3, #134	; 0x86
    2ce2:	d102      	bne.n	2cea <usb_isr+0x45a>
    2ce4:	220f      	movs	r2, #15
    2ce6:	4b59      	ldr	r3, [pc, #356]	; (2e4c <usb_isr+0x5bc>)
    2ce8:	701a      	strb	r2, [r3, #0]
			endpoint0_transmit(NULL, 0);
    2cea:	2100      	movs	r1, #0
    2cec:	4608      	mov	r0, r1
    2cee:	f7ff fceb 	bl	26c8 <endpoint0_transmit>
		if (usb_audio_set_feature(&setup, buf)) {
			endpoint0_transmit(NULL, 0);
		}
#endif
		// give the buffer back
		b->desc = BDT_DESC(EP0_SIZE, DATA1);
    2cf2:	4b57      	ldr	r3, [pc, #348]	; (2e50 <usb_isr+0x5c0>)
    2cf4:	f846 3035 	str.w	r3, [r6, r5, lsl #3]
    2cf8:	e025      	b.n	2d46 <usb_isr+0x4b6>
		//serial_print("PID=IN:");
		//serial_phex(stat);
		//serial_print("\n");

		// send remaining data, if any...
		data = ep0_tx_ptr;
    2cfa:	4b50      	ldr	r3, [pc, #320]	; (2e3c <usb_isr+0x5ac>)
    2cfc:	681f      	ldr	r7, [r3, #0]
		if (data) {
    2cfe:	b1bf      	cbz	r7, 2d30 <usb_isr+0x4a0>
			size = ep0_tx_len;
    2d00:	f8df 813c 	ldr.w	r8, [pc, #316]	; 2e40 <usb_isr+0x5b0>
    2d04:	f8b8 5000 	ldrh.w	r5, [r8]
    2d08:	462e      	mov	r6, r5
    2d0a:	2d40      	cmp	r5, #64	; 0x40
    2d0c:	bf28      	it	cs
    2d0e:	2640      	movcs	r6, #64	; 0x40
			if (size > EP0_SIZE) size = EP0_SIZE;
			endpoint0_transmit(data, size);
    2d10:	4631      	mov	r1, r6
    2d12:	4638      	mov	r0, r7
    2d14:	f7ff fcd8 	bl	26c8 <endpoint0_transmit>
			data += size;
			ep0_tx_len -= size;
    2d18:	1bad      	subs	r5, r5, r6
    2d1a:	b2ad      	uxth	r5, r5
    2d1c:	f8a8 5000 	strh.w	r5, [r8]
			ep0_tx_ptr = (ep0_tx_len > 0 || size == EP0_SIZE) ? data : NULL;
    2d20:	b90d      	cbnz	r5, 2d26 <usb_isr+0x496>
    2d22:	2e40      	cmp	r6, #64	; 0x40
    2d24:	d101      	bne.n	2d2a <usb_isr+0x49a>
		data = ep0_tx_ptr;
		if (data) {
			size = ep0_tx_len;
			if (size > EP0_SIZE) size = EP0_SIZE;
			endpoint0_transmit(data, size);
			data += size;
    2d26:	443e      	add	r6, r7
    2d28:	e000      	b.n	2d2c <usb_isr+0x49c>
			ep0_tx_len -= size;
			ep0_tx_ptr = (ep0_tx_len > 0 || size == EP0_SIZE) ? data : NULL;
    2d2a:	2600      	movs	r6, #0
    2d2c:	4b43      	ldr	r3, [pc, #268]	; (2e3c <usb_isr+0x5ac>)
    2d2e:	601e      	str	r6, [r3, #0]
		}

		if (setup.bRequest == 5 && setup.bmRequestType == 0) {
    2d30:	4b3d      	ldr	r3, [pc, #244]	; (2e28 <usb_isr+0x598>)
    2d32:	881b      	ldrh	r3, [r3, #0]
    2d34:	f5b3 6fa0 	cmp.w	r3, #1280	; 0x500
    2d38:	d105      	bne.n	2d46 <usb_isr+0x4b6>
			setup.bRequest = 0;
    2d3a:	4b3b      	ldr	r3, [pc, #236]	; (2e28 <usb_isr+0x598>)
    2d3c:	2200      	movs	r2, #0
    2d3e:	705a      	strb	r2, [r3, #1]
			//serial_print("set address: ");
			//serial_phex16(setup.wValue);
			//serial_print("\n");
			USB0_ADDR = setup.wValue;
    2d40:	789b      	ldrb	r3, [r3, #2]
    2d42:	4a44      	ldr	r2, [pc, #272]	; (2e54 <usb_isr+0x5c4>)
    2d44:	7013      	strb	r3, [r2, #0]
	//default:
		//serial_print("PID=unknown:");
		//serial_phex(pid);
		//serial_print("\n");
	}
	USB0_CTL = USB_CTL_USBENSOFEN; // clear TXSUSPENDTOKENBUSY bit
    2d46:	2301      	movs	r3, #1
    2d48:	f88b 3000 	strb.w	r3, [fp]
    2d4c:	e0bb      	b.n	2ec6 <usb_isr+0x636>
		//serial_print(stat & 0x04 ? ",odd\n" : ",even\n");
		endpoint = stat >> 4;
		if (endpoint == 0) {
			usb_control(stat);
		} else {
			bdt_t *b = stat2bufferdescriptor(stat);
    2d4e:	4e42      	ldr	r6, [pc, #264]	; (2e58 <usb_isr+0x5c8>)
    2d50:	089f      	lsrs	r7, r3, #2
    2d52:	eb06 08c7 	add.w	r8, r6, r7, lsl #3
			usb_packet_t *packet = (usb_packet_t *)((uint8_t *)(b->addr) - 8);
    2d56:	f8d8 2004 	ldr.w	r2, [r8, #4]
    2d5a:	f1a2 0008 	sub.w	r0, r2, #8
			serial_print(((uint32_t)b & 8) ? ", odd" : ", even");
			serial_print(", count:");
			serial_phex(b->desc >> 16);
			serial_print("\n");
#endif
			endpoint--;	// endpoint is index to zero-based arrays
    2d5e:	3d01      	subs	r5, #1
    2d60:	b2ed      	uxtb	r5, r5
				b->addr = &usb_audio_sync_feedback;
				b->desc = (3 << 16) | BDT_OWN;
				tx_state[endpoint] ^= 1;
			} else
#endif
			if (stat & 0x08) { // transmit
    2d62:	f013 0f08 	tst.w	r3, #8
    2d66:	d047      	beq.n	2df8 <usb_isr+0x568>
				usb_free(packet);
    2d68:	f000 f980 	bl	306c <usb_free>
				packet = tx_first[endpoint];
    2d6c:	4b3b      	ldr	r3, [pc, #236]	; (2e5c <usb_isr+0x5cc>)
    2d6e:	f853 3025 	ldr.w	r3, [r3, r5, lsl #2]
				if (packet) {
    2d72:	b34b      	cbz	r3, 2dc8 <usb_isr+0x538>
					//serial_print("tx packet\n");
					tx_first[endpoint] = packet->next;
    2d74:	6859      	ldr	r1, [r3, #4]
    2d76:	4a39      	ldr	r2, [pc, #228]	; (2e5c <usb_isr+0x5cc>)
    2d78:	f842 1025 	str.w	r1, [r2, r5, lsl #2]
					b->addr = packet->buf;
    2d7c:	f103 0208 	add.w	r2, r3, #8
    2d80:	f8c8 2004 	str.w	r2, [r8, #4]
					switch (tx_state[endpoint]) {
    2d84:	4a36      	ldr	r2, [pc, #216]	; (2e60 <usb_isr+0x5d0>)
    2d86:	5d52      	ldrb	r2, [r2, r5]
    2d88:	2a03      	cmp	r2, #3
    2d8a:	d812      	bhi.n	2db2 <usb_isr+0x522>
    2d8c:	e8df f002 	tbb	[pc, r2]
    2d90:	0e0a0602 	.word	0x0e0a0602
					  case TX_STATE_BOTH_FREE_EVEN_FIRST:
						tx_state[endpoint] = TX_STATE_ODD_FREE;
    2d94:	2103      	movs	r1, #3
    2d96:	4a32      	ldr	r2, [pc, #200]	; (2e60 <usb_isr+0x5d0>)
    2d98:	5551      	strb	r1, [r2, r5]
						break;
    2d9a:	e00a      	b.n	2db2 <usb_isr+0x522>
					  case TX_STATE_BOTH_FREE_ODD_FIRST:
						tx_state[endpoint] = TX_STATE_EVEN_FREE;
    2d9c:	2102      	movs	r1, #2
    2d9e:	4a30      	ldr	r2, [pc, #192]	; (2e60 <usb_isr+0x5d0>)
    2da0:	5551      	strb	r1, [r2, r5]
						break;
    2da2:	e006      	b.n	2db2 <usb_isr+0x522>
					  case TX_STATE_EVEN_FREE:
						tx_state[endpoint] = TX_STATE_NONE_FREE_ODD_FIRST;
    2da4:	2105      	movs	r1, #5
    2da6:	4a2e      	ldr	r2, [pc, #184]	; (2e60 <usb_isr+0x5d0>)
    2da8:	5551      	strb	r1, [r2, r5]
						break;
    2daa:	e002      	b.n	2db2 <usb_isr+0x522>
					  case TX_STATE_ODD_FREE:
						tx_state[endpoint] = TX_STATE_NONE_FREE_EVEN_FIRST;
    2dac:	2104      	movs	r1, #4
    2dae:	4a2c      	ldr	r2, [pc, #176]	; (2e60 <usb_isr+0x5d0>)
    2db0:	5551      	strb	r1, [r2, r5]
						break;
					  default:
						break;
					}
					b->desc = BDT_DESC(packet->len,
    2db2:	f018 0f08 	tst.w	r8, #8
    2db6:	bf14      	ite	ne
    2db8:	22c8      	movne	r2, #200	; 0xc8
    2dba:	2288      	moveq	r2, #136	; 0x88
    2dbc:	881b      	ldrh	r3, [r3, #0]
    2dbe:	ea42 4303 	orr.w	r3, r2, r3, lsl #16
    2dc2:	f846 3037 	str.w	r3, [r6, r7, lsl #3]
    2dc6:	e07e      	b.n	2ec6 <usb_isr+0x636>
						((uint32_t)b & 8) ? DATA1 : DATA0);
				} else {
					//serial_print("tx no packet\n");
					switch (tx_state[endpoint]) {
    2dc8:	4b25      	ldr	r3, [pc, #148]	; (2e60 <usb_isr+0x5d0>)
    2dca:	5d5b      	ldrb	r3, [r3, r5]
    2dcc:	2b03      	cmp	r3, #3
    2dce:	d80b      	bhi.n	2de8 <usb_isr+0x558>
    2dd0:	e8df f003 	tbb	[pc, r3]
    2dd4:	06027979 	.word	0x06027979
					  case TX_STATE_BOTH_FREE_EVEN_FIRST:
					  case TX_STATE_BOTH_FREE_ODD_FIRST:
						break;
					  case TX_STATE_EVEN_FREE:
						tx_state[endpoint] = TX_STATE_BOTH_FREE_EVEN_FIRST;
    2dd8:	2200      	movs	r2, #0
    2dda:	4b21      	ldr	r3, [pc, #132]	; (2e60 <usb_isr+0x5d0>)
    2ddc:	555a      	strb	r2, [r3, r5]
						break;
    2dde:	e072      	b.n	2ec6 <usb_isr+0x636>
					  case TX_STATE_ODD_FREE:
						tx_state[endpoint] = TX_STATE_BOTH_FREE_ODD_FIRST;
    2de0:	2201      	movs	r2, #1
    2de2:	4b1f      	ldr	r3, [pc, #124]	; (2e60 <usb_isr+0x5d0>)
    2de4:	555a      	strb	r2, [r3, r5]
						break;
    2de6:	e06e      	b.n	2ec6 <usb_isr+0x636>
					  default:
						tx_state[endpoint] = ((uint32_t)b & 8) ?
    2de8:	f018 0f08 	tst.w	r8, #8
    2dec:	bf14      	ite	ne
    2dee:	2203      	movne	r2, #3
    2df0:	2202      	moveq	r2, #2
    2df2:	4b1b      	ldr	r3, [pc, #108]	; (2e60 <usb_isr+0x5d0>)
    2df4:	555a      	strb	r2, [r3, r5]
						  TX_STATE_ODD_FREE : TX_STATE_EVEN_FREE;
						break;
    2df6:	e066      	b.n	2ec6 <usb_isr+0x636>
					}
				}
			} else { // receive
				packet->len = b->desc >> 16;
    2df8:	f856 3037 	ldr.w	r3, [r6, r7, lsl #3]
    2dfc:	0c1b      	lsrs	r3, r3, #16
    2dfe:	f822 3c08 	strh.w	r3, [r2, #-8]
				if (packet->len > 0) {
    2e02:	2b00      	cmp	r3, #0
    2e04:	d057      	beq.n	2eb6 <usb_isr+0x626>
					packet->index = 0;
    2e06:	2300      	movs	r3, #0
    2e08:	f822 3c06 	strh.w	r3, [r2, #-6]
					packet->next = NULL;
    2e0c:	f842 3c04 	str.w	r3, [r2, #-4]
					if (rx_first[endpoint] == NULL) {
    2e10:	4b14      	ldr	r3, [pc, #80]	; (2e64 <usb_isr+0x5d4>)
    2e12:	f853 3025 	ldr.w	r3, [r3, r5, lsl #2]
    2e16:	bb3b      	cbnz	r3, 2e68 <usb_isr+0x5d8>
						//serial_print("rx 1st, epidx=");
						//serial_phex(endpoint);
						//serial_print(", packet=");
						//serial_phex32((uint32_t)packet);
						//serial_print("\n");
						rx_first[endpoint] = packet;
    2e18:	4b12      	ldr	r3, [pc, #72]	; (2e64 <usb_isr+0x5d4>)
    2e1a:	f843 0025 	str.w	r0, [r3, r5, lsl #2]
    2e1e:	e027      	b.n	2e70 <usb_isr+0x5e0>
    2e20:	1fff99ec 	.word	0x1fff99ec
    2e24:	400720c0 	.word	0x400720c0
    2e28:	1fff99e0 	.word	0x1fff99e0
    2e2c:	00008f6c 	.word	0x00008f6c
    2e30:	1fff9910 	.word	0x1fff9910
    2e34:	1fff9bf8 	.word	0x1fff9bf8
    2e38:	1fff9a04 	.word	0x1fff9a04
    2e3c:	1fff9914 	.word	0x1fff9914
    2e40:	1fff99e8 	.word	0x1fff99e8
    2e44:	1fff9bef 	.word	0x1fff9bef
    2e48:	1fff9bf0 	.word	0x1fff9bf0
    2e4c:	1fff997d 	.word	0x1fff997d
    2e50:	004000c8 	.word	0x004000c8
    2e54:	40072098 	.word	0x40072098
    2e58:	1fff8000 	.word	0x1fff8000
    2e5c:	1fff99c0 	.word	0x1fff99c0
    2e60:	1fff9928 	.word	0x1fff9928
    2e64:	1fff996c 	.word	0x1fff996c
						//serial_print("rx Nth, epidx=");
						//serial_phex(endpoint);
						//serial_print(", packet=");
						//serial_phex32((uint32_t)packet);
						//serial_print("\n");
						rx_last[endpoint]->next = packet;
    2e68:	4b3e      	ldr	r3, [pc, #248]	; (2f64 <usb_isr+0x6d4>)
    2e6a:	f853 3025 	ldr.w	r3, [r3, r5, lsl #2]
    2e6e:	6058      	str	r0, [r3, #4]
					}
					rx_last[endpoint] = packet;
    2e70:	4b3c      	ldr	r3, [pc, #240]	; (2f64 <usb_isr+0x6d4>)
    2e72:	f843 0025 	str.w	r0, [r3, r5, lsl #2]
					usb_rx_byte_count_data[endpoint] += packet->len;
    2e76:	493c      	ldr	r1, [pc, #240]	; (2f68 <usb_isr+0x6d8>)
    2e78:	f831 0015 	ldrh.w	r0, [r1, r5, lsl #1]
    2e7c:	f832 3c08 	ldrh.w	r3, [r2, #-8]
    2e80:	4403      	add	r3, r0
    2e82:	f821 3015 	strh.w	r3, [r1, r5, lsl #1]
					// TODO: implement a per-endpoint maximum # of allocated
					// packets, so a flood of incoming data on 1 endpoint
					// doesn't starve the others if the user isn't reading
					// it regularly
					packet = usb_malloc();
    2e86:	f000 f8d1 	bl	302c <usb_malloc>
					if (packet) {
    2e8a:	4603      	mov	r3, r0
    2e8c:	b158      	cbz	r0, 2ea6 <usb_isr+0x616>
						b->addr = packet->buf;
    2e8e:	3308      	adds	r3, #8
    2e90:	f8c8 3004 	str.w	r3, [r8, #4]
						b->desc = BDT_DESC(64,
    2e94:	f018 0f08 	tst.w	r8, #8
    2e98:	4a34      	ldr	r2, [pc, #208]	; (2f6c <usb_isr+0x6dc>)
    2e9a:	4b35      	ldr	r3, [pc, #212]	; (2f70 <usb_isr+0x6e0>)
    2e9c:	bf08      	it	eq
    2e9e:	4613      	moveq	r3, r2
    2ea0:	f846 3037 	str.w	r3, [r6, r7, lsl #3]
    2ea4:	e00f      	b.n	2ec6 <usb_isr+0x636>
							((uint32_t)b & 8) ? DATA1 : DATA0);
					} else {
						//serial_print("starving ");
						//serial_phex(endpoint + 1);
						b->desc = 0;
    2ea6:	2300      	movs	r3, #0
    2ea8:	f846 3037 	str.w	r3, [r6, r7, lsl #3]
						usb_rx_memory_needed++;
    2eac:	4a31      	ldr	r2, [pc, #196]	; (2f74 <usb_isr+0x6e4>)
    2eae:	7813      	ldrb	r3, [r2, #0]
    2eb0:	3301      	adds	r3, #1
    2eb2:	7013      	strb	r3, [r2, #0]
    2eb4:	e007      	b.n	2ec6 <usb_isr+0x636>
					}
				} else {
					b->desc = BDT_DESC(64, ((uint32_t)b & 8) ? DATA1 : DATA0);
    2eb6:	f018 0f08 	tst.w	r8, #8
    2eba:	4a2c      	ldr	r2, [pc, #176]	; (2f6c <usb_isr+0x6dc>)
    2ebc:	4b2c      	ldr	r3, [pc, #176]	; (2f70 <usb_isr+0x6e0>)
    2ebe:	bf08      	it	eq
    2ec0:	4613      	moveq	r3, r2
    2ec2:	f846 3037 	str.w	r3, [r6, r7, lsl #3]
				}
			}

		}
		USB0_ISTAT = USB_ISTAT_TOKDNE;
    2ec6:	2308      	movs	r3, #8
    2ec8:	7023      	strb	r3, [r4, #0]
		goto restart;
    2eca:	e4e9      	b.n	28a0 <usb_isr+0x10>
	}



	if (status & USB_ISTAT_USBRST /* 01 */ ) {
    2ecc:	f015 0f01 	tst.w	r5, #1
    2ed0:	d021      	beq.n	2f16 <usb_isr+0x686>
		//serial_print("reset\n");

		// initialize BDT toggle bits
		USB0_CTL = USB_CTL_ODDRST;
    2ed2:	4929      	ldr	r1, [pc, #164]	; (2f78 <usb_isr+0x6e8>)
    2ed4:	2302      	movs	r3, #2
    2ed6:	700b      	strb	r3, [r1, #0]
		ep0_tx_bdt_bank = 0;
    2ed8:	2200      	movs	r2, #0
    2eda:	4b28      	ldr	r3, [pc, #160]	; (2f7c <usb_isr+0x6ec>)
    2edc:	701a      	strb	r2, [r3, #0]

		// set up buffers to receive Setup and OUT packets
		table[index(0, RX, EVEN)].desc = BDT_DESC(EP0_SIZE, 0);
    2ede:	4b28      	ldr	r3, [pc, #160]	; (2f80 <usb_isr+0x6f0>)
    2ee0:	4822      	ldr	r0, [pc, #136]	; (2f6c <usb_isr+0x6dc>)
    2ee2:	6018      	str	r0, [r3, #0]
		table[index(0, RX, EVEN)].addr = ep0_rx0_buf;
    2ee4:	4c27      	ldr	r4, [pc, #156]	; (2f84 <usb_isr+0x6f4>)
    2ee6:	605c      	str	r4, [r3, #4]
		table[index(0, RX, ODD)].desc = BDT_DESC(EP0_SIZE, 0);
    2ee8:	6098      	str	r0, [r3, #8]
		table[index(0, RX, ODD)].addr = ep0_rx1_buf;
    2eea:	4827      	ldr	r0, [pc, #156]	; (2f88 <usb_isr+0x6f8>)
    2eec:	60d8      	str	r0, [r3, #12]
		table[index(0, TX, EVEN)].desc = 0;
    2eee:	611a      	str	r2, [r3, #16]
		table[index(0, TX, ODD)].desc = 0;
    2ef0:	619a      	str	r2, [r3, #24]

		// activate endpoint 0
		USB0_ENDPT0 = USB_ENDPT_EPRXEN | USB_ENDPT_EPTXEN | USB_ENDPT_EPHSHK;
    2ef2:	200d      	movs	r0, #13
    2ef4:	4b25      	ldr	r3, [pc, #148]	; (2f8c <usb_isr+0x6fc>)
    2ef6:	7018      	strb	r0, [r3, #0]

		// clear all ending interrupts
		USB0_ERRSTAT = 0xFF;
    2ef8:	23ff      	movs	r3, #255	; 0xff
    2efa:	4825      	ldr	r0, [pc, #148]	; (2f90 <usb_isr+0x700>)
    2efc:	7003      	strb	r3, [r0, #0]
		USB0_ISTAT = 0xFF;
    2efe:	3808      	subs	r0, #8
    2f00:	7003      	strb	r3, [r0, #0]

		// set the address to zero during enumeration
		USB0_ADDR = 0;
    2f02:	3018      	adds	r0, #24
    2f04:	7002      	strb	r2, [r0, #0]

		// enable other interrupts
		USB0_ERREN = 0xFF;
    2f06:	4a23      	ldr	r2, [pc, #140]	; (2f94 <usb_isr+0x704>)
    2f08:	7013      	strb	r3, [r2, #0]
		USB0_INTEN = USB_INTEN_TOKDNEEN |
    2f0a:	229f      	movs	r2, #159	; 0x9f
    2f0c:	4b22      	ldr	r3, [pc, #136]	; (2f98 <usb_isr+0x708>)
    2f0e:	701a      	strb	r2, [r3, #0]
			USB_INTEN_ERROREN |
			USB_INTEN_USBRSTEN |
			USB_INTEN_SLEEPEN;

		// is this necessary?
		USB0_CTL = USB_CTL_USBENSOFEN;
    2f10:	2301      	movs	r3, #1
    2f12:	700b      	strb	r3, [r1, #0]
		return;
    2f14:	e023      	b.n	2f5e <usb_isr+0x6ce>
	}


	if ((status & USB_ISTAT_STALL /* 80 */ )) {
    2f16:	f015 0f80 	tst.w	r5, #128	; 0x80
    2f1a:	d005      	beq.n	2f28 <usb_isr+0x698>
		//serial_print("stall:\n");
		USB0_ENDPT0 = USB_ENDPT_EPRXEN | USB_ENDPT_EPTXEN | USB_ENDPT_EPHSHK;
    2f1c:	220d      	movs	r2, #13
    2f1e:	4b1b      	ldr	r3, [pc, #108]	; (2f8c <usb_isr+0x6fc>)
    2f20:	701a      	strb	r2, [r3, #0]
		USB0_ISTAT = USB_ISTAT_STALL;
    2f22:	2280      	movs	r2, #128	; 0x80
    2f24:	3b40      	subs	r3, #64	; 0x40
    2f26:	701a      	strb	r2, [r3, #0]
	}
	if ((status & USB_ISTAT_ERROR /* 02 */ )) {
    2f28:	f015 0f02 	tst.w	r5, #2
    2f2c:	d006      	beq.n	2f3c <usb_isr+0x6ac>
		uint8_t err = USB0_ERRSTAT;
    2f2e:	4a18      	ldr	r2, [pc, #96]	; (2f90 <usb_isr+0x700>)
    2f30:	7813      	ldrb	r3, [r2, #0]
    2f32:	b2db      	uxtb	r3, r3
		USB0_ERRSTAT = err;
    2f34:	7013      	strb	r3, [r2, #0]
		//serial_print("err:");
		//serial_phex(err);
		//serial_print("\n");
		USB0_ISTAT = USB_ISTAT_ERROR;
    2f36:	2202      	movs	r2, #2
    2f38:	4b18      	ldr	r3, [pc, #96]	; (2f9c <usb_isr+0x70c>)
    2f3a:	701a      	strb	r2, [r3, #0]
	}

	if ((status & USB_ISTAT_SLEEP /* 10 */ )) {
    2f3c:	f015 0f10 	tst.w	r5, #16
    2f40:	d00d      	beq.n	2f5e <usb_isr+0x6ce>
		//serial_print("sleep\n");
		USB0_ISTAT = USB_ISTAT_SLEEP;
    2f42:	2210      	movs	r2, #16
    2f44:	4b15      	ldr	r3, [pc, #84]	; (2f9c <usb_isr+0x70c>)
    2f46:	701a      	strb	r2, [r3, #0]
    2f48:	e009      	b.n	2f5e <usb_isr+0x6ce>
	//serial_print("\n");

	if (datalen > setup.wLength) datalen = setup.wLength;
	size = datalen;
	if (size > EP0_SIZE) size = EP0_SIZE;
	endpoint0_transmit(data, size);
    2f4a:	2100      	movs	r1, #0
    2f4c:	4608      	mov	r0, r1
    2f4e:	f7ff fbbb 	bl	26c8 <endpoint0_transmit>
    2f52:	e6b1      	b.n	2cb8 <usb_isr+0x428>
	datalen -= size;
	if (datalen == 0 && size < EP0_SIZE) return;

	size = datalen;
	if (size > EP0_SIZE) size = EP0_SIZE;
	endpoint0_transmit(data, size);
    2f54:	2100      	movs	r1, #0
    2f56:	4628      	mov	r0, r5
    2f58:	f7ff fbb6 	bl	26c8 <endpoint0_transmit>
    2f5c:	e6ac      	b.n	2cb8 <usb_isr+0x428>
	if ((status & USB_ISTAT_SLEEP /* 10 */ )) {
		//serial_print("sleep\n");
		USB0_ISTAT = USB_ISTAT_SLEEP;
	}

}
    2f5e:	b005      	add	sp, #20
    2f60:	e8bd 8ff0 	ldmia.w	sp!, {r4, r5, r6, r7, r8, r9, sl, fp, pc}
    2f64:	1fff9918 	.word	0x1fff9918
    2f68:	1fff9be8 	.word	0x1fff9be8
    2f6c:	00400088 	.word	0x00400088
    2f70:	004000c8 	.word	0x004000c8
    2f74:	1fff99ea 	.word	0x1fff99ea
    2f78:	40072094 	.word	0x40072094
    2f7c:	1fff997c 	.word	0x1fff997c
    2f80:	1fff8000 	.word	0x1fff8000
    2f84:	1fff992c 	.word	0x1fff992c
    2f88:	1fff9980 	.word	0x1fff9980
    2f8c:	400720c0 	.word	0x400720c0
    2f90:	40072088 	.word	0x40072088
    2f94:	4007208c 	.word	0x4007208c
    2f98:	40072084 	.word	0x40072084
    2f9c:	40072080 	.word	0x40072080

00002fa0 <usb_init>:



void usb_init(void)
{
    2fa0:	b508      	push	{r3, lr}
	int i;

	//serial_begin(BAUD2DIV(115200));
	//serial_print("usb_init\n");

	usb_init_serialnumber();
    2fa2:	f000 fe89 	bl	3cb8 <usb_init_serialnumber>
    2fa6:	481c      	ldr	r0, [pc, #112]	; (3018 <usb_init+0x78>)
    2fa8:	f100 0188 	add.w	r1, r0, #136	; 0x88
    2fac:	4603      	mov	r3, r0

	for (i=0; i <= NUM_ENDPOINTS*4; i++) {
		table[i].desc = 0;
    2fae:	2200      	movs	r2, #0
    2fb0:	601a      	str	r2, [r3, #0]
		table[i].addr = 0;
    2fb2:	605a      	str	r2, [r3, #4]
    2fb4:	3308      	adds	r3, #8
	//serial_begin(BAUD2DIV(115200));
	//serial_print("usb_init\n");

	usb_init_serialnumber();

	for (i=0; i <= NUM_ENDPOINTS*4; i++) {
    2fb6:	428b      	cmp	r3, r1
    2fb8:	d1fa      	bne.n	2fb0 <usb_init+0x10>
	// this basically follows the flowchart in the Kinetis
	// Quick Reference User Guide, Rev. 1, 03/2012, page 141

	// assume 48 MHz clock already running
	// SIM - enable clock
	SIM_SCGC4 |= SIM_SCGC4_USBOTG;
    2fba:	4a18      	ldr	r2, [pc, #96]	; (301c <usb_init+0x7c>)
    2fbc:	6813      	ldr	r3, [r2, #0]
    2fbe:	f443 2380 	orr.w	r3, r3, #262144	; 0x40000
    2fc2:	6013      	str	r3, [r2, #0]
	// reset USB module
	//USB0_USBTRC0 = USB_USBTRC_USBRESET;
	//while ((USB0_USBTRC0 & USB_USBTRC_USBRESET) != 0) ; // wait for reset to end

	// set desc table base addr
	USB0_BDTPAGE1 = ((uint32_t)table) >> 8;
    2fc4:	f3c0 2207 	ubfx	r2, r0, #8, #8
    2fc8:	4b15      	ldr	r3, [pc, #84]	; (3020 <usb_init+0x80>)
    2fca:	701a      	strb	r2, [r3, #0]
	USB0_BDTPAGE2 = ((uint32_t)table) >> 16;
    2fcc:	f3c0 4207 	ubfx	r2, r0, #16, #8
    2fd0:	3314      	adds	r3, #20
    2fd2:	701a      	strb	r2, [r3, #0]
	USB0_BDTPAGE3 = ((uint32_t)table) >> 24;
    2fd4:	0e00      	lsrs	r0, r0, #24
    2fd6:	3304      	adds	r3, #4
    2fd8:	7018      	strb	r0, [r3, #0]

	// clear all ISR flags
	USB0_ISTAT = 0xFF;
    2fda:	23ff      	movs	r3, #255	; 0xff
    2fdc:	4a11      	ldr	r2, [pc, #68]	; (3024 <usb_init+0x84>)
    2fde:	7013      	strb	r3, [r2, #0]
	USB0_ERRSTAT = 0xFF;
    2fe0:	3208      	adds	r2, #8
    2fe2:	7013      	strb	r3, [r2, #0]
	USB0_OTGISTAT = 0xFF;
    2fe4:	3a78      	subs	r2, #120	; 0x78
    2fe6:	7013      	strb	r3, [r2, #0]

	//USB0_USBTRC0 |= 0x40; // undocumented bit

	// enable USB
	USB0_CTL = USB_CTL_USBENSOFEN;
    2fe8:	2301      	movs	r3, #1
    2fea:	3284      	adds	r2, #132	; 0x84
    2fec:	7013      	strb	r3, [r2, #0]
	USB0_USBCTRL = 0;
    2fee:	2100      	movs	r1, #0
    2ff0:	326c      	adds	r2, #108	; 0x6c
    2ff2:	7011      	strb	r1, [r2, #0]

	// enable reset interrupt
	USB0_INTEN = USB_INTEN_USBRSTEN;
    2ff4:	3a7c      	subs	r2, #124	; 0x7c
    2ff6:	7013      	strb	r3, [r2, #0]

	// enable interrupt in NVIC...
	NVIC_SET_PRIORITY(IRQ_USBOTG, 112);
    2ff8:	2270      	movs	r2, #112	; 0x70
    2ffa:	4b0b      	ldr	r3, [pc, #44]	; (3028 <usb_init+0x88>)
    2ffc:	701a      	strb	r2, [r3, #0]
	NVIC_ENABLE_IRQ(IRQ_USBOTG);
    2ffe:	f44f 7200 	mov.w	r2, #512	; 0x200
    3002:	f2a3 3341 	subw	r3, r3, #833	; 0x341
    3006:	601a      	str	r2, [r3, #0]

	// enable d+ pullup
	USB0_CONTROL = USB_CONTROL_DPPULLUPNONOTG;
    3008:	2210      	movs	r2, #16
    300a:	f103 43c0 	add.w	r3, r3, #1610612736	; 0x60000000
    300e:	f503 23c8 	add.w	r3, r3, #409600	; 0x64000
    3012:	701a      	strb	r2, [r3, #0]
    3014:	bd08      	pop	{r3, pc}
    3016:	bf00      	nop
    3018:	1fff8000 	.word	0x1fff8000
    301c:	40048034 	.word	0x40048034
    3020:	4007209c 	.word	0x4007209c
    3024:	40072080 	.word	0x40072080
    3028:	e000e449 	.word	0xe000e449

0000302c <usb_malloc>:
usb_packet_t * usb_malloc(void)
{
	unsigned int n, avail;
	uint8_t *p;

	__disable_irq();
    302c:	b672      	cpsid	i
	avail = usb_buffer_available;
    302e:	4b0d      	ldr	r3, [pc, #52]	; (3064 <usb_malloc+0x38>)
    3030:	681a      	ldr	r2, [r3, #0]
	n = __builtin_clz(avail); // clz = count leading zeros
    3032:	fab2 f382 	clz	r3, r2
	if (n >= NUM_USB_BUFFERS) {
    3036:	2b0b      	cmp	r3, #11
    3038:	d902      	bls.n	3040 <usb_malloc+0x14>
		__enable_irq();
    303a:	b662      	cpsie	i
		return NULL;
    303c:	2000      	movs	r0, #0
    303e:	4770      	bx	lr
	}
	//serial_print("malloc:");
	//serial_phex(n);
	//serial_print("\n");

	usb_buffer_available = avail & ~(0x80000000 >> n);
    3040:	f04f 4100 	mov.w	r1, #2147483648	; 0x80000000
    3044:	40d9      	lsrs	r1, r3
    3046:	ea22 0201 	bic.w	r2, r2, r1
    304a:	4906      	ldr	r1, [pc, #24]	; (3064 <usb_malloc+0x38>)
    304c:	600a      	str	r2, [r1, #0]
	__enable_irq();
    304e:	b662      	cpsie	i
	p = usb_buffer_memory + (n * sizeof(usb_packet_t));
    3050:	4905      	ldr	r1, [pc, #20]	; (3068 <usb_malloc+0x3c>)
    3052:	eb03 03c3 	add.w	r3, r3, r3, lsl #3
    3056:	00db      	lsls	r3, r3, #3
    3058:	18c8      	adds	r0, r1, r3
	//serial_print("malloc:");
	//serial_phex32((int)p);
	//serial_print("\n");
	*(uint32_t *)p = 0;
    305a:	2200      	movs	r2, #0
    305c:	50ca      	str	r2, [r1, r3]
	*(uint32_t *)(p + 4) = 0;
    305e:	6042      	str	r2, [r0, #4]
	return (usb_packet_t *)p;
}
    3060:	4770      	bx	lr
    3062:	bf00      	nop
    3064:	1fff8dc4 	.word	0x1fff8dc4
    3068:	1fff83bc 	.word	0x1fff83bc

0000306c <usb_free>:
// for the receive endpoints to request memory
extern uint8_t usb_rx_memory_needed;
extern void usb_rx_memory(usb_packet_t *packet);

void usb_free(usb_packet_t *p)
{
    306c:	b508      	push	{r3, lr}
	unsigned int n, mask;

	//serial_print("free:");
	n = ((uint8_t *)p - usb_buffer_memory) / sizeof(usb_packet_t);
    306e:	4b0f      	ldr	r3, [pc, #60]	; (30ac <usb_free+0x40>)
    3070:	1ac3      	subs	r3, r0, r3
    3072:	4a0f      	ldr	r2, [pc, #60]	; (30b0 <usb_free+0x44>)
    3074:	fba2 2303 	umull	r2, r3, r2, r3
    3078:	091b      	lsrs	r3, r3, #4
	if (n >= NUM_USB_BUFFERS) return;
    307a:	2b0b      	cmp	r3, #11
    307c:	d814      	bhi.n	30a8 <usb_free+0x3c>
	//serial_phex(n);
	//serial_print("\n");

	// if any endpoints are starving for memory to receive
	// packets, give this memory to them immediately!
	if (usb_rx_memory_needed && usb_configuration) {
    307e:	4a0d      	ldr	r2, [pc, #52]	; (30b4 <usb_free+0x48>)
    3080:	7812      	ldrb	r2, [r2, #0]
    3082:	b13a      	cbz	r2, 3094 <usb_free+0x28>
    3084:	4a0c      	ldr	r2, [pc, #48]	; (30b8 <usb_free+0x4c>)
    3086:	7812      	ldrb	r2, [r2, #0]
    3088:	f012 0fff 	tst.w	r2, #255	; 0xff
    308c:	d002      	beq.n	3094 <usb_free+0x28>
		//serial_print("give to rx:");
		//serial_phex32((int)p);
		//serial_print("\n");
		usb_rx_memory(p);
    308e:	f7ff fb75 	bl	277c <usb_rx_memory>
		return;
    3092:	bd08      	pop	{r3, pc}
	}

	mask = (0x80000000 >> n);
	__disable_irq();
    3094:	b672      	cpsid	i
	usb_buffer_available |= mask;
    3096:	4909      	ldr	r1, [pc, #36]	; (30bc <usb_free+0x50>)
    3098:	f04f 4200 	mov.w	r2, #2147483648	; 0x80000000
    309c:	fa22 f303 	lsr.w	r3, r2, r3
    30a0:	680a      	ldr	r2, [r1, #0]
    30a2:	431a      	orrs	r2, r3
    30a4:	600a      	str	r2, [r1, #0]
	__enable_irq();
    30a6:	b662      	cpsie	i
    30a8:	bd08      	pop	{r3, pc}
    30aa:	bf00      	nop
    30ac:	1fff83bc 	.word	0x1fff83bc
    30b0:	38e38e39 	.word	0x38e38e39
    30b4:	1fff99ea 	.word	0x1fff99ea
    30b8:	1fff99f4 	.word	0x1fff99f4
    30bc:	1fff8dc4 	.word	0x1fff8dc4

000030c0 <usb_serial_getchar>:

#define TRANSMIT_FLUSH_TIMEOUT	5   /* in milliseconds */

// get the next character, or -1 if nothing received
int usb_serial_getchar(void)
{
    30c0:	b510      	push	{r4, lr}
	unsigned int i;
	int c;

	if (!rx_packet) {
    30c2:	4b13      	ldr	r3, [pc, #76]	; (3110 <usb_serial_getchar+0x50>)
    30c4:	681b      	ldr	r3, [r3, #0]
    30c6:	b953      	cbnz	r3, 30de <usb_serial_getchar+0x1e>
		if (!usb_configuration) return -1;
    30c8:	4b12      	ldr	r3, [pc, #72]	; (3114 <usb_serial_getchar+0x54>)
    30ca:	781b      	ldrb	r3, [r3, #0]
    30cc:	f013 0fff 	tst.w	r3, #255	; 0xff
    30d0:	d018      	beq.n	3104 <usb_serial_getchar+0x44>
		rx_packet = usb_rx(CDC_RX_ENDPOINT);
    30d2:	2003      	movs	r0, #3
    30d4:	f7ff fb1c 	bl	2710 <usb_rx>
    30d8:	4b0d      	ldr	r3, [pc, #52]	; (3110 <usb_serial_getchar+0x50>)
    30da:	6018      	str	r0, [r3, #0]
		if (!rx_packet) return -1;
    30dc:	b1a8      	cbz	r0, 310a <usb_serial_getchar+0x4a>
	}
	i = rx_packet->index;
    30de:	4b0c      	ldr	r3, [pc, #48]	; (3110 <usb_serial_getchar+0x50>)
    30e0:	6818      	ldr	r0, [r3, #0]
    30e2:	8843      	ldrh	r3, [r0, #2]
	c = rx_packet->buf[i++];
    30e4:	1c5a      	adds	r2, r3, #1
    30e6:	4403      	add	r3, r0
    30e8:	7a1c      	ldrb	r4, [r3, #8]
	if (i >= rx_packet->len) {
    30ea:	8803      	ldrh	r3, [r0, #0]
    30ec:	429a      	cmp	r2, r3
    30ee:	d306      	bcc.n	30fe <usb_serial_getchar+0x3e>
		usb_free(rx_packet);
    30f0:	f7ff ffbc 	bl	306c <usb_free>
		rx_packet = NULL;
    30f4:	2200      	movs	r2, #0
    30f6:	4b06      	ldr	r3, [pc, #24]	; (3110 <usb_serial_getchar+0x50>)
    30f8:	601a      	str	r2, [r3, #0]
	} else {
		rx_packet->index = i;
	}
	return c;
    30fa:	4620      	mov	r0, r4
    30fc:	bd10      	pop	{r4, pc}
	c = rx_packet->buf[i++];
	if (i >= rx_packet->len) {
		usb_free(rx_packet);
		rx_packet = NULL;
	} else {
		rx_packet->index = i;
    30fe:	8042      	strh	r2, [r0, #2]
	}
	return c;
    3100:	4620      	mov	r0, r4
    3102:	bd10      	pop	{r4, pc}
{
	unsigned int i;
	int c;

	if (!rx_packet) {
		if (!usb_configuration) return -1;
    3104:	f04f 30ff 	mov.w	r0, #4294967295	; 0xffffffff
    3108:	bd10      	pop	{r4, pc}
		rx_packet = usb_rx(CDC_RX_ENDPOINT);
		if (!rx_packet) return -1;
    310a:	f04f 30ff 	mov.w	r0, #4294967295	; 0xffffffff
		rx_packet = NULL;
	} else {
		rx_packet->index = i;
	}
	return c;
}
    310e:	bd10      	pop	{r4, pc}
    3110:	1fff9a00 	.word	0x1fff9a00
    3114:	1fff99f4 	.word	0x1fff99f4

00003118 <usb_serial_peekchar>:

// peek at the next character, or -1 if nothing received
int usb_serial_peekchar(void)
{
    3118:	b508      	push	{r3, lr}
	if (!rx_packet) {
    311a:	4b0d      	ldr	r3, [pc, #52]	; (3150 <usb_serial_peekchar+0x38>)
    311c:	681b      	ldr	r3, [r3, #0]
    311e:	b983      	cbnz	r3, 3142 <usb_serial_peekchar+0x2a>
		if (!usb_configuration) return -1;
    3120:	4b0c      	ldr	r3, [pc, #48]	; (3154 <usb_serial_peekchar+0x3c>)
    3122:	781b      	ldrb	r3, [r3, #0]
    3124:	f013 0fff 	tst.w	r3, #255	; 0xff
    3128:	d008      	beq.n	313c <usb_serial_peekchar+0x24>
		rx_packet = usb_rx(CDC_RX_ENDPOINT);
    312a:	2003      	movs	r0, #3
    312c:	f7ff faf0 	bl	2710 <usb_rx>
    3130:	4b07      	ldr	r3, [pc, #28]	; (3150 <usb_serial_peekchar+0x38>)
    3132:	6018      	str	r0, [r3, #0]
		if (!rx_packet) return -1;
    3134:	b928      	cbnz	r0, 3142 <usb_serial_peekchar+0x2a>
    3136:	f04f 30ff 	mov.w	r0, #4294967295	; 0xffffffff
    313a:	bd08      	pop	{r3, pc}

// peek at the next character, or -1 if nothing received
int usb_serial_peekchar(void)
{
	if (!rx_packet) {
		if (!usb_configuration) return -1;
    313c:	f04f 30ff 	mov.w	r0, #4294967295	; 0xffffffff
    3140:	bd08      	pop	{r3, pc}
		rx_packet = usb_rx(CDC_RX_ENDPOINT);
		if (!rx_packet) return -1;
	}
	if (!rx_packet) return -1;
    3142:	4b03      	ldr	r3, [pc, #12]	; (3150 <usb_serial_peekchar+0x38>)
    3144:	681a      	ldr	r2, [r3, #0]
	return rx_packet->buf[rx_packet->index];
    3146:	8853      	ldrh	r3, [r2, #2]
    3148:	4413      	add	r3, r2
    314a:	7a18      	ldrb	r0, [r3, #8]
}
    314c:	bd08      	pop	{r3, pc}
    314e:	bf00      	nop
    3150:	1fff9a00 	.word	0x1fff9a00
    3154:	1fff99f4 	.word	0x1fff99f4

00003158 <usb_serial_available>:
static inline uint32_t usb_rx_byte_count(uint32_t endpoint) __attribute__((always_inline));
static inline uint32_t usb_rx_byte_count(uint32_t endpoint)
{
        endpoint--;
        if (endpoint >= NUM_ENDPOINTS) return 0;
        return usb_rx_byte_count_data[endpoint];
    3158:	4b04      	ldr	r3, [pc, #16]	; (316c <usb_serial_available+0x14>)

// number of bytes available in the receive buffer
int usb_serial_available(void)
{
	int count;
	count = usb_rx_byte_count(CDC_RX_ENDPOINT);
    315a:	8898      	ldrh	r0, [r3, #4]
	if (rx_packet) count += rx_packet->len - rx_packet->index;
    315c:	4b04      	ldr	r3, [pc, #16]	; (3170 <usb_serial_available+0x18>)
    315e:	681b      	ldr	r3, [r3, #0]
    3160:	b11b      	cbz	r3, 316a <usb_serial_available+0x12>
    3162:	881a      	ldrh	r2, [r3, #0]
    3164:	885b      	ldrh	r3, [r3, #2]
    3166:	1ad3      	subs	r3, r2, r3
    3168:	4418      	add	r0, r3
	return count;
}
    316a:	4770      	bx	lr
    316c:	1fff9be8 	.word	0x1fff9be8
    3170:	1fff9a00 	.word	0x1fff9a00

00003174 <usb_serial_flush_input>:
// discard any buffered input
void usb_serial_flush_input(void)
{
	usb_packet_t *rx;

	if (!usb_configuration) return;
    3174:	4b0b      	ldr	r3, [pc, #44]	; (31a4 <usb_serial_flush_input+0x30>)
    3176:	781b      	ldrb	r3, [r3, #0]
    3178:	f013 0fff 	tst.w	r3, #255	; 0xff
    317c:	d011      	beq.n	31a2 <usb_serial_flush_input+0x2e>
	return count;
}

// discard any buffered input
void usb_serial_flush_input(void)
{
    317e:	b510      	push	{r4, lr}
	usb_packet_t *rx;

	if (!usb_configuration) return;
	if (rx_packet) {
    3180:	4b09      	ldr	r3, [pc, #36]	; (31a8 <usb_serial_flush_input+0x34>)
    3182:	6818      	ldr	r0, [r3, #0]
    3184:	b120      	cbz	r0, 3190 <usb_serial_flush_input+0x1c>
		usb_free(rx_packet);
    3186:	f7ff ff71 	bl	306c <usb_free>
		rx_packet = NULL;
    318a:	2200      	movs	r2, #0
    318c:	4b06      	ldr	r3, [pc, #24]	; (31a8 <usb_serial_flush_input+0x34>)
    318e:	601a      	str	r2, [r3, #0]
	}
	while (1) {
		rx = usb_rx(CDC_RX_ENDPOINT);
    3190:	2403      	movs	r4, #3
    3192:	4620      	mov	r0, r4
    3194:	f7ff fabc 	bl	2710 <usb_rx>
		if (!rx) break;
    3198:	b110      	cbz	r0, 31a0 <usb_serial_flush_input+0x2c>
		usb_free(rx);
    319a:	f7ff ff67 	bl	306c <usb_free>
	}
    319e:	e7f8      	b.n	3192 <usb_serial_flush_input+0x1e>
    31a0:	bd10      	pop	{r4, pc}
    31a2:	4770      	bx	lr
    31a4:	1fff99f4 	.word	0x1fff99f4
    31a8:	1fff9a00 	.word	0x1fff9a00

000031ac <usb_serial_write>:
	return usb_serial_write(&c, 1);
}


int usb_serial_write(const void *buffer, uint32_t size)
{
    31ac:	e92d 4ff8 	stmdb	sp!, {r3, r4, r5, r6, r7, r8, r9, sl, fp, lr}
	uint32_t len;
	uint32_t wait_count;
	const uint8_t *src = (const uint8_t *)buffer;
	uint8_t *dest;

	tx_noautoflush = 1;
    31b0:	2201      	movs	r2, #1
    31b2:	4b37      	ldr	r3, [pc, #220]	; (3290 <usb_serial_write+0xe4>)
    31b4:	701a      	strb	r2, [r3, #0]
	while (size > 0) {
    31b6:	468a      	mov	sl, r1
    31b8:	2900      	cmp	r1, #0
    31ba:	d063      	beq.n	3284 <usb_serial_write+0xd8>
    31bc:	4604      	mov	r4, r0
    31be:	460d      	mov	r5, r1
		if (!tx_packet) {
    31c0:	4f34      	ldr	r7, [pc, #208]	; (3294 <usb_serial_write+0xe8>)
			wait_count = 0;
			while (1) {
				if (!usb_configuration) {
    31c2:	f8df 80dc 	ldr.w	r8, [pc, #220]	; 32a0 <usb_serial_write+0xf4>
					tx_noautoflush = 0;
					return -1;
				}
				if (usb_tx_packet_count(CDC_TX_ENDPOINT) < TX_PACKET_LIMIT) {
					tx_noautoflush = 1;
    31c6:	4699      	mov	r9, r3
					tx_packet = usb_malloc();
					if (tx_packet) break;
					tx_noautoflush = 0;
				}
				if (++wait_count > TX_TIMEOUT || transmit_previous_timeout) {
    31c8:	4e33      	ldr	r6, [pc, #204]	; (3298 <usb_serial_write+0xec>)
	const uint8_t *src = (const uint8_t *)buffer;
	uint8_t *dest;

	tx_noautoflush = 1;
	while (size > 0) {
		if (!tx_packet) {
    31ca:	683b      	ldr	r3, [r7, #0]
    31cc:	bb83      	cbnz	r3, 3230 <usb_serial_write+0x84>
			wait_count = 0;
			while (1) {
				if (!usb_configuration) {
    31ce:	f898 3000 	ldrb.w	r3, [r8]
    31d2:	f013 0fff 	tst.w	r3, #255	; 0xff
    31d6:	d106      	bne.n	31e6 <usb_serial_write+0x3a>
					tx_noautoflush = 0;
    31d8:	2200      	movs	r2, #0
    31da:	4b2d      	ldr	r3, [pc, #180]	; (3290 <usb_serial_write+0xe4>)
    31dc:	701a      	strb	r2, [r3, #0]
					return -1;
    31de:	f04f 30ff 	mov.w	r0, #4294967295	; 0xffffffff
    31e2:	e8bd 8ff8 	ldmia.w	sp!, {r3, r4, r5, r6, r7, r8, r9, sl, fp, pc}
	tx_noautoflush = 1;
	while (size > 0) {
		if (!tx_packet) {
			wait_count = 0;
			while (1) {
				if (!usb_configuration) {
    31e6:	f247 5b09 	movw	fp, #29961	; 0x7509
					tx_noautoflush = 0;
					return -1;
				}
				if (usb_tx_packet_count(CDC_TX_ENDPOINT) < TX_PACKET_LIMIT) {
    31ea:	2004      	movs	r0, #4
    31ec:	f7ff fab0 	bl	2750 <usb_tx_packet_count>
    31f0:	2807      	cmp	r0, #7
    31f2:	d809      	bhi.n	3208 <usb_serial_write+0x5c>
					tx_noautoflush = 1;
    31f4:	2301      	movs	r3, #1
    31f6:	f889 3000 	strb.w	r3, [r9]
					tx_packet = usb_malloc();
    31fa:	f7ff ff17 	bl	302c <usb_malloc>
    31fe:	6038      	str	r0, [r7, #0]
					if (tx_packet) break;
    3200:	b9b0      	cbnz	r0, 3230 <usb_serial_write+0x84>
					tx_noautoflush = 0;
    3202:	2300      	movs	r3, #0
    3204:	f889 3000 	strb.w	r3, [r9]
				}
				if (++wait_count > TX_TIMEOUT || transmit_previous_timeout) {
    3208:	f1bb 0b01 	subs.w	fp, fp, #1
    320c:	d001      	beq.n	3212 <usb_serial_write+0x66>
    320e:	7833      	ldrb	r3, [r6, #0]
    3210:	b133      	cbz	r3, 3220 <usb_serial_write+0x74>
					transmit_previous_timeout = 1;
    3212:	2201      	movs	r2, #1
    3214:	4b20      	ldr	r3, [pc, #128]	; (3298 <usb_serial_write+0xec>)
    3216:	701a      	strb	r2, [r3, #0]
					return -1;
    3218:	f04f 30ff 	mov.w	r0, #4294967295	; 0xffffffff
    321c:	e8bd 8ff8 	ldmia.w	sp!, {r3, r4, r5, r6, r7, r8, r9, sl, fp, pc}
				}
				yield();
    3220:	f000 f9e6 	bl	35f0 <yield>
	tx_noautoflush = 1;
	while (size > 0) {
		if (!tx_packet) {
			wait_count = 0;
			while (1) {
				if (!usb_configuration) {
    3224:	f898 3000 	ldrb.w	r3, [r8]
    3228:	f013 0fff 	tst.w	r3, #255	; 0xff
    322c:	d1dd      	bne.n	31ea <usb_serial_write+0x3e>
    322e:	e7d3      	b.n	31d8 <usb_serial_write+0x2c>
					return -1;
				}
				yield();
			}
		}
		transmit_previous_timeout = 0;
    3230:	2300      	movs	r3, #0
    3232:	7033      	strb	r3, [r6, #0]
		len = CDC_TX_SIZE - tx_packet->index;
    3234:	6839      	ldr	r1, [r7, #0]
    3236:	884a      	ldrh	r2, [r1, #2]
    3238:	f1c2 0040 	rsb	r0, r2, #64	; 0x40
    323c:	42a8      	cmp	r0, r5
    323e:	bf28      	it	cs
    3240:	4628      	movcs	r0, r5
		if (len > size) len = size;
		dest = tx_packet->buf + tx_packet->index;
    3242:	f101 0308 	add.w	r3, r1, #8
		tx_packet->index += len;
    3246:	eb02 0e00 	add.w	lr, r2, r0
    324a:	f8a1 e002 	strh.w	lr, [r1, #2]
		size -= len;
    324e:	1a2d      	subs	r5, r5, r0
		while (len-- > 0) *dest++ = *src++;
    3250:	b148      	cbz	r0, 3266 <usb_serial_write+0xba>
    3252:	3a01      	subs	r2, #1
    3254:	4413      	add	r3, r2
    3256:	4420      	add	r0, r4
    3258:	f814 2b01 	ldrb.w	r2, [r4], #1
    325c:	f803 2f01 	strb.w	r2, [r3, #1]!
    3260:	42a0      	cmp	r0, r4
    3262:	d1f9      	bne.n	3258 <usb_serial_write+0xac>
    3264:	4604      	mov	r4, r0
		if (tx_packet->index >= CDC_TX_SIZE) {
    3266:	884b      	ldrh	r3, [r1, #2]
    3268:	2b3f      	cmp	r3, #63	; 0x3f
    326a:	d906      	bls.n	327a <usb_serial_write+0xce>
			tx_packet->len = CDC_TX_SIZE;
    326c:	2340      	movs	r3, #64	; 0x40
    326e:	800b      	strh	r3, [r1, #0]
			usb_tx(CDC_TX_ENDPOINT, tx_packet);
    3270:	2004      	movs	r0, #4
    3272:	f7ff fac7 	bl	2804 <usb_tx>
			tx_packet = NULL;
    3276:	2300      	movs	r3, #0
    3278:	603b      	str	r3, [r7, #0]
		}
		usb_cdc_transmit_flush_timer = TRANSMIT_FLUSH_TIMEOUT;
    327a:	2205      	movs	r2, #5
    327c:	4b07      	ldr	r3, [pc, #28]	; (329c <usb_serial_write+0xf0>)
    327e:	701a      	strb	r2, [r3, #0]
	uint32_t wait_count;
	const uint8_t *src = (const uint8_t *)buffer;
	uint8_t *dest;

	tx_noautoflush = 1;
	while (size > 0) {
    3280:	2d00      	cmp	r5, #0
    3282:	d1a2      	bne.n	31ca <usb_serial_write+0x1e>
			usb_tx(CDC_TX_ENDPOINT, tx_packet);
			tx_packet = NULL;
		}
		usb_cdc_transmit_flush_timer = TRANSMIT_FLUSH_TIMEOUT;
	}
	tx_noautoflush = 0;
    3284:	2200      	movs	r2, #0
    3286:	4b02      	ldr	r3, [pc, #8]	; (3290 <usb_serial_write+0xe4>)
    3288:	701a      	strb	r2, [r3, #0]
	return ret;
    328a:	4650      	mov	r0, sl
}
    328c:	e8bd 8ff8 	ldmia.w	sp!, {r3, r4, r5, r6, r7, r8, r9, sl, fp, pc}
    3290:	1fff99f7 	.word	0x1fff99f7
    3294:	1fff99f8 	.word	0x1fff99f8
    3298:	1fff99fc 	.word	0x1fff99fc
    329c:	1fff99f6 	.word	0x1fff99f6
    32a0:	1fff99f4 	.word	0x1fff99f4

000032a4 <usb_serial_putchar>:
static uint8_t transmit_previous_timeout=0;


// transmit a character.  0 returned on success, -1 on error
int usb_serial_putchar(uint8_t c)
{
    32a4:	b500      	push	{lr}
    32a6:	b083      	sub	sp, #12
    32a8:	ab02      	add	r3, sp, #8
    32aa:	f803 0d01 	strb.w	r0, [r3, #-1]!
	return usb_serial_write(&c, 1);
    32ae:	2101      	movs	r1, #1
    32b0:	4618      	mov	r0, r3
    32b2:	f7ff ff7b 	bl	31ac <usb_serial_write>
}
    32b6:	b003      	add	sp, #12
    32b8:	f85d fb04 	ldr.w	pc, [sp], #4

000032bc <usb_serial_write_buffer_free>:
	tx_noautoflush = 0;
	return ret;
}

int usb_serial_write_buffer_free(void)
{
    32bc:	b508      	push	{r3, lr}
	uint32_t len;

	tx_noautoflush = 1;
    32be:	2201      	movs	r2, #1
    32c0:	4b10      	ldr	r3, [pc, #64]	; (3304 <usb_serial_write_buffer_free+0x48>)
    32c2:	701a      	strb	r2, [r3, #0]
	if (!tx_packet) {
    32c4:	4b10      	ldr	r3, [pc, #64]	; (3308 <usb_serial_write_buffer_free+0x4c>)
    32c6:	681b      	ldr	r3, [r3, #0]
    32c8:	b993      	cbnz	r3, 32f0 <usb_serial_write_buffer_free+0x34>
		if (!usb_configuration ||
    32ca:	4b10      	ldr	r3, [pc, #64]	; (330c <usb_serial_write_buffer_free+0x50>)
    32cc:	781b      	ldrb	r3, [r3, #0]
    32ce:	f013 0fff 	tst.w	r3, #255	; 0xff
    32d2:	d009      	beq.n	32e8 <usb_serial_write_buffer_free+0x2c>
		  usb_tx_packet_count(CDC_TX_ENDPOINT) >= TX_PACKET_LIMIT ||
    32d4:	2004      	movs	r0, #4
    32d6:	f7ff fa3b 	bl	2750 <usb_tx_packet_count>
{
	uint32_t len;

	tx_noautoflush = 1;
	if (!tx_packet) {
		if (!usb_configuration ||
    32da:	2807      	cmp	r0, #7
    32dc:	d804      	bhi.n	32e8 <usb_serial_write_buffer_free+0x2c>
		  usb_tx_packet_count(CDC_TX_ENDPOINT) >= TX_PACKET_LIMIT ||
		  (tx_packet = usb_malloc()) == NULL) {
    32de:	f7ff fea5 	bl	302c <usb_malloc>
    32e2:	4b09      	ldr	r3, [pc, #36]	; (3308 <usb_serial_write_buffer_free+0x4c>)
    32e4:	6018      	str	r0, [r3, #0]
	uint32_t len;

	tx_noautoflush = 1;
	if (!tx_packet) {
		if (!usb_configuration ||
		  usb_tx_packet_count(CDC_TX_ENDPOINT) >= TX_PACKET_LIMIT ||
    32e6:	b918      	cbnz	r0, 32f0 <usb_serial_write_buffer_free+0x34>
		  (tx_packet = usb_malloc()) == NULL) {
			tx_noautoflush = 0;
    32e8:	2000      	movs	r0, #0
    32ea:	4b06      	ldr	r3, [pc, #24]	; (3304 <usb_serial_write_buffer_free+0x48>)
    32ec:	7018      	strb	r0, [r3, #0]
			return 0;
    32ee:	bd08      	pop	{r3, pc}
		}
	}
	len = CDC_TX_SIZE - tx_packet->index;
    32f0:	4b05      	ldr	r3, [pc, #20]	; (3308 <usb_serial_write_buffer_free+0x4c>)
    32f2:	681b      	ldr	r3, [r3, #0]
    32f4:	8858      	ldrh	r0, [r3, #2]
    32f6:	f1c0 0040 	rsb	r0, r0, #64	; 0x40
	// space we just promised the user could write without blocking?
	// But does this come with other performance downsides?  Could it lead to
	// buffer data never actually transmitting in some usage cases?  More
	// investigation is needed.
	// https://github.com/PaulStoffregen/cores/issues/10#issuecomment-61514955
	tx_noautoflush = 0;
    32fa:	2200      	movs	r2, #0
    32fc:	4b01      	ldr	r3, [pc, #4]	; (3304 <usb_serial_write_buffer_free+0x48>)
    32fe:	701a      	strb	r2, [r3, #0]
	return len;
}
    3300:	bd08      	pop	{r3, pc}
    3302:	bf00      	nop
    3304:	1fff99f7 	.word	0x1fff99f7
    3308:	1fff99f8 	.word	0x1fff99f8
    330c:	1fff99f4 	.word	0x1fff99f4

00003310 <usb_serial_flush_output>:

void usb_serial_flush_output(void)
{
	if (!usb_configuration) return;
    3310:	4b14      	ldr	r3, [pc, #80]	; (3364 <usb_serial_flush_output+0x54>)
    3312:	781b      	ldrb	r3, [r3, #0]
    3314:	f013 0fff 	tst.w	r3, #255	; 0xff
    3318:	d023      	beq.n	3362 <usb_serial_flush_output+0x52>
	tx_noautoflush = 0;
	return len;
}

void usb_serial_flush_output(void)
{
    331a:	b510      	push	{r4, lr}
	if (!usb_configuration) return;
	tx_noautoflush = 1;
    331c:	2201      	movs	r2, #1
    331e:	4b12      	ldr	r3, [pc, #72]	; (3368 <usb_serial_flush_output+0x58>)
    3320:	701a      	strb	r2, [r3, #0]
	if (tx_packet) {
    3322:	4b12      	ldr	r3, [pc, #72]	; (336c <usb_serial_flush_output+0x5c>)
    3324:	6819      	ldr	r1, [r3, #0]
    3326:	b151      	cbz	r1, 333e <usb_serial_flush_output+0x2e>
		usb_cdc_transmit_flush_timer = 0;
    3328:	2400      	movs	r4, #0
    332a:	4b11      	ldr	r3, [pc, #68]	; (3370 <usb_serial_flush_output+0x60>)
    332c:	701c      	strb	r4, [r3, #0]
		tx_packet->len = tx_packet->index;
    332e:	884b      	ldrh	r3, [r1, #2]
    3330:	800b      	strh	r3, [r1, #0]
		usb_tx(CDC_TX_ENDPOINT, tx_packet);
    3332:	2004      	movs	r0, #4
    3334:	f7ff fa66 	bl	2804 <usb_tx>
		tx_packet = NULL;
    3338:	4b0c      	ldr	r3, [pc, #48]	; (336c <usb_serial_flush_output+0x5c>)
    333a:	601c      	str	r4, [r3, #0]
    333c:	e00d      	b.n	335a <usb_serial_flush_output+0x4a>
	} else {
		usb_packet_t *tx = usb_malloc();
    333e:	f7ff fe75 	bl	302c <usb_malloc>
		if (tx) {
    3342:	4601      	mov	r1, r0
    3344:	b130      	cbz	r0, 3354 <usb_serial_flush_output+0x44>
			usb_cdc_transmit_flush_timer = 0;
    3346:	2200      	movs	r2, #0
    3348:	4b09      	ldr	r3, [pc, #36]	; (3370 <usb_serial_flush_output+0x60>)
    334a:	701a      	strb	r2, [r3, #0]
			usb_tx(CDC_TX_ENDPOINT, tx);
    334c:	2004      	movs	r0, #4
    334e:	f7ff fa59 	bl	2804 <usb_tx>
    3352:	e002      	b.n	335a <usb_serial_flush_output+0x4a>
		} else {
			usb_cdc_transmit_flush_timer = 1;
    3354:	2201      	movs	r2, #1
    3356:	4b06      	ldr	r3, [pc, #24]	; (3370 <usb_serial_flush_output+0x60>)
    3358:	701a      	strb	r2, [r3, #0]
		}
	}
	tx_noautoflush = 0;
    335a:	2200      	movs	r2, #0
    335c:	4b02      	ldr	r3, [pc, #8]	; (3368 <usb_serial_flush_output+0x58>)
    335e:	701a      	strb	r2, [r3, #0]
    3360:	bd10      	pop	{r4, pc}
    3362:	4770      	bx	lr
    3364:	1fff99f4 	.word	0x1fff99f4
    3368:	1fff99f7 	.word	0x1fff99f7
    336c:	1fff99f8 	.word	0x1fff99f8
    3370:	1fff99f6 	.word	0x1fff99f6

00003374 <usb_serial_flush_callback>:
}

void usb_serial_flush_callback(void)
{
    3374:	b508      	push	{r3, lr}
	if (tx_noautoflush) return;
    3376:	4b0e      	ldr	r3, [pc, #56]	; (33b0 <usb_serial_flush_callback+0x3c>)
    3378:	781b      	ldrb	r3, [r3, #0]
    337a:	f013 0fff 	tst.w	r3, #255	; 0xff
    337e:	d116      	bne.n	33ae <usb_serial_flush_callback+0x3a>
	if (tx_packet) {
    3380:	4b0c      	ldr	r3, [pc, #48]	; (33b4 <usb_serial_flush_callback+0x40>)
    3382:	6819      	ldr	r1, [r3, #0]
    3384:	b141      	cbz	r1, 3398 <usb_serial_flush_callback+0x24>
		tx_packet->len = tx_packet->index;
    3386:	884b      	ldrh	r3, [r1, #2]
    3388:	800b      	strh	r3, [r1, #0]
		usb_tx(CDC_TX_ENDPOINT, tx_packet);
    338a:	2004      	movs	r0, #4
    338c:	f7ff fa3a 	bl	2804 <usb_tx>
		tx_packet = NULL;
    3390:	2200      	movs	r2, #0
    3392:	4b08      	ldr	r3, [pc, #32]	; (33b4 <usb_serial_flush_callback+0x40>)
    3394:	601a      	str	r2, [r3, #0]
    3396:	bd08      	pop	{r3, pc}
	} else {
		usb_packet_t *tx = usb_malloc();
    3398:	f7ff fe48 	bl	302c <usb_malloc>
		if (tx) {
    339c:	4601      	mov	r1, r0
    339e:	b118      	cbz	r0, 33a8 <usb_serial_flush_callback+0x34>
			usb_tx(CDC_TX_ENDPOINT, tx);
    33a0:	2004      	movs	r0, #4
    33a2:	f7ff fa2f 	bl	2804 <usb_tx>
    33a6:	bd08      	pop	{r3, pc}
		} else {
			usb_cdc_transmit_flush_timer = 1;
    33a8:	2201      	movs	r2, #1
    33aa:	4b03      	ldr	r3, [pc, #12]	; (33b8 <usb_serial_flush_callback+0x44>)
    33ac:	701a      	strb	r2, [r3, #0]
    33ae:	bd08      	pop	{r3, pc}
    33b0:	1fff99f7 	.word	0x1fff99f7
    33b4:	1fff99f8 	.word	0x1fff99f8
    33b8:	1fff99f6 	.word	0x1fff99f6

000033bc <DMAChannel::begin(bool)>:
/**                     Teensy 3.0 & 3.1                       **/
/****************************************************************/
#if defined(KINETISK)

void DMAChannel::begin(bool force_initialization)
{
    33bc:	b410      	push	{r4}
	uint32_t ch = 0;

	__disable_irq();
    33be:	b672      	cpsid	i
	if (!force_initialization && TCD && channel < DMA_MAX_CHANNELS
    33c0:	b909      	cbnz	r1, 33c6 <DMAChannel::begin(bool)+0xa>
    33c2:	6802      	ldr	r2, [r0, #0]
    33c4:	b922      	cbnz	r2, 33d0 <DMAChannel::begin(bool)+0x14>
		// DMA channel already allocated
		__enable_irq();
		return;
	}
	while (1) {
		if (!(dma_channel_allocated_mask & (1 << ch))) {
    33c6:	4b29      	ldr	r3, [pc, #164]	; (346c <DMAChannel::begin(bool)+0xb0>)
    33c8:	881c      	ldrh	r4, [r3, #0]
    33ca:	4621      	mov	r1, r4
    33cc:	2300      	movs	r3, #0
    33ce:	e011      	b.n	33f4 <DMAChannel::begin(bool)+0x38>
void DMAChannel::begin(bool force_initialization)
{
	uint32_t ch = 0;

	__disable_irq();
	if (!force_initialization && TCD && channel < DMA_MAX_CHANNELS
    33d0:	7903      	ldrb	r3, [r0, #4]
    33d2:	2b0f      	cmp	r3, #15
    33d4:	d8f7      	bhi.n	33c6 <DMAChannel::begin(bool)+0xa>
	  && (dma_channel_allocated_mask & (1 << channel))
    33d6:	4925      	ldr	r1, [pc, #148]	; (346c <DMAChannel::begin(bool)+0xb0>)
    33d8:	8809      	ldrh	r1, [r1, #0]
    33da:	4119      	asrs	r1, r3
    33dc:	f011 0f01 	tst.w	r1, #1
    33e0:	d0f1      	beq.n	33c6 <DMAChannel::begin(bool)+0xa>
	  && (uint32_t)TCD == (uint32_t)(0x40009000 + channel * 32)) {
    33e2:	f103 7300 	add.w	r3, r3, #33554432	; 0x2000000
    33e6:	f503 6390 	add.w	r3, r3, #1152	; 0x480
    33ea:	ebb2 1f43 	cmp.w	r2, r3, lsl #5
    33ee:	d1ea      	bne.n	33c6 <DMAChannel::begin(bool)+0xa>
		// DMA channel already allocated
		__enable_irq();
    33f0:	b662      	cpsie	i
		return;
    33f2:	e039      	b.n	3468 <DMAChannel::begin(bool)+0xac>
	}
	while (1) {
		if (!(dma_channel_allocated_mask & (1 << ch))) {
    33f4:	fa41 f203 	asr.w	r2, r1, r3
    33f8:	f012 0f01 	tst.w	r2, #1
    33fc:	d12c      	bne.n	3458 <DMAChannel::begin(bool)+0x9c>
			dma_channel_allocated_mask |= (1 << ch);
    33fe:	2201      	movs	r2, #1
    3400:	409a      	lsls	r2, r3
    3402:	4314      	orrs	r4, r2
    3404:	4a19      	ldr	r2, [pc, #100]	; (346c <DMAChannel::begin(bool)+0xb0>)
    3406:	8014      	strh	r4, [r2, #0]
			__enable_irq();
    3408:	b662      	cpsie	i
			channel = DMA_MAX_CHANNELS;
			return; // no more channels available
			// attempts to use this object will hardfault
		}
	}
	channel = ch;
    340a:	b2da      	uxtb	r2, r3
    340c:	7102      	strb	r2, [r0, #4]
	SIM_SCGC7 |= SIM_SCGC7_DMA;
    340e:	4c18      	ldr	r4, [pc, #96]	; (3470 <DMAChannel::begin(bool)+0xb4>)
    3410:	6821      	ldr	r1, [r4, #0]
    3412:	f041 0102 	orr.w	r1, r1, #2
    3416:	6021      	str	r1, [r4, #0]
	SIM_SCGC6 |= SIM_SCGC6_DMAMUX;
    3418:	3c04      	subs	r4, #4
    341a:	6821      	ldr	r1, [r4, #0]
    341c:	f041 0102 	orr.w	r1, r1, #2
    3420:	6021      	str	r1, [r4, #0]
#if DMA_NUM_CHANNELS <= 16
	DMA_CR = DMA_CR_EMLM | DMA_CR_EDBG; // minor loop mapping is available
    3422:	2482      	movs	r4, #130	; 0x82
    3424:	4913      	ldr	r1, [pc, #76]	; (3474 <DMAChannel::begin(bool)+0xb8>)
    3426:	600c      	str	r4, [r1, #0]
#else
	DMA_CR = DMA_CR_GRP1PRI| DMA_CR_EMLM | DMA_CR_EDBG;
#endif
	DMA_CERQ = ch;
    3428:	311a      	adds	r1, #26
    342a:	700a      	strb	r2, [r1, #0]
	DMA_CERR = ch;
    342c:	3104      	adds	r1, #4
    342e:	700a      	strb	r2, [r1, #0]
	DMA_CEEI = ch;
    3430:	3906      	subs	r1, #6
    3432:	700a      	strb	r2, [r1, #0]
	DMA_CINT = ch;
    3434:	3107      	adds	r1, #7
    3436:	700a      	strb	r2, [r1, #0]
	TCD = (TCD_t *)(0x40009000 + ch * 32);
    3438:	f103 7300 	add.w	r3, r3, #33554432	; 0x2000000
    343c:	f503 6390 	add.w	r3, r3, #1152	; 0x480
    3440:	015b      	lsls	r3, r3, #5
    3442:	6003      	str	r3, [r0, #0]
	uint32_t *p = (uint32_t *)TCD;
	*p++ = 0;
    3444:	2200      	movs	r2, #0
    3446:	601a      	str	r2, [r3, #0]
	*p++ = 0;
    3448:	605a      	str	r2, [r3, #4]
	*p++ = 0;
    344a:	609a      	str	r2, [r3, #8]
	*p++ = 0;
    344c:	60da      	str	r2, [r3, #12]
	*p++ = 0;
    344e:	611a      	str	r2, [r3, #16]
	*p++ = 0;
    3450:	615a      	str	r2, [r3, #20]
	*p++ = 0;
    3452:	619a      	str	r2, [r3, #24]
	*p++ = 0;
    3454:	61da      	str	r2, [r3, #28]
    3456:	e007      	b.n	3468 <DMAChannel::begin(bool)+0xac>
		if (!(dma_channel_allocated_mask & (1 << ch))) {
			dma_channel_allocated_mask |= (1 << ch);
			__enable_irq();
			break;
		}
		if (++ch >= DMA_MAX_CHANNELS) {
    3458:	3301      	adds	r3, #1
    345a:	2b10      	cmp	r3, #16
    345c:	d1ca      	bne.n	33f4 <DMAChannel::begin(bool)+0x38>
			__enable_irq();
    345e:	b662      	cpsie	i
			TCD = (TCD_t *)0;
    3460:	2300      	movs	r3, #0
    3462:	6003      	str	r3, [r0, #0]
			channel = DMA_MAX_CHANNELS;
    3464:	2310      	movs	r3, #16
    3466:	7103      	strb	r3, [r0, #4]
	*p++ = 0;
	*p++ = 0;
	*p++ = 0;
	*p++ = 0;
	*p++ = 0;
}
    3468:	bc10      	pop	{r4}
    346a:	4770      	bx	lr
    346c:	1fff9a06 	.word	0x1fff9a06
    3470:	40048040 	.word	0x40048040
    3474:	40008000 	.word	0x40008000

00003478 <DMAChannel::release()>:

void DMAChannel::release(void)
{
	if (channel >= DMA_MAX_CHANNELS) return;
    3478:	7903      	ldrb	r3, [r0, #4]
    347a:	2b0f      	cmp	r3, #15
    347c:	d810      	bhi.n	34a0 <DMAChannel::release()+0x28>
	DMA_CERQ = channel;
    347e:	4a09      	ldr	r2, [pc, #36]	; (34a4 <DMAChannel::release()+0x2c>)
    3480:	7013      	strb	r3, [r2, #0]
	__disable_irq();
    3482:	b672      	cpsid	i
	dma_channel_allocated_mask &= ~(1 << channel);
    3484:	4908      	ldr	r1, [pc, #32]	; (34a8 <DMAChannel::release()+0x30>)
    3486:	7902      	ldrb	r2, [r0, #4]
    3488:	2301      	movs	r3, #1
    348a:	fa03 f202 	lsl.w	r2, r3, r2
    348e:	880b      	ldrh	r3, [r1, #0]
    3490:	ea23 0302 	bic.w	r3, r3, r2
    3494:	800b      	strh	r3, [r1, #0]
	__enable_irq();
    3496:	b662      	cpsie	i
	channel = DMA_MAX_CHANNELS;
    3498:	2310      	movs	r3, #16
    349a:	7103      	strb	r3, [r0, #4]
	TCD = (TCD_t *)0;
    349c:	2300      	movs	r3, #0
    349e:	6003      	str	r3, [r0, #0]
    34a0:	4770      	bx	lr
    34a2:	bf00      	nop
    34a4:	4000801a 	.word	0x4000801a
    34a8:	1fff9a06 	.word	0x1fff9a06

000034ac <Print::println()>:
	return printNumber(n, 10, sign);
}


size_t Print::println(void)
{
    34ac:	b500      	push	{lr}
    34ae:	b083      	sub	sp, #12
	uint8_t buf[2]={'\r', '\n'};
    34b0:	4b05      	ldr	r3, [pc, #20]	; (34c8 <Print::println()+0x1c>)
    34b2:	881b      	ldrh	r3, [r3, #0]
    34b4:	f8ad 3004 	strh.w	r3, [sp, #4]
	return write(buf, 2);
    34b8:	6803      	ldr	r3, [r0, #0]
    34ba:	685b      	ldr	r3, [r3, #4]
    34bc:	2202      	movs	r2, #2
    34be:	a901      	add	r1, sp, #4
    34c0:	4798      	blx	r3
}
    34c2:	b003      	add	sp, #12
    34c4:	f85d fb04 	ldr.w	pc, [sp], #4
    34c8:	00008f3c 	.word	0x00008f3c

000034cc <_write>:

extern "C" {
__attribute__((weak))
int _write(int file, char *ptr, int len)
{
    34cc:	b510      	push	{r4, lr}
    34ce:	4614      	mov	r4, r2
	((class Print *)file)->write((uint8_t *)ptr, len);
    34d0:	6803      	ldr	r3, [r0, #0]
    34d2:	685b      	ldr	r3, [r3, #4]
    34d4:	4798      	blx	r3
	return len;
}
    34d6:	4620      	mov	r0, r4
    34d8:	bd10      	pop	{r4, pc}
    34da:	bf00      	nop

000034dc <Print::printf(char const*, ...)>:
}

int Print::printf(const char *format, ...)
{
    34dc:	b40e      	push	{r1, r2, r3}
    34de:	b500      	push	{lr}
    34e0:	b082      	sub	sp, #8
    34e2:	aa03      	add	r2, sp, #12
    34e4:	f852 1b04 	ldr.w	r1, [r2], #4
	va_list ap;
	va_start(ap, format);
    34e8:	9201      	str	r2, [sp, #4]
#ifdef __STRICT_ANSI__
	return 0;  // TODO: make this work with -std=c++0x
#else
	return vdprintf((int)this, format, ap);
    34ea:	f001 ffbd 	bl	5468 <vdprintf>
#endif
}
    34ee:	b002      	add	sp, #8
    34f0:	f85d eb04 	ldr.w	lr, [sp], #4
    34f4:	b003      	add	sp, #12
    34f6:	4770      	bx	lr

000034f8 <Print::printNumber(unsigned long, unsigned char, unsigned char)>:
}

#else

size_t Print::printNumber(unsigned long n, uint8_t base, uint8_t sign)
{
    34f8:	b5f0      	push	{r4, r5, r6, r7, lr}
    34fa:	b08b      	sub	sp, #44	; 0x2c
	uint8_t digit, i;

	// TODO: make these checks as inline, since base is
	// almost always a constant.  base = 0 (BYTE) should
	// inline as a call directly to write()
	if (base == 0) {
    34fc:	b922      	cbnz	r2, 3508 <Print::printNumber(unsigned long, unsigned char, unsigned char)+0x10>
		return write((uint8_t)n);
    34fe:	6803      	ldr	r3, [r0, #0]
    3500:	681b      	ldr	r3, [r3, #0]
    3502:	b2c9      	uxtb	r1, r1
    3504:	4798      	blx	r3
    3506:	e031      	b.n	356c <Print::printNumber(unsigned long, unsigned char, unsigned char)+0x74>
    3508:	4616      	mov	r6, r2
	} else if (base == 1) {
		base = 10;
    350a:	2a01      	cmp	r2, #1
    350c:	bf14      	ite	ne
    350e:	4616      	movne	r6, r2
    3510:	260a      	moveq	r6, #10
	}


	if (n == 0) {
    3512:	b921      	cbnz	r1, 351e <Print::printNumber(unsigned long, unsigned char, unsigned char)+0x26>
		buf[sizeof(buf) - 1] = '0';
    3514:	2230      	movs	r2, #48	; 0x30
    3516:	f88d 2025 	strb.w	r2, [sp, #37]	; 0x25
		i = sizeof(buf) - 1;
    351a:	2421      	movs	r4, #33	; 0x21
    351c:	e017      	b.n	354e <Print::printNumber(unsigned long, unsigned char, unsigned char)+0x56>
    351e:	2421      	movs	r4, #33	; 0x21
	} else {
		i = sizeof(buf) - 1;
		while (1) {
			digit = n % base;
    3520:	4637      	mov	r7, r6
    3522:	fbb1 f2f6 	udiv	r2, r1, r6
    3526:	fb06 1212 	mls	r2, r6, r2, r1
    352a:	b2d2      	uxtb	r2, r2
			buf[i] = ((digit < 10) ? '0' + digit : 'A' + digit - 10);
    352c:	4625      	mov	r5, r4
    352e:	2a09      	cmp	r2, #9
    3530:	bf94      	ite	ls
    3532:	3230      	addls	r2, #48	; 0x30
    3534:	3237      	addhi	r2, #55	; 0x37
    3536:	b2d2      	uxtb	r2, r2
    3538:	f10d 0e28 	add.w	lr, sp, #40	; 0x28
    353c:	4475      	add	r5, lr
    353e:	f805 2c24 	strb.w	r2, [r5, #-36]
			n /= base;
    3542:	fbb1 f1f7 	udiv	r1, r1, r7
			if (n == 0) break;
    3546:	b111      	cbz	r1, 354e <Print::printNumber(unsigned long, unsigned char, unsigned char)+0x56>
			i--;
    3548:	3c01      	subs	r4, #1
    354a:	b2e4      	uxtb	r4, r4
	if (n == 0) {
		buf[sizeof(buf) - 1] = '0';
		i = sizeof(buf) - 1;
	} else {
		i = sizeof(buf) - 1;
		while (1) {
    354c:	e7e9      	b.n	3522 <Print::printNumber(unsigned long, unsigned char, unsigned char)+0x2a>
			n /= base;
			if (n == 0) break;
			i--;
		}
	}
	if (sign) {
    354e:	b133      	cbz	r3, 355e <Print::printNumber(unsigned long, unsigned char, unsigned char)+0x66>
		i--;
    3550:	3c01      	subs	r4, #1
    3552:	b2e4      	uxtb	r4, r4
		buf[i] = '-';
    3554:	ab0a      	add	r3, sp, #40	; 0x28
    3556:	4423      	add	r3, r4
    3558:	222d      	movs	r2, #45	; 0x2d
    355a:	f803 2c24 	strb.w	r2, [r3, #-36]
	}
	return write(buf + i, sizeof(buf) - i);
    355e:	6803      	ldr	r3, [r0, #0]
    3560:	685b      	ldr	r3, [r3, #4]
    3562:	f1c4 0222 	rsb	r2, r4, #34	; 0x22
    3566:	a901      	add	r1, sp, #4
    3568:	4421      	add	r1, r4
    356a:	4798      	blx	r3
}
    356c:	b00b      	add	sp, #44	; 0x2c
    356e:	bdf0      	pop	{r4, r5, r6, r7, pc}

00003570 <Print::print(long)>:
	return count;
}


size_t Print::print(long n)
{
    3570:	b508      	push	{r3, lr}
	uint8_t sign=0;

	if (n < 0) {
    3572:	2900      	cmp	r1, #0
		sign = '-';
		n = -n;
    3574:	bfba      	itte	lt
    3576:	4249      	neglt	r1, r1
size_t Print::print(long n)
{
	uint8_t sign=0;

	if (n < 0) {
		sign = '-';
    3578:	232d      	movlt	r3, #45	; 0x2d
}


size_t Print::print(long n)
{
	uint8_t sign=0;
    357a:	2300      	movge	r3, #0

	if (n < 0) {
		sign = '-';
		n = -n;
	}
	return printNumber(n, 10, sign);
    357c:	220a      	movs	r2, #10
    357e:	f7ff ffbb 	bl	34f8 <Print::printNumber(unsigned long, unsigned char, unsigned char)>
}
    3582:	bd08      	pop	{r3, pc}

00003584 <main>:
 */

#include "WProgram.h"

extern "C" int main(void)
{
    3584:	b508      	push	{r3, lr}
	}


#else
	// Arduino's main() function just calls setup() and loop()....
	setup();
    3586:	f7fc ff7b 	bl	480 <setup>
	while (1) {
		loop();
    358a:	f7fd f80b 	bl	5a4 <loop>
		yield();
    358e:	f000 f82f 	bl	35f0 <yield>
    3592:	e7fa      	b.n	358a <main+0x6>

00003594 <operator new(unsigned int)>:
 */

#include "new.h"

void * operator new(size_t size)
{
    3594:	b508      	push	{r3, lr}
  return malloc(size);
    3596:	f001 f921 	bl	47dc <malloc>
}
    359a:	bd08      	pop	{r3, pc}

0000359c <operator delete(void*, unsigned int)>:
{
  free(ptr);
}

void operator delete(void * ptr, size_t size)
{
    359c:	b508      	push	{r3, lr}
  free(ptr);
    359e:	f001 f925 	bl	47ec <free>
    35a2:	bd08      	pop	{r3, pc}

000035a4 <usb_serial_class::clear()>:
        void end() { /* TODO: flush output and shut down USB port */ };
        virtual int available() { return usb_serial_available(); }
        virtual int read() { return usb_serial_getchar(); }
        virtual int peek() { return usb_serial_peekchar(); }
        virtual void flush() { usb_serial_flush_output(); }  // TODO: actually wait for data to leave USB...
        virtual void clear(void) { usb_serial_flush_input(); }
    35a4:	b508      	push	{r3, lr}
    35a6:	f7ff fde5 	bl	3174 <usb_serial_flush_input>
    35aa:	bd08      	pop	{r3, pc}

000035ac <usb_serial_class::peek()>:
		//}
	}
        void end() { /* TODO: flush output and shut down USB port */ };
        virtual int available() { return usb_serial_available(); }
        virtual int read() { return usb_serial_getchar(); }
        virtual int peek() { return usb_serial_peekchar(); }
    35ac:	b508      	push	{r3, lr}
    35ae:	f7ff fdb3 	bl	3118 <usb_serial_peekchar>
    35b2:	bd08      	pop	{r3, pc}

000035b4 <usb_serial_class::read()>:
			//if ((uint32_t)(systick_millis_count - millis_begin) > 2500) break;
		//}
	}
        void end() { /* TODO: flush output and shut down USB port */ };
        virtual int available() { return usb_serial_available(); }
        virtual int read() { return usb_serial_getchar(); }
    35b4:	b508      	push	{r3, lr}
    35b6:	f7ff fd83 	bl	30c0 <usb_serial_getchar>
    35ba:	bd08      	pop	{r3, pc}

000035bc <usb_serial_class::available()>:
			// sketch still gets to run normally after this wait time.
			//if ((uint32_t)(systick_millis_count - millis_begin) > 2500) break;
		//}
	}
        void end() { /* TODO: flush output and shut down USB port */ };
        virtual int available() { return usb_serial_available(); }
    35bc:	b508      	push	{r3, lr}
    35be:	f7ff fdcb 	bl	3158 <usb_serial_available>
    35c2:	bd08      	pop	{r3, pc}

000035c4 <usb_serial_class::flush()>:
        virtual int read() { return usb_serial_getchar(); }
        virtual int peek() { return usb_serial_peekchar(); }
        virtual void flush() { usb_serial_flush_output(); }  // TODO: actually wait for data to leave USB...
    35c4:	b508      	push	{r3, lr}
    35c6:	f7ff fea3 	bl	3310 <usb_serial_flush_output>
    35ca:	bd08      	pop	{r3, pc}

000035cc <usb_serial_class::availableForWrite()>:
        virtual size_t write(const uint8_t *buffer, size_t size) { return usb_serial_write(buffer, size); }
	size_t write(unsigned long n) { return write((uint8_t)n); }
	size_t write(long n) { return write((uint8_t)n); }
	size_t write(unsigned int n) { return write((uint8_t)n); }
	size_t write(int n) { return write((uint8_t)n); }
	virtual int availableForWrite() { return usb_serial_write_buffer_free(); }
    35cc:	b508      	push	{r3, lr}
    35ce:	f7ff fe75 	bl	32bc <usb_serial_write_buffer_free>
    35d2:	bd08      	pop	{r3, pc}

000035d4 <usb_serial_class::write(unsigned char const*, unsigned int)>:
        virtual int read() { return usb_serial_getchar(); }
        virtual int peek() { return usb_serial_peekchar(); }
        virtual void flush() { usb_serial_flush_output(); }  // TODO: actually wait for data to leave USB...
        virtual void clear(void) { usb_serial_flush_input(); }
        virtual size_t write(uint8_t c) { return usb_serial_putchar(c); }
        virtual size_t write(const uint8_t *buffer, size_t size) { return usb_serial_write(buffer, size); }
    35d4:	b508      	push	{r3, lr}
    35d6:	4608      	mov	r0, r1
    35d8:	4611      	mov	r1, r2
    35da:	f7ff fde7 	bl	31ac <usb_serial_write>
    35de:	bd08      	pop	{r3, pc}

000035e0 <usb_serial_class::write(unsigned char)>:
        virtual int available() { return usb_serial_available(); }
        virtual int read() { return usb_serial_getchar(); }
        virtual int peek() { return usb_serial_peekchar(); }
        virtual void flush() { usb_serial_flush_output(); }  // TODO: actually wait for data to leave USB...
        virtual void clear(void) { usb_serial_flush_input(); }
        virtual size_t write(uint8_t c) { return usb_serial_putchar(c); }
    35e0:	b508      	push	{r3, lr}
    35e2:	4608      	mov	r0, r1
    35e4:	f7ff fe5e 	bl	32a4 <usb_serial_putchar>
    35e8:	bd08      	pop	{r3, pc}
    35ea:	bf00      	nop

000035ec <serialEvent()>:
#endif

#endif // F_CPU

void serialEvent() __attribute__((weak));
void serialEvent() {}
    35ec:	4770      	bx	lr
    35ee:	bf00      	nop

000035f0 <yield>:
void yield(void) __attribute__ ((weak));
void yield(void)
{
	static uint8_t running=0;

	if (running) return; // TODO: does this need to be atomic?
    35f0:	4b23      	ldr	r3, [pc, #140]	; (3680 <yield+0x90>)
    35f2:	781b      	ldrb	r3, [r3, #0]
    35f4:	2b00      	cmp	r3, #0
    35f6:	d142      	bne.n	367e <yield+0x8e>
#include "usb_seremu.h"
#include "EventResponder.h"

void yield(void) __attribute__ ((weak));
void yield(void)
{
    35f8:	b510      	push	{r4, lr}
	static uint8_t running=0;

	if (running) return; // TODO: does this need to be atomic?
	running = 1;
    35fa:	2201      	movs	r2, #1
    35fc:	4b20      	ldr	r3, [pc, #128]	; (3680 <yield+0x90>)
    35fe:	701a      	strb	r2, [r3, #0]
			// sketch still gets to run normally after this wait time.
			//if ((uint32_t)(systick_millis_count - millis_begin) > 2500) break;
		//}
	}
        void end() { /* TODO: flush output and shut down USB port */ };
        virtual int available() { return usb_serial_available(); }
    3600:	f7ff fdaa 	bl	3158 <usb_serial_available>
	if (Serial.available()) serialEvent();
    3604:	b108      	cbz	r0, 360a <yield+0x1a>
    3606:	f7ff fff1 	bl	35ec <serialEvent()>
	virtual void transmitterEnable(uint8_t pin) { serial_set_transmit_pin(pin); }
	virtual void setRX(uint8_t pin) { serial_set_rx(pin); }
	virtual void setTX(uint8_t pin, bool opendrain=false) { serial_set_tx(pin, opendrain); }
	virtual bool attachRts(uint8_t pin) { return serial_set_rts(pin); }
	virtual bool attachCts(uint8_t pin) { return serial_set_cts(pin); }
	virtual int available(void)     { return serial_available(); }
    360a:	f000 f98f 	bl	392c <serial_available>
	if (Serial1.available()) serialEvent1();
    360e:	b108      	cbz	r0, 3614 <yield+0x24>
    3610:	f000 fc3c 	bl	3e8c <serialEvent1()>
	virtual void transmitterEnable(uint8_t pin) { serial2_set_transmit_pin(pin); }
	virtual void setRX(uint8_t pin) { serial2_set_rx(pin); }
	virtual void setTX(uint8_t pin, bool opendrain=false) { serial2_set_tx(pin, opendrain); }
	virtual bool attachRts(uint8_t pin) { return serial2_set_rts(pin); }
	virtual bool attachCts(uint8_t pin) { return serial2_set_cts(pin); }
	virtual int available(void)     { return serial2_available(); }
    3614:	f000 fa2c 	bl	3a70 <serial2_available>
	if (Serial2.available()) serialEvent2();
    3618:	b108      	cbz	r0, 361e <yield+0x2e>
    361a:	f000 fc39 	bl	3e90 <serialEvent2()>
	virtual void transmitterEnable(uint8_t pin) { serial3_set_transmit_pin(pin); }
	virtual void setRX(uint8_t pin) { serial3_set_rx(pin); }
	virtual void setTX(uint8_t pin, bool opendrain=false) { serial3_set_tx(pin, opendrain); }
	virtual bool attachRts(uint8_t pin) { return serial3_set_rts(pin); }
	virtual bool attachCts(uint8_t pin) { return serial3_set_cts(pin); }
	virtual int available(void)     { return serial3_available(); }
    361e:	f000 fac9 	bl	3bb4 <serial3_available>
	if (Serial3.available()) serialEvent3();
    3622:	b108      	cbz	r0, 3628 <yield+0x38>
    3624:	f000 fc36 	bl	3e94 <serialEvent3()>
	if (Serial5.available()) serialEvent5();
#endif
#if defined(HAS_KINETISK_UART5) || defined (HAS_KINETISK_LPUART0)
	if (Serial6.available()) serialEvent6();
#endif
	running = 0;
    3628:	2200      	movs	r2, #0
    362a:	4b15      	ldr	r3, [pc, #84]	; (3680 <yield+0x90>)
    362c:	701a      	strb	r2, [r3, #0]

	static void runFromYield() {
		// First, check if yield was called from an interrupt
		// never call normal handler functions from any interrupt context
		uint32_t ipsr;
		__asm__ volatile("mrs %0, ipsr\n" : "=r" (ipsr)::);
    362e:	f3ef 8305 	mrs	r3, IPSR
		if (ipsr != 0) return;
    3632:	bb1b      	cbnz	r3, 367c <yield+0x8c>
	static EventResponder *lastInterrupt;
	static bool runningFromYield;
private:
	static bool disableInterrupts() {
		uint32_t primask;
		__asm__ volatile("mrs %0, primask\n" : "=r" (primask)::);
    3634:	f3ef 8310 	mrs	r3, PRIMASK
		__disable_irq();
    3638:	b672      	cpsid	i
		uint32_t ipsr;
		__asm__ volatile("mrs %0, ipsr\n" : "=r" (ipsr)::);
		if (ipsr != 0) return;
		// Next, check if any events have been triggered
		bool irq = disableInterrupts();
		EventResponder *first = firstYield;
    363a:	4a12      	ldr	r2, [pc, #72]	; (3684 <yield+0x94>)
    363c:	6810      	ldr	r0, [r2, #0]
		if (first == nullptr) {
    363e:	b910      	cbnz	r0, 3646 <yield+0x56>
		__asm__ volatile("mrs %0, primask\n" : "=r" (primask)::);
		__disable_irq();
		return (primask == 0) ? true : false;
	}
	static void enableInterrupts(bool doit) {
		if (doit) __enable_irq();
    3640:	b9e3      	cbnz	r3, 367c <yield+0x8c>
    3642:	b662      	cpsie	i
    3644:	bd10      	pop	{r4, pc}
			return;
		}
		// Finally, make sure we're not being recursively called,
		// which can happen if the user's function does anything
		// that calls yield.
		if (runningFromYield) {
    3646:	4a10      	ldr	r2, [pc, #64]	; (3688 <yield+0x98>)
    3648:	7812      	ldrb	r2, [r2, #0]
    364a:	b112      	cbz	r2, 3652 <yield+0x62>
		__asm__ volatile("mrs %0, primask\n" : "=r" (primask)::);
		__disable_irq();
		return (primask == 0) ? true : false;
	}
	static void enableInterrupts(bool doit) {
		if (doit) __enable_irq();
    364c:	b9b3      	cbnz	r3, 367c <yield+0x8c>
    364e:	b662      	cpsie	i
    3650:	bd10      	pop	{r4, pc}
		if (runningFromYield) {
			enableInterrupts(irq);
			return;
		}
		// Ok, update the runningFromYield flag and process event
		runningFromYield = true;
    3652:	2101      	movs	r1, #1
    3654:	4a0c      	ldr	r2, [pc, #48]	; (3688 <yield+0x98>)
    3656:	7011      	strb	r1, [r2, #0]
		firstYield = first->_next;
    3658:	6942      	ldr	r2, [r0, #20]
    365a:	490a      	ldr	r1, [pc, #40]	; (3684 <yield+0x94>)
    365c:	600a      	str	r2, [r1, #0]
		if (firstYield) {
    365e:	b112      	cbz	r2, 3666 <yield+0x76>
			firstYield->_prev = nullptr;
    3660:	2100      	movs	r1, #0
    3662:	6191      	str	r1, [r2, #24]
    3664:	e002      	b.n	366c <yield+0x7c>
		} else {
			lastYield = nullptr;
    3666:	2100      	movs	r1, #0
    3668:	4a08      	ldr	r2, [pc, #32]	; (368c <yield+0x9c>)
    366a:	6011      	str	r1, [r2, #0]
		__asm__ volatile("mrs %0, primask\n" : "=r" (primask)::);
		__disable_irq();
		return (primask == 0) ? true : false;
	}
	static void enableInterrupts(bool doit) {
		if (doit) __enable_irq();
    366c:	b903      	cbnz	r3, 3670 <yield+0x80>
    366e:	b662      	cpsie	i
			firstYield->_prev = nullptr;
		} else {
			lastYield = nullptr;
		}
		enableInterrupts(irq);
		first->_triggered = false;
    3670:	2400      	movs	r4, #0
    3672:	7744      	strb	r4, [r0, #29]
		(*(first->_function))(*first);
    3674:	6883      	ldr	r3, [r0, #8]
    3676:	4798      	blx	r3
		runningFromYield = false;
    3678:	4b03      	ldr	r3, [pc, #12]	; (3688 <yield+0x98>)
    367a:	701c      	strb	r4, [r3, #0]
    367c:	bd10      	pop	{r4, pc}
    367e:	4770      	bx	lr
    3680:	1fff9a08 	.word	0x1fff9a08
    3684:	1fff9ba8 	.word	0x1fff9ba8
    3688:	1fff9bac 	.word	0x1fff9bac
    368c:	1fff9ba4 	.word	0x1fff9ba4

00003690 <memcpy>:
	@ r1: src
	@ r2: len
#ifdef __ARM_FEATURE_UNALIGNED
	/* In case of UNALIGNED access supported, ip is not used in
	   function body.  */
	mov	ip, r0
    3690:	4684      	mov	ip, r0
#else
	push	{r0}
#endif
	orr	r3, r1, r0
    3692:	ea41 0300 	orr.w	r3, r1, r0
	ands	r3, r3, #3
    3696:	f013 0303 	ands.w	r3, r3, #3
	bne	.Lmisaligned_copy
    369a:	d16d      	bne.n	3778 <memcpy+0xe8>

.Lbig_block:
	subs	r2, __OPT_BIG_BLOCK_SIZE
    369c:	3a40      	subs	r2, #64	; 0x40
	blo	.Lmid_block
    369e:	d341      	bcc.n	3724 <memcpy+0x94>
.Lbig_block_loop:
	BEGIN_UNROLL_BIG_BLOCK
#ifdef __ARM_ARCH_7EM__
	ldr	r3, [r1], #4
	str	r3, [r0], #4
	END_UNROLL
    36a0:	f851 3b04 	ldr.w	r3, [r1], #4
    36a4:	f840 3b04 	str.w	r3, [r0], #4
    36a8:	f851 3b04 	ldr.w	r3, [r1], #4
    36ac:	f840 3b04 	str.w	r3, [r0], #4
    36b0:	f851 3b04 	ldr.w	r3, [r1], #4
    36b4:	f840 3b04 	str.w	r3, [r0], #4
    36b8:	f851 3b04 	ldr.w	r3, [r1], #4
    36bc:	f840 3b04 	str.w	r3, [r0], #4
    36c0:	f851 3b04 	ldr.w	r3, [r1], #4
    36c4:	f840 3b04 	str.w	r3, [r0], #4
    36c8:	f851 3b04 	ldr.w	r3, [r1], #4
    36cc:	f840 3b04 	str.w	r3, [r0], #4
    36d0:	f851 3b04 	ldr.w	r3, [r1], #4
    36d4:	f840 3b04 	str.w	r3, [r0], #4
    36d8:	f851 3b04 	ldr.w	r3, [r1], #4
    36dc:	f840 3b04 	str.w	r3, [r0], #4
    36e0:	f851 3b04 	ldr.w	r3, [r1], #4
    36e4:	f840 3b04 	str.w	r3, [r0], #4
    36e8:	f851 3b04 	ldr.w	r3, [r1], #4
    36ec:	f840 3b04 	str.w	r3, [r0], #4
    36f0:	f851 3b04 	ldr.w	r3, [r1], #4
    36f4:	f840 3b04 	str.w	r3, [r0], #4
    36f8:	f851 3b04 	ldr.w	r3, [r1], #4
    36fc:	f840 3b04 	str.w	r3, [r0], #4
    3700:	f851 3b04 	ldr.w	r3, [r1], #4
    3704:	f840 3b04 	str.w	r3, [r0], #4
    3708:	f851 3b04 	ldr.w	r3, [r1], #4
    370c:	f840 3b04 	str.w	r3, [r0], #4
    3710:	f851 3b04 	ldr.w	r3, [r1], #4
    3714:	f840 3b04 	str.w	r3, [r0], #4
    3718:	f851 3b04 	ldr.w	r3, [r1], #4
    371c:	f840 3b04 	str.w	r3, [r0], #4
	str	r3, [r0, \offset]
	END_UNROLL
	adds	r0, __OPT_BIG_BLOCK_SIZE
	adds	r1, __OPT_BIG_BLOCK_SIZE
#endif
	subs	r2, __OPT_BIG_BLOCK_SIZE
    3720:	3a40      	subs	r2, #64	; 0x40
	bhs .Lbig_block_loop
    3722:	d2bd      	bcs.n	36a0 <memcpy+0x10>

.Lmid_block:
	adds	r2, __OPT_BIG_BLOCK_SIZE - __OPT_MID_BLOCK_SIZE
    3724:	3230      	adds	r2, #48	; 0x30
	blo	.Lcopy_word_by_word
    3726:	d311      	bcc.n	374c <memcpy+0xbc>
.Lmid_block_loop:
	BEGIN_UNROLL_MID_BLOCK
#ifdef __ARM_ARCH_7EM__
	ldr	r3, [r1], #4
	str	r3, [r0], #4
	END_UNROLL
    3728:	f851 3b04 	ldr.w	r3, [r1], #4
    372c:	f840 3b04 	str.w	r3, [r0], #4
    3730:	f851 3b04 	ldr.w	r3, [r1], #4
    3734:	f840 3b04 	str.w	r3, [r0], #4
    3738:	f851 3b04 	ldr.w	r3, [r1], #4
    373c:	f840 3b04 	str.w	r3, [r0], #4
    3740:	f851 3b04 	ldr.w	r3, [r1], #4
    3744:	f840 3b04 	str.w	r3, [r0], #4
	str	r3, [r0, \offset]
	END_UNROLL
	adds    r0, __OPT_MID_BLOCK_SIZE
	adds    r1, __OPT_MID_BLOCK_SIZE
#endif
	subs	r2, __OPT_MID_BLOCK_SIZE
    3748:	3a10      	subs	r2, #16
	bhs	.Lmid_block_loop
    374a:	d2ed      	bcs.n	3728 <memcpy+0x98>

.Lcopy_word_by_word:
	adds	r2, __OPT_MID_BLOCK_SIZE - 4
    374c:	320c      	adds	r2, #12
	blo	.Lcopy_less_than_4
    374e:	d305      	bcc.n	375c <memcpy+0xcc>

	/* Kernel loop for small block copy */
	.align 2
.Lcopy_word_by_word_loop:
	ldr	r3, [r1], #4
    3750:	f851 3b04 	ldr.w	r3, [r1], #4
	str	r3, [r0], #4
    3754:	f840 3b04 	str.w	r3, [r0], #4
	subs	r2, #4
    3758:	3a04      	subs	r2, #4
	bhs	.Lcopy_word_by_word_loop
    375a:	d2f9      	bcs.n	3750 <memcpy+0xc0>

.Lcopy_less_than_4:
	adds	r2, #4
    375c:	3204      	adds	r2, #4
	beq	.Ldone
    375e:	d008      	beq.n	3772 <memcpy+0xe2>

	lsls	r2, r2, #31
    3760:	07d2      	lsls	r2, r2, #31
	itt ne
    3762:	bf1c      	itt	ne
	ldrbne  r3, [r1], #1
    3764:	f811 3b01 	ldrbne.w	r3, [r1], #1
	strbne  r3, [r0], #1
    3768:	f800 3b01 	strbne.w	r3, [r0], #1

	bcc	.Ldone
    376c:	d301      	bcc.n	3772 <memcpy+0xe2>
#ifdef __ARM_FEATURE_UNALIGNED
	ldrh	r3, [r1]
    376e:	880b      	ldrh	r3, [r1, #0]
	strh	r3, [r0]
    3770:	8003      	strh	r3, [r0, #0]
	strb	r3, [r0, #1]
#endif /* __ARM_FEATURE_UNALIGNED */

.Ldone:
#ifdef __ARM_FEATURE_UNALIGNED
	mov	r0, ip
    3772:	4660      	mov	r0, ip
#else
	pop	{r0}
#endif
	bx	lr
    3774:	4770      	bx	lr
    3776:	bf00      	nop
#define Ldst_aligned Lbig_block

	/* Copy word by word using LDR when alignment can be done in hardware,
	i.e., SCTLR.A is set, supporting unaligned access in LDR and STR.  */

	cmp	r2, #8
    3778:	2a08      	cmp	r2, #8
	blo	.Lbyte_copy
    377a:	d313      	bcc.n	37a4 <memcpy+0x114>

	/* if src is aligned, just go to the big block loop.  */
	lsls	r3, r1, #30
    377c:	078b      	lsls	r3, r1, #30
	beq	.Ldst_aligned
    377e:	d08d      	beq.n	369c <memcpy+0xc>
	handling of aligned src and misaligned dst need more overhead than
	otherwise.  By doing this the worst case is when initial src is aligned,
	additional up to 4 byte additional copy will executed, which is
	acceptable.  */

	ands	r3, r0, #3
    3780:	f010 0303 	ands.w	r3, r0, #3
	beq	.Ldst_aligned
    3784:	d08a      	beq.n	369c <memcpy+0xc>

	rsb	r3, #4
    3786:	f1c3 0304 	rsb	r3, r3, #4
	subs	r2, r3
    378a:	1ad2      	subs	r2, r2, r3

	lsls    r3, r3, #31
    378c:	07db      	lsls	r3, r3, #31
	itt ne
    378e:	bf1c      	itt	ne
	ldrbne  r3, [r1], #1
    3790:	f811 3b01 	ldrbne.w	r3, [r1], #1
	strbne  r3, [r0], #1
    3794:	f800 3b01 	strbne.w	r3, [r0], #1

	bcc .Ldst_aligned
    3798:	d380      	bcc.n	369c <memcpy+0xc>

#ifdef __ARM_FEATURE_UNALIGNED
	ldrh    r3, [r1], #2
    379a:	f831 3b02 	ldrh.w	r3, [r1], #2
	strh    r3, [r0], #2
    379e:	f820 3b02 	strh.w	r3, [r0], #2
	b	.Ldst_aligned
    37a2:	e77b      	b.n	369c <memcpy+0xc>
	pop	{r4, r5}

#endif /* __ARM_FEATURE_UNALIGNED */

.Lbyte_copy:
	subs	r2, #4
    37a4:	3a04      	subs	r2, #4
	blo	.Lcopy_less_than_4
    37a6:	d3d9      	bcc.n	375c <memcpy+0xcc>

.Lbyte_copy_loop:
	subs    r2, #1
    37a8:	3a01      	subs	r2, #1
	ldrb    r3, [r1], #1
    37aa:	f811 3b01 	ldrb.w	r3, [r1], #1
	strb    r3, [r0], #1
    37ae:	f800 3b01 	strb.w	r3, [r0], #1
	bhs	.Lbyte_copy_loop
    37b2:	d2f9      	bcs.n	37a8 <memcpy+0x118>

	ldrb	r3, [r1]
    37b4:	780b      	ldrb	r3, [r1, #0]
	strb	r3, [r0]
    37b6:	7003      	strb	r3, [r0, #0]
	ldrb	r3, [r1, #1]
    37b8:	784b      	ldrb	r3, [r1, #1]
	strb	r3, [r0, #1]
    37ba:	7043      	strb	r3, [r0, #1]
	ldrb	r3, [r1, #2]
    37bc:	788b      	ldrb	r3, [r1, #2]
	strb	r3, [r0, #2]
    37be:	7083      	strb	r3, [r0, #2]

#ifdef __ARM_FEATURE_UNALIGNED
	mov	r0, ip
    37c0:	4660      	mov	r0, ip
#else
	pop	{r0}
#endif
	bx	lr
    37c2:	4770      	bx	lr

000037c4 <analog_init>:
void analog_init(void)
{
	uint32_t num;

	#if defined(__MK20DX128__) || defined(__MK20DX256__) || defined(__MK64FX512__) || defined(__MK66FX1M0__)
	VREF_TRM = 0x60;
    37c4:	2260      	movs	r2, #96	; 0x60
    37c6:	4b3a      	ldr	r3, [pc, #232]	; (38b0 <analog_init+0xec>)
    37c8:	701a      	strb	r2, [r3, #0]
	VREF_SC = 0xE1;		// enable 1.2 volt ref
    37ca:	22e1      	movs	r2, #225	; 0xe1
    37cc:	3301      	adds	r3, #1
    37ce:	701a      	strb	r2, [r3, #0]
	#endif

	if (analog_config_bits == 8) {
    37d0:	4b38      	ldr	r3, [pc, #224]	; (38b4 <analog_init+0xf0>)
    37d2:	781b      	ldrb	r3, [r3, #0]
    37d4:	2b08      	cmp	r3, #8
    37d6:	d110      	bne.n	37fa <analog_init+0x36>
		ADC0_CFG1 = ADC_CFG1_8BIT + ADC_CFG1_MODE(0);
    37d8:	2201      	movs	r2, #1
    37da:	f103 4380 	add.w	r3, r3, #1073741824	; 0x40000000
    37de:	f503 336c 	add.w	r3, r3, #241664	; 0x3b000
    37e2:	601a      	str	r2, [r3, #0]
		ADC0_CFG2 = ADC_CFG2_MUXSEL + ADC_CFG2_ADLSTS(3);
    37e4:	2313      	movs	r3, #19
    37e6:	4934      	ldr	r1, [pc, #208]	; (38b8 <analog_init+0xf4>)
    37e8:	600b      	str	r3, [r1, #0]
		#ifdef HAS_KINETIS_ADC1
		ADC1_CFG1 = ADC_CFG1_8BIT + ADC_CFG1_MODE(0);
    37ea:	f501 21ff 	add.w	r1, r1, #522240	; 0x7f800
    37ee:	f201 71fc 	addw	r1, r1, #2044	; 0x7fc
    37f2:	600a      	str	r2, [r1, #0]
		ADC1_CFG2 = ADC_CFG2_MUXSEL + ADC_CFG2_ADLSTS(3);
    37f4:	4a31      	ldr	r2, [pc, #196]	; (38bc <analog_init+0xf8>)
    37f6:	6013      	str	r3, [r2, #0]
    37f8:	e01f      	b.n	383a <analog_init+0x76>
		#endif
	} else if (analog_config_bits == 10) {
    37fa:	2b0a      	cmp	r3, #10
    37fc:	d10d      	bne.n	381a <analog_init+0x56>
		ADC0_CFG1 = ADC_CFG1_10BIT + ADC_CFG1_MODE(2) + ADC_CFG1_ADLSMP;
    37fe:	2239      	movs	r2, #57	; 0x39
    3800:	4b2f      	ldr	r3, [pc, #188]	; (38c0 <analog_init+0xfc>)
    3802:	601a      	str	r2, [r3, #0]
		ADC0_CFG2 = ADC_CFG2_MUXSEL + ADC_CFG2_ADLSTS(3);
    3804:	2313      	movs	r3, #19
    3806:	492c      	ldr	r1, [pc, #176]	; (38b8 <analog_init+0xf4>)
    3808:	600b      	str	r3, [r1, #0]
		#ifdef HAS_KINETIS_ADC1
		ADC1_CFG1 = ADC_CFG1_10BIT + ADC_CFG1_MODE(2) + ADC_CFG1_ADLSMP;
    380a:	f501 21ff 	add.w	r1, r1, #522240	; 0x7f800
    380e:	f201 71fc 	addw	r1, r1, #2044	; 0x7fc
    3812:	600a      	str	r2, [r1, #0]
		ADC1_CFG2 = ADC_CFG2_MUXSEL + ADC_CFG2_ADLSTS(3);
    3814:	4a29      	ldr	r2, [pc, #164]	; (38bc <analog_init+0xf8>)
    3816:	6013      	str	r3, [r2, #0]
    3818:	e00f      	b.n	383a <analog_init+0x76>
		#endif
	} else if (analog_config_bits == 12) {
    381a:	2b0c      	cmp	r3, #12
		ADC0_CFG1 = ADC_CFG1_12BIT + ADC_CFG1_MODE(1) + ADC_CFG1_ADLSMP;
    381c:	bf0c      	ite	eq
    381e:	2235      	moveq	r2, #53	; 0x35
		#ifdef HAS_KINETIS_ADC1
		ADC1_CFG1 = ADC_CFG1_12BIT + ADC_CFG1_MODE(1) + ADC_CFG1_ADLSMP;
		ADC1_CFG2 = ADC_CFG2_MUXSEL + ADC_CFG2_ADLSTS(2);
		#endif
	} else {
		ADC0_CFG1 = ADC_CFG1_16BIT + ADC_CFG1_MODE(3) + ADC_CFG1_ADLSMP;
    3820:	223d      	movne	r2, #61	; 0x3d
    3822:	4b27      	ldr	r3, [pc, #156]	; (38c0 <analog_init+0xfc>)
    3824:	601a      	str	r2, [r3, #0]
		ADC0_CFG2 = ADC_CFG2_MUXSEL + ADC_CFG2_ADLSTS(2);
    3826:	2312      	movs	r3, #18
    3828:	4923      	ldr	r1, [pc, #140]	; (38b8 <analog_init+0xf4>)
    382a:	600b      	str	r3, [r1, #0]
		#ifdef HAS_KINETIS_ADC1
		ADC1_CFG1 = ADC_CFG1_16BIT + ADC_CFG1_MODE(3) + ADC_CFG1_ADLSMP;
    382c:	f501 21ff 	add.w	r1, r1, #522240	; 0x7f800
    3830:	f201 71fc 	addw	r1, r1, #2044	; 0x7fc
    3834:	600a      	str	r2, [r1, #0]
		ADC1_CFG2 = ADC_CFG2_MUXSEL + ADC_CFG2_ADLSTS(2);
    3836:	4a21      	ldr	r2, [pc, #132]	; (38bc <analog_init+0xf8>)
    3838:	6013      	str	r3, [r2, #0]
		ADC0_SC2 = ADC_SC2_REFSEL(1); // 1.2V ref
	} else {
		ADC0_SC2 = ADC_SC2_REFSEL(0); // vcc/ext ref
	}
	#elif defined(__MK20DX256__) || defined(__MK64FX512__) || defined(__MK66FX1M0__)
	if (analog_reference_internal) {
    383a:	4b22      	ldr	r3, [pc, #136]	; (38c4 <analog_init+0x100>)
    383c:	781b      	ldrb	r3, [r3, #0]
    383e:	b133      	cbz	r3, 384e <analog_init+0x8a>
		ADC0_SC2 = ADC_SC2_REFSEL(1); // 1.2V ref
    3840:	2301      	movs	r3, #1
    3842:	4a21      	ldr	r2, [pc, #132]	; (38c8 <analog_init+0x104>)
    3844:	6013      	str	r3, [r2, #0]
		ADC1_SC2 = ADC_SC2_REFSEL(1); // 1.2V ref
    3846:	f502 2200 	add.w	r2, r2, #524288	; 0x80000
    384a:	6013      	str	r3, [r2, #0]
    384c:	e005      	b.n	385a <analog_init+0x96>
	} else {
		ADC0_SC2 = ADC_SC2_REFSEL(0); // vcc/ext ref
    384e:	2300      	movs	r3, #0
    3850:	4a1d      	ldr	r2, [pc, #116]	; (38c8 <analog_init+0x104>)
    3852:	6013      	str	r3, [r2, #0]
		ADC1_SC2 = ADC_SC2_REFSEL(0); // vcc/ext ref
    3854:	f502 2200 	add.w	r2, r2, #524288	; 0x80000
    3858:	6013      	str	r3, [r2, #0]
	} else {
		ADC0_SC2 = ADC_SC2_REFSEL(1); // vcc
	}
	#endif

	num = analog_num_average;
    385a:	4b1c      	ldr	r3, [pc, #112]	; (38cc <analog_init+0x108>)
    385c:	781b      	ldrb	r3, [r3, #0]
	if (num <= 1) {
    385e:	2b01      	cmp	r3, #1
    3860:	d806      	bhi.n	3870 <analog_init+0xac>
		ADC0_SC3 = ADC_SC3_CAL;  // begin cal
    3862:	2380      	movs	r3, #128	; 0x80
    3864:	4a1a      	ldr	r2, [pc, #104]	; (38d0 <analog_init+0x10c>)
    3866:	6013      	str	r3, [r2, #0]
		#ifdef HAS_KINETIS_ADC1
		ADC1_SC3 = ADC_SC3_CAL;  // begin cal
    3868:	f502 2200 	add.w	r2, r2, #524288	; 0x80000
    386c:	6013      	str	r3, [r2, #0]
    386e:	e01a      	b.n	38a6 <analog_init+0xe2>
		#endif
	} else if (num <= 4) {
    3870:	2b04      	cmp	r3, #4
    3872:	d806      	bhi.n	3882 <analog_init+0xbe>
		ADC0_SC3 = ADC_SC3_CAL + ADC_SC3_AVGE + ADC_SC3_AVGS(0);
    3874:	2384      	movs	r3, #132	; 0x84
    3876:	4a16      	ldr	r2, [pc, #88]	; (38d0 <analog_init+0x10c>)
    3878:	6013      	str	r3, [r2, #0]
		#ifdef HAS_KINETIS_ADC1
		ADC1_SC3 = ADC_SC3_CAL + ADC_SC3_AVGE + ADC_SC3_AVGS(0);
    387a:	f502 2200 	add.w	r2, r2, #524288	; 0x80000
    387e:	6013      	str	r3, [r2, #0]
    3880:	e011      	b.n	38a6 <analog_init+0xe2>
		#endif
	} else if (num <= 8) {
    3882:	2b08      	cmp	r3, #8
    3884:	d806      	bhi.n	3894 <analog_init+0xd0>
		ADC0_SC3 = ADC_SC3_CAL + ADC_SC3_AVGE + ADC_SC3_AVGS(1);
    3886:	2385      	movs	r3, #133	; 0x85
    3888:	4a11      	ldr	r2, [pc, #68]	; (38d0 <analog_init+0x10c>)
    388a:	6013      	str	r3, [r2, #0]
		#ifdef HAS_KINETIS_ADC1
		ADC1_SC3 = ADC_SC3_CAL + ADC_SC3_AVGE + ADC_SC3_AVGS(1);
    388c:	f502 2200 	add.w	r2, r2, #524288	; 0x80000
    3890:	6013      	str	r3, [r2, #0]
    3892:	e008      	b.n	38a6 <analog_init+0xe2>
		#endif
	} else if (num <= 16) {
    3894:	2b10      	cmp	r3, #16
		ADC0_SC3 = ADC_SC3_CAL + ADC_SC3_AVGE + ADC_SC3_AVGS(2);
    3896:	bf94      	ite	ls
    3898:	2386      	movls	r3, #134	; 0x86
		#ifdef HAS_KINETIS_ADC1
		ADC1_SC3 = ADC_SC3_CAL + ADC_SC3_AVGE + ADC_SC3_AVGS(2);
		#endif
	} else {
		ADC0_SC3 = ADC_SC3_CAL + ADC_SC3_AVGE + ADC_SC3_AVGS(3);
    389a:	2387      	movhi	r3, #135	; 0x87
    389c:	4a0c      	ldr	r2, [pc, #48]	; (38d0 <analog_init+0x10c>)
    389e:	6013      	str	r3, [r2, #0]
		#ifdef HAS_KINETIS_ADC1
		ADC1_SC3 = ADC_SC3_CAL + ADC_SC3_AVGE + ADC_SC3_AVGS(3);
    38a0:	f502 2200 	add.w	r2, r2, #524288	; 0x80000
    38a4:	6013      	str	r3, [r2, #0]
		#endif
	}
	calibrating = 1;
    38a6:	2201      	movs	r2, #1
    38a8:	4b0a      	ldr	r3, [pc, #40]	; (38d4 <analog_init+0x110>)
    38aa:	701a      	strb	r2, [r3, #0]
    38ac:	4770      	bx	lr
    38ae:	bf00      	nop
    38b0:	40074000 	.word	0x40074000
    38b4:	1fff8dd8 	.word	0x1fff8dd8
    38b8:	4003b00c 	.word	0x4003b00c
    38bc:	400bb00c 	.word	0x400bb00c
    38c0:	4003b008 	.word	0x4003b008
    38c4:	1fff9a0a 	.word	0x1fff9a0a
    38c8:	4003b020 	.word	0x4003b020
    38cc:	1fff8dd9 	.word	0x1fff8dd9
    38d0:	4003b024 	.word	0x4003b024
    38d4:	1fff9a09 	.word	0x1fff9a09

000038d8 <ultoa>:
#include <stdlib.h>
#include <math.h>


char * ultoa(unsigned long val, char *buf, int radix)
{
    38d8:	b4f0      	push	{r4, r5, r6, r7}
    38da:	1e4d      	subs	r5, r1, #1
    38dc:	462e      	mov	r6, r5
	unsigned digit;
	int i=0, j;
    38de:	2400      	movs	r4, #0
	char t;

	while (1) {
		digit = val % radix;
    38e0:	fbb0 f3f2 	udiv	r3, r0, r2
    38e4:	fb02 0313 	mls	r3, r2, r3, r0
		buf[i] = ((digit < 10) ? '0' + digit : 'A' + digit - 10);
    38e8:	4627      	mov	r7, r4
    38ea:	2b09      	cmp	r3, #9
    38ec:	bf94      	ite	ls
    38ee:	3330      	addls	r3, #48	; 0x30
    38f0:	3337      	addhi	r3, #55	; 0x37
    38f2:	b2db      	uxtb	r3, r3
    38f4:	f806 3f01 	strb.w	r3, [r6, #1]!
		val /= radix;
    38f8:	fbb0 f0f2 	udiv	r0, r0, r2
		if (val == 0) break;
    38fc:	b108      	cbz	r0, 3902 <ultoa+0x2a>
		i++;
    38fe:	3401      	adds	r4, #1
	}
    3900:	e7ee      	b.n	38e0 <ultoa+0x8>
	buf[i + 1] = 0;
    3902:	190b      	adds	r3, r1, r4
    3904:	2200      	movs	r2, #0
    3906:	705a      	strb	r2, [r3, #1]
	for (j=0; j < i; j++, i--) {
    3908:	4294      	cmp	r4, r2
    390a:	dd0b      	ble.n	3924 <ultoa+0x4c>
    390c:	461a      	mov	r2, r3
    390e:	2300      	movs	r3, #0
		t = buf[j];
    3910:	f815 0f01 	ldrb.w	r0, [r5, #1]!
		buf[j] = buf[i];
    3914:	7814      	ldrb	r4, [r2, #0]
    3916:	702c      	strb	r4, [r5, #0]
		buf[i] = t;
    3918:	f802 0901 	strb.w	r0, [r2], #-1
		val /= radix;
		if (val == 0) break;
		i++;
	}
	buf[i + 1] = 0;
	for (j=0; j < i; j++, i--) {
    391c:	3301      	adds	r3, #1
    391e:	1af8      	subs	r0, r7, r3
    3920:	4283      	cmp	r3, r0
    3922:	dbf5      	blt.n	3910 <ultoa+0x38>
		t = buf[j];
		buf[j] = buf[i];
		buf[i] = t;
	}
	return buf;
}
    3924:	4608      	mov	r0, r1
    3926:	bcf0      	pop	{r4, r5, r6, r7}
    3928:	4770      	bx	lr
    392a:	bf00      	nop

0000392c <serial_available>:

int serial_available(void)
{
	uint32_t head, tail;

	head = rx_buffer_head;
    392c:	4b05      	ldr	r3, [pc, #20]	; (3944 <serial_available+0x18>)
    392e:	7818      	ldrb	r0, [r3, #0]
    3930:	b2c0      	uxtb	r0, r0
	tail = rx_buffer_tail;
    3932:	4b05      	ldr	r3, [pc, #20]	; (3948 <serial_available+0x1c>)
    3934:	781b      	ldrb	r3, [r3, #0]
    3936:	b2db      	uxtb	r3, r3
	if (head >= tail) return head - tail;
    3938:	4298      	cmp	r0, r3
	return SERIAL1_RX_BUFFER_SIZE + head - tail;
    393a:	bf38      	it	cc
    393c:	3040      	addcc	r0, #64	; 0x40
    393e:	1ac0      	subs	r0, r0, r3
}
    3940:	4770      	bx	lr
    3942:	bf00      	nop
    3944:	1fff9a94 	.word	0x1fff9a94
    3948:	1fff9a11 	.word	0x1fff9a11

0000394c <uart0_status_isr>:
//   Receive data above watermark   UART_S1_RDRF
//   LIN break detect		    UART_S2_LBKDIF
//   RxD pin active edge	    UART_S2_RXEDGIF

void uart0_status_isr(void)
{
    394c:	b470      	push	{r4, r5, r6}
	uint8_t c;
#ifdef HAS_KINETISK_UART0_FIFO
	uint32_t newhead;
	uint8_t avail;

	if (UART0_S1 & (UART_S1_RDRF | UART_S1_IDLE)) {
    394e:	4b3e      	ldr	r3, [pc, #248]	; (3a48 <uart0_status_isr+0xfc>)
    3950:	791b      	ldrb	r3, [r3, #4]
    3952:	f013 0f30 	tst.w	r3, #48	; 0x30
    3956:	d032      	beq.n	39be <uart0_status_isr+0x72>
		__disable_irq();
    3958:	b672      	cpsid	i
		avail = UART0_RCFIFO;
    395a:	4b3b      	ldr	r3, [pc, #236]	; (3a48 <uart0_status_isr+0xfc>)
    395c:	7d9b      	ldrb	r3, [r3, #22]
		if (avail == 0) {
    395e:	f003 02ff 	and.w	r2, r3, #255	; 0xff
    3962:	b92b      	cbnz	r3, 3970 <uart0_status_isr+0x24>
			// to read the data register.  But reading with no
			// data causes a FIFO underrun, which causes the
			// FIFO to return corrupted data.  If anyone from
			// Freescale reads this, what a poor design!  There
			// write should be a write-1-to-clear for IDLE.
			c = UART0_D;
    3964:	4b38      	ldr	r3, [pc, #224]	; (3a48 <uart0_status_isr+0xfc>)
    3966:	79da      	ldrb	r2, [r3, #7]
			// the chance, interrupts are disabled so a higher
			// priority interrupt (hopefully) doesn't delay.
			// TODO: change this to disabling the IDLE interrupt
			// which won't be simple, since we already manage
			// which transmit interrupts are enabled.
			UART0_CFIFO = UART_CFIFO_RXFLUSH;
    3968:	2240      	movs	r2, #64	; 0x40
    396a:	745a      	strb	r2, [r3, #17]
			__enable_irq();
    396c:	b662      	cpsie	i
    396e:	e026      	b.n	39be <uart0_status_isr+0x72>
		} else {
			__enable_irq();
    3970:	b662      	cpsie	i
			head = rx_buffer_head;
    3972:	4b36      	ldr	r3, [pc, #216]	; (3a4c <uart0_status_isr+0x100>)
    3974:	7818      	ldrb	r0, [r3, #0]
    3976:	b2c0      	uxtb	r0, r0
			tail = rx_buffer_tail;
    3978:	4b35      	ldr	r3, [pc, #212]	; (3a50 <uart0_status_isr+0x104>)
    397a:	781c      	ldrb	r4, [r3, #0]
    397c:	b2e4      	uxtb	r4, r4
			do {
				if (use9Bits && (UART0_C3 & 0x80)) {
					n = UART0_D | 0x100;
				} else {
					n = UART0_D;
    397e:	4d32      	ldr	r5, [pc, #200]	; (3a48 <uart0_status_isr+0xfc>)
				}
				newhead = head + 1;
				if (newhead >= SERIAL1_RX_BUFFER_SIZE) newhead = 0;
				if (newhead != tail) {
					head = newhead;
					rx_buffer[head] = n;
    3980:	4e34      	ldr	r6, [pc, #208]	; (3a54 <uart0_status_isr+0x108>)
			tail = rx_buffer_tail;
			do {
				if (use9Bits && (UART0_C3 & 0x80)) {
					n = UART0_D | 0x100;
				} else {
					n = UART0_D;
    3982:	79eb      	ldrb	r3, [r5, #7]
    3984:	b2d9      	uxtb	r1, r3
				}
				newhead = head + 1;
    3986:	1c43      	adds	r3, r0, #1
				if (newhead >= SERIAL1_RX_BUFFER_SIZE) newhead = 0;
    3988:	2b40      	cmp	r3, #64	; 0x40
    398a:	bf28      	it	cs
    398c:	2300      	movcs	r3, #0
				if (newhead != tail) {
    398e:	42a3      	cmp	r3, r4
					head = newhead;
					rx_buffer[head] = n;
    3990:	bf1c      	itt	ne
    3992:	54f1      	strbne	r1, [r6, r3]
					n = UART0_D;
				}
				newhead = head + 1;
				if (newhead >= SERIAL1_RX_BUFFER_SIZE) newhead = 0;
				if (newhead != tail) {
					head = newhead;
    3994:	4618      	movne	r0, r3
					rx_buffer[head] = n;
				}
			} while (--avail > 0);
    3996:	1e53      	subs	r3, r2, #1
    3998:	f013 02ff 	ands.w	r2, r3, #255	; 0xff
    399c:	d1f1      	bne.n	3982 <uart0_status_isr+0x36>
			rx_buffer_head = head;
    399e:	b2c3      	uxtb	r3, r0
    39a0:	4a2a      	ldr	r2, [pc, #168]	; (3a4c <uart0_status_isr+0x100>)
    39a2:	7013      	strb	r3, [r2, #0]
			if (rts_pin) {
    39a4:	4b2c      	ldr	r3, [pc, #176]	; (3a58 <uart0_status_isr+0x10c>)
    39a6:	681b      	ldr	r3, [r3, #0]
    39a8:	b14b      	cbz	r3, 39be <uart0_status_isr+0x72>
				int avail;
				if (head >= tail) avail = head - tail;
    39aa:	42a0      	cmp	r0, r4
    39ac:	bf2e      	itee	cs
    39ae:	1b00      	subcs	r0, r0, r4
				else avail = SERIAL1_RX_BUFFER_SIZE + head - tail;
    39b0:	f1c4 0440 	rsbcc	r4, r4, #64	; 0x40
    39b4:	1900      	addcc	r0, r0, r4
				if (avail >= RTS_HIGH_WATERMARK) rts_deassert();
    39b6:	2827      	cmp	r0, #39	; 0x27
    39b8:	bfc4      	itt	gt
    39ba:	2201      	movgt	r2, #1
    39bc:	701a      	strbgt	r2, [r3, #0]
			}
		}
	}
	c = UART0_C2;
    39be:	4b22      	ldr	r3, [pc, #136]	; (3a48 <uart0_status_isr+0xfc>)
    39c0:	78da      	ldrb	r2, [r3, #3]
    39c2:	b2d2      	uxtb	r2, r2
	if ((c & UART_C2_TIE) && (UART0_S1 & UART_S1_TDRE)) {
    39c4:	f012 0f80 	tst.w	r2, #128	; 0x80
    39c8:	d029      	beq.n	3a1e <uart0_status_isr+0xd2>
    39ca:	791b      	ldrb	r3, [r3, #4]
    39cc:	f013 0f80 	tst.w	r3, #128	; 0x80
    39d0:	d025      	beq.n	3a1e <uart0_status_isr+0xd2>
		head = tx_buffer_head;
    39d2:	4b22      	ldr	r3, [pc, #136]	; (3a5c <uart0_status_isr+0x110>)
    39d4:	781c      	ldrb	r4, [r3, #0]
    39d6:	b2e4      	uxtb	r4, r4
		tail = tx_buffer_tail;
    39d8:	4b21      	ldr	r3, [pc, #132]	; (3a60 <uart0_status_isr+0x114>)
    39da:	781b      	ldrb	r3, [r3, #0]
    39dc:	b2db      	uxtb	r3, r3
		do {
			if (tail == head) break;
    39de:	429c      	cmp	r4, r3
    39e0:	d012      	beq.n	3a08 <uart0_status_isr+0xbc>
			if (++tail >= SERIAL1_TX_BUFFER_SIZE) tail = 0;
			avail = UART0_S1;
    39e2:	4819      	ldr	r0, [pc, #100]	; (3a48 <uart0_status_isr+0xfc>)
			n = tx_buffer[tail];
    39e4:	4d1f      	ldr	r5, [pc, #124]	; (3a64 <uart0_status_isr+0x118>)
    39e6:	e001      	b.n	39ec <uart0_status_isr+0xa0>
	c = UART0_C2;
	if ((c & UART_C2_TIE) && (UART0_S1 & UART_S1_TDRE)) {
		head = tx_buffer_head;
		tail = tx_buffer_tail;
		do {
			if (tail == head) break;
    39e8:	42a3      	cmp	r3, r4
    39ea:	d00c      	beq.n	3a06 <uart0_status_isr+0xba>
			if (++tail >= SERIAL1_TX_BUFFER_SIZE) tail = 0;
    39ec:	3301      	adds	r3, #1
    39ee:	2b40      	cmp	r3, #64	; 0x40
    39f0:	bf28      	it	cs
    39f2:	2300      	movcs	r3, #0
			avail = UART0_S1;
    39f4:	7901      	ldrb	r1, [r0, #4]
			n = tx_buffer[tail];
    39f6:	5ce9      	ldrb	r1, [r5, r3]
    39f8:	b2c9      	uxtb	r1, r1
			if (use9Bits) UART0_C3 = (UART0_C3 & ~0x40) | ((n & 0x100) >> 2);
			UART0_D = n;
    39fa:	71c1      	strb	r1, [r0, #7]
		} while (UART0_TCFIFO < 8);
    39fc:	7d01      	ldrb	r1, [r0, #20]
    39fe:	b2c9      	uxtb	r1, r1
    3a00:	2907      	cmp	r1, #7
    3a02:	d9f1      	bls.n	39e8 <uart0_status_isr+0x9c>
    3a04:	e000      	b.n	3a08 <uart0_status_isr+0xbc>
    3a06:	4623      	mov	r3, r4
		tx_buffer_tail = tail;
    3a08:	b2db      	uxtb	r3, r3
    3a0a:	4915      	ldr	r1, [pc, #84]	; (3a60 <uart0_status_isr+0x114>)
    3a0c:	700b      	strb	r3, [r1, #0]
		if (UART0_S1 & UART_S1_TDRE) UART0_C2 = C2_TX_COMPLETING;
    3a0e:	4b0e      	ldr	r3, [pc, #56]	; (3a48 <uart0_status_isr+0xfc>)
    3a10:	791b      	ldrb	r3, [r3, #4]
    3a12:	f013 0f80 	tst.w	r3, #128	; 0x80
    3a16:	d002      	beq.n	3a1e <uart0_status_isr+0xd2>
    3a18:	217c      	movs	r1, #124	; 0x7c
    3a1a:	4b0b      	ldr	r3, [pc, #44]	; (3a48 <uart0_status_isr+0xfc>)
    3a1c:	70d9      	strb	r1, [r3, #3]
			UART0_D = n;
			tx_buffer_tail = tail;
		}
	}
#endif
	if ((c & UART_C2_TCIE) && (UART0_S1 & UART_S1_TC)) {
    3a1e:	f012 0f40 	tst.w	r2, #64	; 0x40
    3a22:	d00e      	beq.n	3a42 <uart0_status_isr+0xf6>
    3a24:	4b08      	ldr	r3, [pc, #32]	; (3a48 <uart0_status_isr+0xfc>)
    3a26:	791b      	ldrb	r3, [r3, #4]
    3a28:	f013 0f40 	tst.w	r3, #64	; 0x40
    3a2c:	d009      	beq.n	3a42 <uart0_status_isr+0xf6>
		transmitting = 0;
    3a2e:	2200      	movs	r2, #0
    3a30:	4b0d      	ldr	r3, [pc, #52]	; (3a68 <uart0_status_isr+0x11c>)
    3a32:	701a      	strb	r2, [r3, #0]
		if (transmit_pin) transmit_deassert();
    3a34:	4b0d      	ldr	r3, [pc, #52]	; (3a6c <uart0_status_isr+0x120>)
    3a36:	681b      	ldr	r3, [r3, #0]
    3a38:	b103      	cbz	r3, 3a3c <uart0_status_isr+0xf0>
    3a3a:	701a      	strb	r2, [r3, #0]
		UART0_C2 = C2_TX_INACTIVE;
    3a3c:	223c      	movs	r2, #60	; 0x3c
    3a3e:	4b02      	ldr	r3, [pc, #8]	; (3a48 <uart0_status_isr+0xfc>)
    3a40:	70da      	strb	r2, [r3, #3]
	}
}
    3a42:	bc70      	pop	{r4, r5, r6}
    3a44:	4770      	bx	lr
    3a46:	bf00      	nop
    3a48:	4006a000 	.word	0x4006a000
    3a4c:	1fff9a94 	.word	0x1fff9a94
    3a50:	1fff9a11 	.word	0x1fff9a11
    3a54:	1fff9a54 	.word	0x1fff9a54
    3a58:	1fff9a0c 	.word	0x1fff9a0c
    3a5c:	1fff9a9c 	.word	0x1fff9a9c
    3a60:	1fff9a95 	.word	0x1fff9a95
    3a64:	1fff9a14 	.word	0x1fff9a14
    3a68:	1fff9a10 	.word	0x1fff9a10
    3a6c:	1fff9a98 	.word	0x1fff9a98

00003a70 <serial2_available>:

int serial2_available(void)
{
	uint32_t head, tail;

	head = rx_buffer_head;
    3a70:	4b05      	ldr	r3, [pc, #20]	; (3a88 <serial2_available+0x18>)
    3a72:	7818      	ldrb	r0, [r3, #0]
    3a74:	b2c0      	uxtb	r0, r0
	tail = rx_buffer_tail;
    3a76:	4b05      	ldr	r3, [pc, #20]	; (3a8c <serial2_available+0x1c>)
    3a78:	781b      	ldrb	r3, [r3, #0]
    3a7a:	b2db      	uxtb	r3, r3
	if (head >= tail) return head - tail;
    3a7c:	4298      	cmp	r0, r3
	return SERIAL2_RX_BUFFER_SIZE + head - tail;
    3a7e:	bf38      	it	cc
    3a80:	3040      	addcc	r0, #64	; 0x40
    3a82:	1ac0      	subs	r0, r0, r3
}
    3a84:	4770      	bx	lr
    3a86:	bf00      	nop
    3a88:	1fff9b10 	.word	0x1fff9b10
    3a8c:	1fff9aa5 	.word	0x1fff9aa5

00003a90 <uart1_status_isr>:
//   Receive data above watermark   UART_S1_RDRF
//   LIN break detect		    UART_S2_LBKDIF
//   RxD pin active edge	    UART_S2_RXEDGIF

void uart1_status_isr(void)
{
    3a90:	b470      	push	{r4, r5, r6}
	uint8_t c;
#ifdef HAS_KINETISK_UART1_FIFO
	uint32_t newhead;
	uint8_t avail;

	if (UART1_S1 & (UART_S1_RDRF | UART_S1_IDLE)) {
    3a92:	4b3e      	ldr	r3, [pc, #248]	; (3b8c <uart1_status_isr+0xfc>)
    3a94:	791b      	ldrb	r3, [r3, #4]
    3a96:	f013 0f30 	tst.w	r3, #48	; 0x30
    3a9a:	d032      	beq.n	3b02 <uart1_status_isr+0x72>
		__disable_irq();
    3a9c:	b672      	cpsid	i
		avail = UART1_RCFIFO;
    3a9e:	4b3b      	ldr	r3, [pc, #236]	; (3b8c <uart1_status_isr+0xfc>)
    3aa0:	7d9b      	ldrb	r3, [r3, #22]
		if (avail == 0) {
    3aa2:	f003 02ff 	and.w	r2, r3, #255	; 0xff
    3aa6:	b92b      	cbnz	r3, 3ab4 <uart1_status_isr+0x24>
			// to read the data register.  But reading with no
			// data causes a FIFO underrun, which causes the
			// FIFO to return corrupted data.  If anyone from
			// Freescale reads this, what a poor design!  There
			// write should be a write-1-to-clear for IDLE.
			c = UART1_D;
    3aa8:	4b38      	ldr	r3, [pc, #224]	; (3b8c <uart1_status_isr+0xfc>)
    3aaa:	79da      	ldrb	r2, [r3, #7]
			// the chance, interrupts are disabled so a higher
			// priority interrupt (hopefully) doesn't delay.
			// TODO: change this to disabling the IDLE interrupt
			// which won't be simple, since we already manage
			// which transmit interrupts are enabled.
			UART1_CFIFO = UART_CFIFO_RXFLUSH;
    3aac:	2240      	movs	r2, #64	; 0x40
    3aae:	745a      	strb	r2, [r3, #17]
			__enable_irq();
    3ab0:	b662      	cpsie	i
    3ab2:	e026      	b.n	3b02 <uart1_status_isr+0x72>
		} else {
			__enable_irq();
    3ab4:	b662      	cpsie	i
			head = rx_buffer_head;
    3ab6:	4b36      	ldr	r3, [pc, #216]	; (3b90 <uart1_status_isr+0x100>)
    3ab8:	7818      	ldrb	r0, [r3, #0]
    3aba:	b2c0      	uxtb	r0, r0
			tail = rx_buffer_tail;
    3abc:	4b35      	ldr	r3, [pc, #212]	; (3b94 <uart1_status_isr+0x104>)
    3abe:	781c      	ldrb	r4, [r3, #0]
    3ac0:	b2e4      	uxtb	r4, r4
			do {
				if (use9Bits && (UART1_C3 & 0x80)) {
					n = UART1_D | 0x100;
				} else {
					n = UART1_D;
    3ac2:	4d32      	ldr	r5, [pc, #200]	; (3b8c <uart1_status_isr+0xfc>)
				}
				newhead = head + 1;
				if (newhead >= SERIAL2_RX_BUFFER_SIZE) newhead = 0;
				if (newhead != tail) {
					head = newhead;
					rx_buffer[head] = n;
    3ac4:	4e34      	ldr	r6, [pc, #208]	; (3b98 <uart1_status_isr+0x108>)
			tail = rx_buffer_tail;
			do {
				if (use9Bits && (UART1_C3 & 0x80)) {
					n = UART1_D | 0x100;
				} else {
					n = UART1_D;
    3ac6:	79eb      	ldrb	r3, [r5, #7]
    3ac8:	b2d9      	uxtb	r1, r3
				}
				newhead = head + 1;
    3aca:	1c43      	adds	r3, r0, #1
				if (newhead >= SERIAL2_RX_BUFFER_SIZE) newhead = 0;
    3acc:	2b40      	cmp	r3, #64	; 0x40
    3ace:	bf28      	it	cs
    3ad0:	2300      	movcs	r3, #0
				if (newhead != tail) {
    3ad2:	42a3      	cmp	r3, r4
					head = newhead;
					rx_buffer[head] = n;
    3ad4:	bf1c      	itt	ne
    3ad6:	54f1      	strbne	r1, [r6, r3]
					n = UART1_D;
				}
				newhead = head + 1;
				if (newhead >= SERIAL2_RX_BUFFER_SIZE) newhead = 0;
				if (newhead != tail) {
					head = newhead;
    3ad8:	4618      	movne	r0, r3
					rx_buffer[head] = n;
				}
			} while (--avail > 0);
    3ada:	1e53      	subs	r3, r2, #1
    3adc:	f013 02ff 	ands.w	r2, r3, #255	; 0xff
    3ae0:	d1f1      	bne.n	3ac6 <uart1_status_isr+0x36>
			rx_buffer_head = head;
    3ae2:	b2c3      	uxtb	r3, r0
    3ae4:	4a2a      	ldr	r2, [pc, #168]	; (3b90 <uart1_status_isr+0x100>)
    3ae6:	7013      	strb	r3, [r2, #0]
			if (rts_pin) {
    3ae8:	4b2c      	ldr	r3, [pc, #176]	; (3b9c <uart1_status_isr+0x10c>)
    3aea:	681b      	ldr	r3, [r3, #0]
    3aec:	b14b      	cbz	r3, 3b02 <uart1_status_isr+0x72>
				int avail;
				if (head >= tail) avail = head - tail;
    3aee:	42a0      	cmp	r0, r4
    3af0:	bf2e      	itee	cs
    3af2:	1b00      	subcs	r0, r0, r4
				else avail = SERIAL2_RX_BUFFER_SIZE + head - tail;
    3af4:	f1c4 0440 	rsbcc	r4, r4, #64	; 0x40
    3af8:	1900      	addcc	r0, r0, r4
				if (avail >= RTS_HIGH_WATERMARK) rts_deassert();
    3afa:	2827      	cmp	r0, #39	; 0x27
    3afc:	bfc4      	itt	gt
    3afe:	2201      	movgt	r2, #1
    3b00:	701a      	strbgt	r2, [r3, #0]
			}
		}
	}
	c = UART1_C2;
    3b02:	4b22      	ldr	r3, [pc, #136]	; (3b8c <uart1_status_isr+0xfc>)
    3b04:	78da      	ldrb	r2, [r3, #3]
    3b06:	b2d2      	uxtb	r2, r2
	if ((c & UART_C2_TIE) && (UART1_S1 & UART_S1_TDRE)) {
    3b08:	f012 0f80 	tst.w	r2, #128	; 0x80
    3b0c:	d029      	beq.n	3b62 <uart1_status_isr+0xd2>
    3b0e:	791b      	ldrb	r3, [r3, #4]
    3b10:	f013 0f80 	tst.w	r3, #128	; 0x80
    3b14:	d025      	beq.n	3b62 <uart1_status_isr+0xd2>
		head = tx_buffer_head;
    3b16:	4b22      	ldr	r3, [pc, #136]	; (3ba0 <uart1_status_isr+0x110>)
    3b18:	781c      	ldrb	r4, [r3, #0]
    3b1a:	b2e4      	uxtb	r4, r4
		tail = tx_buffer_tail;
    3b1c:	4b21      	ldr	r3, [pc, #132]	; (3ba4 <uart1_status_isr+0x114>)
    3b1e:	781b      	ldrb	r3, [r3, #0]
    3b20:	b2db      	uxtb	r3, r3
		do {
			if (tail == head) break;
    3b22:	429c      	cmp	r4, r3
    3b24:	d012      	beq.n	3b4c <uart1_status_isr+0xbc>
			if (++tail >= SERIAL2_TX_BUFFER_SIZE) tail = 0;
			avail = UART1_S1;
    3b26:	4819      	ldr	r0, [pc, #100]	; (3b8c <uart1_status_isr+0xfc>)
			n = tx_buffer[tail];
    3b28:	4d1f      	ldr	r5, [pc, #124]	; (3ba8 <uart1_status_isr+0x118>)
    3b2a:	e001      	b.n	3b30 <uart1_status_isr+0xa0>
	c = UART1_C2;
	if ((c & UART_C2_TIE) && (UART1_S1 & UART_S1_TDRE)) {
		head = tx_buffer_head;
		tail = tx_buffer_tail;
		do {
			if (tail == head) break;
    3b2c:	42a3      	cmp	r3, r4
    3b2e:	d00c      	beq.n	3b4a <uart1_status_isr+0xba>
			if (++tail >= SERIAL2_TX_BUFFER_SIZE) tail = 0;
    3b30:	3301      	adds	r3, #1
    3b32:	2b28      	cmp	r3, #40	; 0x28
    3b34:	bf28      	it	cs
    3b36:	2300      	movcs	r3, #0
			avail = UART1_S1;
    3b38:	7901      	ldrb	r1, [r0, #4]
			n = tx_buffer[tail];
    3b3a:	5ce9      	ldrb	r1, [r5, r3]
    3b3c:	b2c9      	uxtb	r1, r1
			if (use9Bits) UART1_C3 = (UART1_C3 & ~0x40) | ((n & 0x100) >> 2);
			UART1_D = n;
    3b3e:	71c1      	strb	r1, [r0, #7]
		} while (UART1_TCFIFO < 8);
    3b40:	7d01      	ldrb	r1, [r0, #20]
    3b42:	b2c9      	uxtb	r1, r1
    3b44:	2907      	cmp	r1, #7
    3b46:	d9f1      	bls.n	3b2c <uart1_status_isr+0x9c>
    3b48:	e000      	b.n	3b4c <uart1_status_isr+0xbc>
    3b4a:	4623      	mov	r3, r4
		tx_buffer_tail = tail;
    3b4c:	b2db      	uxtb	r3, r3
    3b4e:	4915      	ldr	r1, [pc, #84]	; (3ba4 <uart1_status_isr+0x114>)
    3b50:	700b      	strb	r3, [r1, #0]
		if (UART1_S1 & UART_S1_TDRE) UART1_C2 = C2_TX_COMPLETING;
    3b52:	4b0e      	ldr	r3, [pc, #56]	; (3b8c <uart1_status_isr+0xfc>)
    3b54:	791b      	ldrb	r3, [r3, #4]
    3b56:	f013 0f80 	tst.w	r3, #128	; 0x80
    3b5a:	d002      	beq.n	3b62 <uart1_status_isr+0xd2>
    3b5c:	217c      	movs	r1, #124	; 0x7c
    3b5e:	4b0b      	ldr	r3, [pc, #44]	; (3b8c <uart1_status_isr+0xfc>)
    3b60:	70d9      	strb	r1, [r3, #3]
			UART1_D = n;
			tx_buffer_tail = tail;
		}
	}
#endif
	if ((c & UART_C2_TCIE) && (UART1_S1 & UART_S1_TC)) {
    3b62:	f012 0f40 	tst.w	r2, #64	; 0x40
    3b66:	d00e      	beq.n	3b86 <uart1_status_isr+0xf6>
    3b68:	4b08      	ldr	r3, [pc, #32]	; (3b8c <uart1_status_isr+0xfc>)
    3b6a:	791b      	ldrb	r3, [r3, #4]
    3b6c:	f013 0f40 	tst.w	r3, #64	; 0x40
    3b70:	d009      	beq.n	3b86 <uart1_status_isr+0xf6>
		transmitting = 0;
    3b72:	2200      	movs	r2, #0
    3b74:	4b0d      	ldr	r3, [pc, #52]	; (3bac <uart1_status_isr+0x11c>)
    3b76:	701a      	strb	r2, [r3, #0]
		if (transmit_pin) transmit_deassert();
    3b78:	4b0d      	ldr	r3, [pc, #52]	; (3bb0 <uart1_status_isr+0x120>)
    3b7a:	681b      	ldr	r3, [r3, #0]
    3b7c:	b103      	cbz	r3, 3b80 <uart1_status_isr+0xf0>
    3b7e:	701a      	strb	r2, [r3, #0]
		UART1_C2 = C2_TX_INACTIVE;
    3b80:	223c      	movs	r2, #60	; 0x3c
    3b82:	4b02      	ldr	r3, [pc, #8]	; (3b8c <uart1_status_isr+0xfc>)
    3b84:	70da      	strb	r2, [r3, #3]
	}
}
    3b86:	bc70      	pop	{r4, r5, r6}
    3b88:	4770      	bx	lr
    3b8a:	bf00      	nop
    3b8c:	4006b000 	.word	0x4006b000
    3b90:	1fff9b10 	.word	0x1fff9b10
    3b94:	1fff9aa5 	.word	0x1fff9aa5
    3b98:	1fff9ad0 	.word	0x1fff9ad0
    3b9c:	1fff9aa0 	.word	0x1fff9aa0
    3ba0:	1fff9b18 	.word	0x1fff9b18
    3ba4:	1fff9b11 	.word	0x1fff9b11
    3ba8:	1fff9aa8 	.word	0x1fff9aa8
    3bac:	1fff9aa4 	.word	0x1fff9aa4
    3bb0:	1fff9b14 	.word	0x1fff9b14

00003bb4 <serial3_available>:

int serial3_available(void)
{
	uint32_t head, tail;

	head = rx_buffer_head;
    3bb4:	4b05      	ldr	r3, [pc, #20]	; (3bcc <serial3_available+0x18>)
    3bb6:	7818      	ldrb	r0, [r3, #0]
    3bb8:	b2c0      	uxtb	r0, r0
	tail = rx_buffer_tail;
    3bba:	4b05      	ldr	r3, [pc, #20]	; (3bd0 <serial3_available+0x1c>)
    3bbc:	781b      	ldrb	r3, [r3, #0]
    3bbe:	b2db      	uxtb	r3, r3
	if (head >= tail) return head - tail;
    3bc0:	4298      	cmp	r0, r3
	return SERIAL3_RX_BUFFER_SIZE + head - tail;
    3bc2:	bf38      	it	cc
    3bc4:	3040      	addcc	r0, #64	; 0x40
    3bc6:	1ac0      	subs	r0, r0, r3
}
    3bc8:	4770      	bx	lr
    3bca:	bf00      	nop
    3bcc:	1fff9b8c 	.word	0x1fff9b8c
    3bd0:	1fff9b21 	.word	0x1fff9b21

00003bd4 <uart2_status_isr>:
void uart2_status_isr(void)
{
	uint32_t head, tail, n;
	uint8_t c;

	if (UART2_S1 & UART_S1_RDRF) {
    3bd4:	4b2e      	ldr	r3, [pc, #184]	; (3c90 <uart2_status_isr+0xbc>)
    3bd6:	791b      	ldrb	r3, [r3, #4]
    3bd8:	f013 0f20 	tst.w	r3, #32
    3bdc:	d022      	beq.n	3c24 <uart2_status_isr+0x50>
		if (use9Bits && (UART2_C3 & 0x80)) {
			n = UART2_D | 0x100;
		} else {
			n = UART2_D;
    3bde:	4b2c      	ldr	r3, [pc, #176]	; (3c90 <uart2_status_isr+0xbc>)
    3be0:	79db      	ldrb	r3, [r3, #7]
    3be2:	b2d9      	uxtb	r1, r3
		}
		head = rx_buffer_head + 1;
    3be4:	4b2b      	ldr	r3, [pc, #172]	; (3c94 <uart2_status_isr+0xc0>)
    3be6:	781b      	ldrb	r3, [r3, #0]
    3be8:	3301      	adds	r3, #1
		if (head >= SERIAL3_RX_BUFFER_SIZE) head = 0;
    3bea:	2b40      	cmp	r3, #64	; 0x40
    3bec:	bf28      	it	cs
    3bee:	2300      	movcs	r3, #0
		if (head != rx_buffer_tail) {
    3bf0:	4a29      	ldr	r2, [pc, #164]	; (3c98 <uart2_status_isr+0xc4>)
    3bf2:	7812      	ldrb	r2, [r2, #0]
    3bf4:	b2d2      	uxtb	r2, r2
    3bf6:	4293      	cmp	r3, r2
    3bf8:	d004      	beq.n	3c04 <uart2_status_isr+0x30>
			rx_buffer[head] = n;
    3bfa:	4a28      	ldr	r2, [pc, #160]	; (3c9c <uart2_status_isr+0xc8>)
    3bfc:	54d1      	strb	r1, [r2, r3]
			rx_buffer_head = head;
    3bfe:	b2da      	uxtb	r2, r3
    3c00:	4924      	ldr	r1, [pc, #144]	; (3c94 <uart2_status_isr+0xc0>)
    3c02:	700a      	strb	r2, [r1, #0]
		}
		if (rts_pin) {
    3c04:	4a26      	ldr	r2, [pc, #152]	; (3ca0 <uart2_status_isr+0xcc>)
    3c06:	6811      	ldr	r1, [r2, #0]
    3c08:	b161      	cbz	r1, 3c24 <uart2_status_isr+0x50>
			int avail;
			tail = tx_buffer_tail;
    3c0a:	4a26      	ldr	r2, [pc, #152]	; (3ca4 <uart2_status_isr+0xd0>)
    3c0c:	7812      	ldrb	r2, [r2, #0]
    3c0e:	b2d2      	uxtb	r2, r2
			if (head >= tail) avail = head - tail;
    3c10:	4293      	cmp	r3, r2
    3c12:	bf2e      	itee	cs
    3c14:	1a9b      	subcs	r3, r3, r2
			else avail = SERIAL3_RX_BUFFER_SIZE + head - tail;
    3c16:	f1c2 0240 	rsbcc	r2, r2, #64	; 0x40
    3c1a:	189b      	addcc	r3, r3, r2
			if (avail >= RTS_HIGH_WATERMARK) rts_deassert();
    3c1c:	2b27      	cmp	r3, #39	; 0x27
    3c1e:	bfc4      	itt	gt
    3c20:	2301      	movgt	r3, #1
    3c22:	700b      	strbgt	r3, [r1, #0]
		}
	}
	c = UART2_C2;
    3c24:	4b1a      	ldr	r3, [pc, #104]	; (3c90 <uart2_status_isr+0xbc>)
    3c26:	78db      	ldrb	r3, [r3, #3]
    3c28:	b2db      	uxtb	r3, r3
	if ((c & UART_C2_TIE) && (UART2_S1 & UART_S1_TDRE)) {
    3c2a:	f013 0f80 	tst.w	r3, #128	; 0x80
    3c2e:	d01c      	beq.n	3c6a <uart2_status_isr+0x96>
    3c30:	4a17      	ldr	r2, [pc, #92]	; (3c90 <uart2_status_isr+0xbc>)
    3c32:	7912      	ldrb	r2, [r2, #4]
    3c34:	f012 0f80 	tst.w	r2, #128	; 0x80
    3c38:	d017      	beq.n	3c6a <uart2_status_isr+0x96>
		head = tx_buffer_head;
    3c3a:	4a1b      	ldr	r2, [pc, #108]	; (3ca8 <uart2_status_isr+0xd4>)
    3c3c:	7811      	ldrb	r1, [r2, #0]
    3c3e:	b2c9      	uxtb	r1, r1
		tail = tx_buffer_tail;
    3c40:	4a18      	ldr	r2, [pc, #96]	; (3ca4 <uart2_status_isr+0xd0>)
    3c42:	7812      	ldrb	r2, [r2, #0]
    3c44:	b2d2      	uxtb	r2, r2
		if (head == tail) {
    3c46:	4291      	cmp	r1, r2
    3c48:	d103      	bne.n	3c52 <uart2_status_isr+0x7e>
			UART2_C2 = C2_TX_COMPLETING;
    3c4a:	216c      	movs	r1, #108	; 0x6c
    3c4c:	4a10      	ldr	r2, [pc, #64]	; (3c90 <uart2_status_isr+0xbc>)
    3c4e:	70d1      	strb	r1, [r2, #3]
    3c50:	e00b      	b.n	3c6a <uart2_status_isr+0x96>
		} else {
			if (++tail >= SERIAL3_TX_BUFFER_SIZE) tail = 0;
    3c52:	3201      	adds	r2, #1
    3c54:	2a28      	cmp	r2, #40	; 0x28
    3c56:	bf28      	it	cs
    3c58:	2200      	movcs	r2, #0
			n = tx_buffer[tail];
    3c5a:	4914      	ldr	r1, [pc, #80]	; (3cac <uart2_status_isr+0xd8>)
    3c5c:	5c89      	ldrb	r1, [r1, r2]
    3c5e:	b2c9      	uxtb	r1, r1
			if (use9Bits) UART2_C3 = (UART2_C3 & ~0x40) | ((n & 0x100) >> 2);
			UART2_D = n;
    3c60:	480b      	ldr	r0, [pc, #44]	; (3c90 <uart2_status_isr+0xbc>)
    3c62:	71c1      	strb	r1, [r0, #7]
			tx_buffer_tail = tail;
    3c64:	b2d2      	uxtb	r2, r2
    3c66:	490f      	ldr	r1, [pc, #60]	; (3ca4 <uart2_status_isr+0xd0>)
    3c68:	700a      	strb	r2, [r1, #0]
		}
	}
	if ((c & UART_C2_TCIE) && (UART2_S1 & UART_S1_TC)) {
    3c6a:	f013 0f40 	tst.w	r3, #64	; 0x40
    3c6e:	d00e      	beq.n	3c8e <uart2_status_isr+0xba>
    3c70:	4b07      	ldr	r3, [pc, #28]	; (3c90 <uart2_status_isr+0xbc>)
    3c72:	791b      	ldrb	r3, [r3, #4]
    3c74:	f013 0f40 	tst.w	r3, #64	; 0x40
    3c78:	d009      	beq.n	3c8e <uart2_status_isr+0xba>
		transmitting = 0;
    3c7a:	2200      	movs	r2, #0
    3c7c:	4b0c      	ldr	r3, [pc, #48]	; (3cb0 <uart2_status_isr+0xdc>)
    3c7e:	701a      	strb	r2, [r3, #0]
		if (transmit_pin) transmit_deassert();
    3c80:	4b0c      	ldr	r3, [pc, #48]	; (3cb4 <uart2_status_isr+0xe0>)
    3c82:	681b      	ldr	r3, [r3, #0]
    3c84:	b103      	cbz	r3, 3c88 <uart2_status_isr+0xb4>
    3c86:	701a      	strb	r2, [r3, #0]
		UART2_C2 = C2_TX_INACTIVE;
    3c88:	222c      	movs	r2, #44	; 0x2c
    3c8a:	4b01      	ldr	r3, [pc, #4]	; (3c90 <uart2_status_isr+0xbc>)
    3c8c:	70da      	strb	r2, [r3, #3]
    3c8e:	4770      	bx	lr
    3c90:	4006c000 	.word	0x4006c000
    3c94:	1fff9b8c 	.word	0x1fff9b8c
    3c98:	1fff9b21 	.word	0x1fff9b21
    3c9c:	1fff9b4c 	.word	0x1fff9b4c
    3ca0:	1fff9b1c 	.word	0x1fff9b1c
    3ca4:	1fff9b8d 	.word	0x1fff9b8d
    3ca8:	1fff9b94 	.word	0x1fff9b94
    3cac:	1fff9b24 	.word	0x1fff9b24
    3cb0:	1fff9b20 	.word	0x1fff9b20
    3cb4:	1fff9b90 	.word	0x1fff9b90

00003cb8 <usb_init_serialnumber>:
void usb_init_serialnumber(void)
{
	char buf[11];
	uint32_t i, num;

	__disable_irq();
    3cb8:	b672      	cpsid	i
#if defined(HAS_KINETIS_FLASH_FTFA) || defined(HAS_KINETIS_FLASH_FTFL)
	FTFL_FSTAT = FTFL_FSTAT_RDCOLERR | FTFL_FSTAT_ACCERR | FTFL_FSTAT_FPVIOL;
    3cba:	4b1d      	ldr	r3, [pc, #116]	; (3d30 <usb_init_serialnumber+0x78>)
    3cbc:	2270      	movs	r2, #112	; 0x70
    3cbe:	701a      	strb	r2, [r3, #0]
	FTFL_FCCOB0 = 0x41;
    3cc0:	2141      	movs	r1, #65	; 0x41
    3cc2:	4a1c      	ldr	r2, [pc, #112]	; (3d34 <usb_init_serialnumber+0x7c>)
    3cc4:	7011      	strb	r1, [r2, #0]
	FTFL_FCCOB1 = 15;
    3cc6:	210f      	movs	r1, #15
    3cc8:	3a01      	subs	r2, #1
    3cca:	7011      	strb	r1, [r2, #0]
	FTFL_FSTAT = FTFL_FSTAT_CCIF;
    3ccc:	2280      	movs	r2, #128	; 0x80
    3cce:	701a      	strb	r2, [r3, #0]
	while (!(FTFL_FSTAT & FTFL_FSTAT_CCIF)) ; // wait
    3cd0:	461a      	mov	r2, r3
    3cd2:	7813      	ldrb	r3, [r2, #0]
    3cd4:	f013 0f80 	tst.w	r3, #128	; 0x80
    3cd8:	d0fb      	beq.n	3cd2 <usb_init_serialnumber+0x1a>
	{'M','T','P'}
};
#endif

void usb_init_serialnumber(void)
{
    3cda:	b500      	push	{lr}
    3cdc:	b085      	sub	sp, #20
	FTFL_FSTAT = FTFL_FSTAT_RDCOLERR | FTFL_FSTAT_ACCERR | FTFL_FSTAT_FPVIOL;
	FTFL_FCCOB0 = 0x41;
	FTFL_FCCOB1 = 15;
	FTFL_FSTAT = FTFL_FSTAT_CCIF;
	while (!(FTFL_FSTAT & FTFL_FSTAT_CCIF)) ; // wait
	num = *(uint32_t *)&FTFL_FCCOB7;
    3cde:	4b16      	ldr	r3, [pc, #88]	; (3d38 <usb_init_serialnumber+0x80>)
    3ce0:	6818      	ldr	r0, [r3, #0]
	FTFL_FSTAT = FTFL_FSTAT_CCIF;
	while (!(FTFL_FSTAT & FTFL_FSTAT_CCIF)) ; // wait
	num = *(uint32_t *)&FTFL_FCCOBB;
	kinetis_hsrun_enable();
#endif
	__enable_irq();
    3ce2:	b662      	cpsie	i
	// add extra zero to work around OS-X CDC-ACM driver bug
	if (num < 10000000) num = num * 10;
    3ce4:	4b15      	ldr	r3, [pc, #84]	; (3d3c <usb_init_serialnumber+0x84>)
    3ce6:	4298      	cmp	r0, r3
    3ce8:	bf9c      	itt	ls
    3cea:	eb00 0080 	addls.w	r0, r0, r0, lsl #2
    3cee:	0040      	lslls	r0, r0, #1
	ultoa(num, buf, 10);
    3cf0:	220a      	movs	r2, #10
    3cf2:	a901      	add	r1, sp, #4
    3cf4:	f7ff fdf0 	bl	38d8 <ultoa>
	for (i=0; i<10; i++) {
		char c = buf[i];
    3cf8:	f89d 3004 	ldrb.w	r3, [sp, #4]
		if (!c) break;
    3cfc:	b97b      	cbnz	r3, 3d1e <usb_init_serialnumber+0x66>
    3cfe:	e008      	b.n	3d12 <usb_init_serialnumber+0x5a>
	__enable_irq();
	// add extra zero to work around OS-X CDC-ACM driver bug
	if (num < 10000000) num = num * 10;
	ultoa(num, buf, 10);
	for (i=0; i<10; i++) {
		char c = buf[i];
    3d00:	f810 2f01 	ldrb.w	r2, [r0, #1]!
		if (!c) break;
    3d04:	b132      	cbz	r2, 3d14 <usb_init_serialnumber+0x5c>
		usb_string_serial_number_default.wString[i] = c;
    3d06:	f821 2f02 	strh.w	r2, [r1, #2]!
#endif
	__enable_irq();
	// add extra zero to work around OS-X CDC-ACM driver bug
	if (num < 10000000) num = num * 10;
	ultoa(num, buf, 10);
	for (i=0; i<10; i++) {
    3d0a:	3301      	adds	r3, #1
    3d0c:	2b0a      	cmp	r3, #10
    3d0e:	d1f7      	bne.n	3d00 <usb_init_serialnumber+0x48>
    3d10:	e000      	b.n	3d14 <usb_init_serialnumber+0x5c>
    3d12:	2300      	movs	r3, #0
		char c = buf[i];
		if (!c) break;
		usb_string_serial_number_default.wString[i] = c;
	}
	usb_string_serial_number_default.bLength = i * 2 + 2;
    3d14:	3301      	adds	r3, #1
    3d16:	005b      	lsls	r3, r3, #1
    3d18:	4a09      	ldr	r2, [pc, #36]	; (3d40 <usb_init_serialnumber+0x88>)
    3d1a:	7013      	strb	r3, [r2, #0]
}
    3d1c:	e005      	b.n	3d2a <usb_init_serialnumber+0x72>
	if (num < 10000000) num = num * 10;
	ultoa(num, buf, 10);
	for (i=0; i<10; i++) {
		char c = buf[i];
		if (!c) break;
		usb_string_serial_number_default.wString[i] = c;
    3d1e:	4908      	ldr	r1, [pc, #32]	; (3d40 <usb_init_serialnumber+0x88>)
    3d20:	f821 3f02 	strh.w	r3, [r1, #2]!
    3d24:	a801      	add	r0, sp, #4
#endif
	__enable_irq();
	// add extra zero to work around OS-X CDC-ACM driver bug
	if (num < 10000000) num = num * 10;
	ultoa(num, buf, 10);
	for (i=0; i<10; i++) {
    3d26:	2301      	movs	r3, #1
    3d28:	e7ea      	b.n	3d00 <usb_init_serialnumber+0x48>
		char c = buf[i];
		if (!c) break;
		usb_string_serial_number_default.wString[i] = c;
	}
	usb_string_serial_number_default.bLength = i * 2 + 2;
}
    3d2a:	b005      	add	sp, #20
    3d2c:	f85d fb04 	ldr.w	pc, [sp], #4
    3d30:	40020000 	.word	0x40020000
    3d34:	40020007 	.word	0x40020007
    3d38:	40020008 	.word	0x40020008
    3d3c:	0098967f 	.word	0x0098967f
    3d40:	1fff8e68 	.word	0x1fff8e68

00003d44 <EventResponder::runFromInterrupt()>:
{
	EventResponder::runFromInterrupt();
}

void EventResponder::runFromInterrupt()
{
    3d44:	b570      	push	{r4, r5, r6, lr}
	static EventResponder *lastInterrupt;
	static bool runningFromYield;
private:
	static bool disableInterrupts() {
		uint32_t primask;
		__asm__ volatile("mrs %0, primask\n" : "=r" (primask)::);
    3d46:	f3ef 8210 	mrs	r2, PRIMASK
		__disable_irq();
    3d4a:	b672      	cpsid	i
	while (1) {
		bool irq = disableInterrupts();
		EventResponder *first = firstInterrupt;
    3d4c:	4b0c      	ldr	r3, [pc, #48]	; (3d80 <EventResponder::runFromInterrupt()+0x3c>)
    3d4e:	6818      	ldr	r0, [r3, #0]
		if (first) {
    3d50:	b198      	cbz	r0, 3d7a <EventResponder::runFromInterrupt()+0x36>
			firstInterrupt = first->_next;
    3d52:	461c      	mov	r4, r3
			if (firstInterrupt) {
				firstInterrupt->_prev = nullptr;
    3d54:	2500      	movs	r5, #0
			} else {
				lastInterrupt = nullptr;
    3d56:	4e0b      	ldr	r6, [pc, #44]	; (3d84 <EventResponder::runFromInterrupt()+0x40>)
{
	while (1) {
		bool irq = disableInterrupts();
		EventResponder *first = firstInterrupt;
		if (first) {
			firstInterrupt = first->_next;
    3d58:	6943      	ldr	r3, [r0, #20]
    3d5a:	6023      	str	r3, [r4, #0]
			if (firstInterrupt) {
    3d5c:	b10b      	cbz	r3, 3d62 <EventResponder::runFromInterrupt()+0x1e>
				firstInterrupt->_prev = nullptr;
    3d5e:	619d      	str	r5, [r3, #24]
    3d60:	e000      	b.n	3d64 <EventResponder::runFromInterrupt()+0x20>
			} else {
				lastInterrupt = nullptr;
    3d62:	6035      	str	r5, [r6, #0]
		return (primask == 0) ? true : false;
	}
	static void enableInterrupts(bool doit) {
		if (doit) __enable_irq();
    3d64:	b902      	cbnz	r2, 3d68 <EventResponder::runFromInterrupt()+0x24>
    3d66:	b662      	cpsie	i
			}
			enableInterrupts(irq);
			first->_triggered = false;
    3d68:	7745      	strb	r5, [r0, #29]
			(*(first->_function))(*first);
    3d6a:	6883      	ldr	r3, [r0, #8]
    3d6c:	4798      	blx	r3
	static EventResponder *lastInterrupt;
	static bool runningFromYield;
private:
	static bool disableInterrupts() {
		uint32_t primask;
		__asm__ volatile("mrs %0, primask\n" : "=r" (primask)::);
    3d6e:	f3ef 8210 	mrs	r2, PRIMASK
		__disable_irq();
    3d72:	b672      	cpsid	i

void EventResponder::runFromInterrupt()
{
	while (1) {
		bool irq = disableInterrupts();
		EventResponder *first = firstInterrupt;
    3d74:	6820      	ldr	r0, [r4, #0]
		if (first) {
    3d76:	2800      	cmp	r0, #0
    3d78:	d1ee      	bne.n	3d58 <EventResponder::runFromInterrupt()+0x14>
		return (primask == 0) ? true : false;
	}
	static void enableInterrupts(bool doit) {
		if (doit) __enable_irq();
    3d7a:	b902      	cbnz	r2, 3d7e <EventResponder::runFromInterrupt()+0x3a>
    3d7c:	b662      	cpsie	i
    3d7e:	bd70      	pop	{r4, r5, r6, pc}
    3d80:	1fff9b98 	.word	0x1fff9b98
    3d84:	1fff9b9c 	.word	0x1fff9b9c

00003d88 <pendablesrvreq_isr>:
	}
	enableInterrupts(irq);
}

void pendablesrvreq_isr(void)
{
    3d88:	b508      	push	{r3, lr}
	EventResponder::runFromInterrupt();
    3d8a:	f7ff ffdb 	bl	3d44 <EventResponder::runFromInterrupt()>
    3d8e:	bd08      	pop	{r3, pc}

00003d90 <MillisTimer::addToActiveList()>:
	enableTimerInterrupt(irq);
}

void MillisTimer::addToActiveList() // only called by runFromTimer()
{
	if (listActive == nullptr) {
    3d90:	4b1c      	ldr	r3, [pc, #112]	; (3e04 <MillisTimer::addToActiveList()+0x74>)
    3d92:	681b      	ldr	r3, [r3, #0]
    3d94:	b923      	cbnz	r3, 3da0 <MillisTimer::addToActiveList()+0x10>
		// list is empty, easy case
		_next = nullptr;
    3d96:	6083      	str	r3, [r0, #8]
		_prev = nullptr;
    3d98:	60c3      	str	r3, [r0, #12]
		listActive = this;
    3d9a:	4b1a      	ldr	r3, [pc, #104]	; (3e04 <MillisTimer::addToActiveList()+0x74>)
    3d9c:	6018      	str	r0, [r3, #0]
    3d9e:	e02d      	b.n	3dfc <MillisTimer::addToActiveList()+0x6c>
	} else if (_ms < listActive->_ms) {
    3da0:	6801      	ldr	r1, [r0, #0]
    3da2:	681a      	ldr	r2, [r3, #0]
    3da4:	4291      	cmp	r1, r2
    3da6:	d20a      	bcs.n	3dbe <MillisTimer::addToActiveList()+0x2e>
		// this timer triggers before any on the list
		_next = listActive;
    3da8:	6083      	str	r3, [r0, #8]
		_prev = nullptr;
    3daa:	2200      	movs	r2, #0
    3dac:	60c2      	str	r2, [r0, #12]
		listActive->_prev = this;
    3dae:	60d8      	str	r0, [r3, #12]
		// Decrement the next items wait time be our wait time as to properly handle waits for all other items...
		listActive->_ms -= _ms;	
    3db0:	681a      	ldr	r2, [r3, #0]
    3db2:	6801      	ldr	r1, [r0, #0]
    3db4:	1a52      	subs	r2, r2, r1
    3db6:	601a      	str	r2, [r3, #0]
		listActive = this;
    3db8:	4b12      	ldr	r3, [pc, #72]	; (3e04 <MillisTimer::addToActiveList()+0x74>)
    3dba:	6018      	str	r0, [r3, #0]
    3dbc:	e01e      	b.n	3dfc <MillisTimer::addToActiveList()+0x6c>
	} else {
		// add this timer somewhere after the first already on the list
		MillisTimer *timer = listActive;
		while (timer->_next) {
    3dbe:	689a      	ldr	r2, [r3, #8]
    3dc0:	b1a2      	cbz	r2, 3dec <MillisTimer::addToActiveList()+0x5c>
			_ms -= timer->_ms;
    3dc2:	6802      	ldr	r2, [r0, #0]
    3dc4:	6819      	ldr	r1, [r3, #0]
    3dc6:	1a52      	subs	r2, r2, r1
    3dc8:	6002      	str	r2, [r0, #0]
			timer = timer->_next;
    3dca:	689b      	ldr	r3, [r3, #8]
			if (_ms < timer->_ms) {
    3dcc:	6819      	ldr	r1, [r3, #0]
    3dce:	428a      	cmp	r2, r1
    3dd0:	d2f5      	bcs.n	3dbe <MillisTimer::addToActiveList()+0x2e>
				// found the right place in the middle of list
				_next = timer;
    3dd2:	6083      	str	r3, [r0, #8]
				_prev = timer->_prev;
    3dd4:	68da      	ldr	r2, [r3, #12]
    3dd6:	60c2      	str	r2, [r0, #12]
				timer->_prev = this;
    3dd8:	60d8      	str	r0, [r3, #12]
				_prev->_next = this;
    3dda:	68c2      	ldr	r2, [r0, #12]
    3ddc:	6090      	str	r0, [r2, #8]
				timer->_ms -= _ms;
    3dde:	681a      	ldr	r2, [r3, #0]
    3de0:	6801      	ldr	r1, [r0, #0]
    3de2:	1a52      	subs	r2, r2, r1
    3de4:	601a      	str	r2, [r3, #0]
				_state = TimerActive;
    3de6:	2302      	movs	r3, #2
    3de8:	7503      	strb	r3, [r0, #20]
				return;
    3dea:	4770      	bx	lr
			}
		}
		// add this time at the end of the list
		_ms -= timer->_ms;
    3dec:	6802      	ldr	r2, [r0, #0]
    3dee:	6819      	ldr	r1, [r3, #0]
    3df0:	1a52      	subs	r2, r2, r1
    3df2:	6002      	str	r2, [r0, #0]
		_next = nullptr;
    3df4:	2200      	movs	r2, #0
    3df6:	6082      	str	r2, [r0, #8]
		_prev = timer;
    3df8:	60c3      	str	r3, [r0, #12]
		timer->_next = this;
    3dfa:	6098      	str	r0, [r3, #8]
	}
	_state = TimerActive;
    3dfc:	2302      	movs	r3, #2
    3dfe:	7503      	strb	r3, [r0, #20]
    3e00:	4770      	bx	lr
    3e02:	bf00      	nop
    3e04:	1fff9ba0 	.word	0x1fff9ba0

00003e08 <MillisTimer::runFromTimer()>:
	}
	enableTimerInterrupt(irq);
}

void MillisTimer::runFromTimer()
{
    3e08:	b570      	push	{r4, r5, r6, lr}
	MillisTimer *timer = listActive;
    3e0a:	4b19      	ldr	r3, [pc, #100]	; (3e70 <MillisTimer::runFromTimer()+0x68>)
    3e0c:	681c      	ldr	r4, [r3, #0]
	while (timer) {
    3e0e:	b1ec      	cbz	r4, 3e4c <MillisTimer::runFromTimer()+0x44>
		if (timer->_ms > 0) {
    3e10:	6823      	ldr	r3, [r4, #0]
    3e12:	b923      	cbnz	r3, 3e1e <MillisTimer::runFromTimer()+0x16>
			timer->_ms--;
			break;
		} else {
			MillisTimer *next = timer->_next;
			if (next) next->_prev = nullptr;
    3e14:	2500      	movs	r5, #0
			listActive = next;
    3e16:	4e16      	ldr	r6, [pc, #88]	; (3e70 <MillisTimer::runFromTimer()+0x68>)
    3e18:	e004      	b.n	3e24 <MillisTimer::runFromTimer()+0x1c>

void MillisTimer::runFromTimer()
{
	MillisTimer *timer = listActive;
	while (timer) {
		if (timer->_ms > 0) {
    3e1a:	6823      	ldr	r3, [r4, #0]
    3e1c:	b113      	cbz	r3, 3e24 <MillisTimer::runFromTimer()+0x1c>
			timer->_ms--;
    3e1e:	3b01      	subs	r3, #1
    3e20:	6023      	str	r3, [r4, #0]
			break;
    3e22:	e013      	b.n	3e4c <MillisTimer::runFromTimer()+0x44>
		} else {
			MillisTimer *next = timer->_next;
    3e24:	68a3      	ldr	r3, [r4, #8]
			if (next) next->_prev = nullptr;
    3e26:	b103      	cbz	r3, 3e2a <MillisTimer::runFromTimer()+0x22>
    3e28:	60dd      	str	r5, [r3, #12]
			listActive = next;
    3e2a:	6033      	str	r3, [r6, #0]
			timer->_state = TimerOff;
    3e2c:	7525      	strb	r5, [r4, #20]
			EventResponderRef event = *(timer->_event);
    3e2e:	6920      	ldr	r0, [r4, #16]
			event.triggerEvent(0, timer);
    3e30:	6803      	ldr	r3, [r0, #0]
    3e32:	681b      	ldr	r3, [r3, #0]
    3e34:	4622      	mov	r2, r4
    3e36:	4629      	mov	r1, r5
    3e38:	4798      	blx	r3
			if (timer->_reload) {
    3e3a:	6863      	ldr	r3, [r4, #4]
    3e3c:	b11b      	cbz	r3, 3e46 <MillisTimer::runFromTimer()+0x3e>
				timer->_ms = timer->_reload;
    3e3e:	6023      	str	r3, [r4, #0]
				timer->addToActiveList();
    3e40:	4620      	mov	r0, r4
    3e42:	f7ff ffa5 	bl	3d90 <MillisTimer::addToActiveList()>
			}
			timer = listActive;
    3e46:	6834      	ldr	r4, [r6, #0]
}

void MillisTimer::runFromTimer()
{
	MillisTimer *timer = listActive;
	while (timer) {
    3e48:	2c00      	cmp	r4, #0
    3e4a:	d1e6      	bne.n	3e1a <MillisTimer::runFromTimer()+0x12>
	volatile TimerStateType _state = TimerOff;
	static MillisTimer *listWaiting; // single linked list of waiting to start timers
	static MillisTimer *listActive;  // double linked list of running timers
	static bool disableTimerInterrupt() {
		uint32_t primask;
		__asm__ volatile("mrs %0, primask\n" : "=r" (primask)::);
    3e4c:	f3ef 8310 	mrs	r3, PRIMASK
		__disable_irq();
    3e50:	b672      	cpsid	i
			}
			timer = listActive;
		}
	}
	bool irq = disableTimerInterrupt();
	MillisTimer *waiting = listWaiting;
    3e52:	4a08      	ldr	r2, [pc, #32]	; (3e74 <MillisTimer::runFromTimer()+0x6c>)
    3e54:	6810      	ldr	r0, [r2, #0]
	listWaiting = nullptr; // TODO: use STREX to avoid interrupt disable
    3e56:	2100      	movs	r1, #0
    3e58:	6011      	str	r1, [r2, #0]
		return (primask == 0) ? true : false;
	}
	static void enableTimerInterrupt(bool doit) {
		if (doit) __enable_irq();
    3e5a:	b903      	cbnz	r3, 3e5e <MillisTimer::runFromTimer()+0x56>
    3e5c:	b662      	cpsie	i
	enableTimerInterrupt(irq);
	while (waiting) {
    3e5e:	b128      	cbz	r0, 3e6c <MillisTimer::runFromTimer()+0x64>
		MillisTimer *next = waiting->_next;
    3e60:	6884      	ldr	r4, [r0, #8]
		waiting->addToActiveList();
    3e62:	f7ff ff95 	bl	3d90 <MillisTimer::addToActiveList()>
		waiting = next;
    3e66:	4620      	mov	r0, r4
	}
	bool irq = disableTimerInterrupt();
	MillisTimer *waiting = listWaiting;
	listWaiting = nullptr; // TODO: use STREX to avoid interrupt disable
	enableTimerInterrupt(irq);
	while (waiting) {
    3e68:	2c00      	cmp	r4, #0
    3e6a:	d1f9      	bne.n	3e60 <MillisTimer::runFromTimer()+0x58>
    3e6c:	bd70      	pop	{r4, r5, r6, pc}
    3e6e:	bf00      	nop
    3e70:	1fff9ba0 	.word	0x1fff9ba0
    3e74:	1fff9bb0 	.word	0x1fff9bb0

00003e78 <systick_isr>:
	}
}

extern "C" volatile uint32_t systick_millis_count;
void systick_isr(void)
{
    3e78:	b508      	push	{r3, lr}
	systick_millis_count++;
    3e7a:	4a03      	ldr	r2, [pc, #12]	; (3e88 <systick_isr+0x10>)
    3e7c:	6813      	ldr	r3, [r2, #0]
    3e7e:	3301      	adds	r3, #1
    3e80:	6013      	str	r3, [r2, #0]
	MillisTimer::runFromTimer();
    3e82:	f7ff ffc1 	bl	3e08 <MillisTimer::runFromTimer()>
    3e86:	bd08      	pop	{r3, pc}
    3e88:	1fff9910 	.word	0x1fff9910

00003e8c <serialEvent1()>:
#include "HardwareSerial.h"

HardwareSerial Serial1;

void serialEvent1() __attribute__((weak));
void serialEvent1() {}
    3e8c:	4770      	bx	lr
    3e8e:	bf00      	nop

00003e90 <serialEvent2()>:
#include "HardwareSerial.h"

HardwareSerial2 Serial2;

void serialEvent2() __attribute__((weak));
void serialEvent2() {}
    3e90:	4770      	bx	lr
    3e92:	bf00      	nop

00003e94 <serialEvent3()>:
#include "HardwareSerial.h"

HardwareSerial3 Serial3;

void serialEvent3() __attribute__((weak));
void serialEvent3() {}
    3e94:	4770      	bx	lr
    3e96:	bf00      	nop

00003e98 <__aeabi_drsub>:
    3e98:	f081 4100 	eor.w	r1, r1, #2147483648	; 0x80000000
    3e9c:	e002      	b.n	3ea4 <__adddf3>
    3e9e:	bf00      	nop

00003ea0 <__aeabi_dsub>:
    3ea0:	f083 4300 	eor.w	r3, r3, #2147483648	; 0x80000000

00003ea4 <__adddf3>:
    3ea4:	b530      	push	{r4, r5, lr}
    3ea6:	ea4f 0441 	mov.w	r4, r1, lsl #1
    3eaa:	ea4f 0543 	mov.w	r5, r3, lsl #1
    3eae:	ea94 0f05 	teq	r4, r5
    3eb2:	bf08      	it	eq
    3eb4:	ea90 0f02 	teqeq	r0, r2
    3eb8:	bf1f      	itttt	ne
    3eba:	ea54 0c00 	orrsne.w	ip, r4, r0
    3ebe:	ea55 0c02 	orrsne.w	ip, r5, r2
    3ec2:	ea7f 5c64 	mvnsne.w	ip, r4, asr #21
    3ec6:	ea7f 5c65 	mvnsne.w	ip, r5, asr #21
    3eca:	f000 80e2 	beq.w	4092 <__adddf3+0x1ee>
    3ece:	ea4f 5454 	mov.w	r4, r4, lsr #21
    3ed2:	ebd4 5555 	rsbs	r5, r4, r5, lsr #21
    3ed6:	bfb8      	it	lt
    3ed8:	426d      	neglt	r5, r5
    3eda:	dd0c      	ble.n	3ef6 <__adddf3+0x52>
    3edc:	442c      	add	r4, r5
    3ede:	ea80 0202 	eor.w	r2, r0, r2
    3ee2:	ea81 0303 	eor.w	r3, r1, r3
    3ee6:	ea82 0000 	eor.w	r0, r2, r0
    3eea:	ea83 0101 	eor.w	r1, r3, r1
    3eee:	ea80 0202 	eor.w	r2, r0, r2
    3ef2:	ea81 0303 	eor.w	r3, r1, r3
    3ef6:	2d36      	cmp	r5, #54	; 0x36
    3ef8:	bf88      	it	hi
    3efa:	bd30      	pophi	{r4, r5, pc}
    3efc:	f011 4f00 	tst.w	r1, #2147483648	; 0x80000000
    3f00:	ea4f 3101 	mov.w	r1, r1, lsl #12
    3f04:	f44f 1c80 	mov.w	ip, #1048576	; 0x100000
    3f08:	ea4c 3111 	orr.w	r1, ip, r1, lsr #12
    3f0c:	d002      	beq.n	3f14 <__adddf3+0x70>
    3f0e:	4240      	negs	r0, r0
    3f10:	eb61 0141 	sbc.w	r1, r1, r1, lsl #1
    3f14:	f013 4f00 	tst.w	r3, #2147483648	; 0x80000000
    3f18:	ea4f 3303 	mov.w	r3, r3, lsl #12
    3f1c:	ea4c 3313 	orr.w	r3, ip, r3, lsr #12
    3f20:	d002      	beq.n	3f28 <__adddf3+0x84>
    3f22:	4252      	negs	r2, r2
    3f24:	eb63 0343 	sbc.w	r3, r3, r3, lsl #1
    3f28:	ea94 0f05 	teq	r4, r5
    3f2c:	f000 80a7 	beq.w	407e <__adddf3+0x1da>
    3f30:	f1a4 0401 	sub.w	r4, r4, #1
    3f34:	f1d5 0e20 	rsbs	lr, r5, #32
    3f38:	db0d      	blt.n	3f56 <__adddf3+0xb2>
    3f3a:	fa02 fc0e 	lsl.w	ip, r2, lr
    3f3e:	fa22 f205 	lsr.w	r2, r2, r5
    3f42:	1880      	adds	r0, r0, r2
    3f44:	f141 0100 	adc.w	r1, r1, #0
    3f48:	fa03 f20e 	lsl.w	r2, r3, lr
    3f4c:	1880      	adds	r0, r0, r2
    3f4e:	fa43 f305 	asr.w	r3, r3, r5
    3f52:	4159      	adcs	r1, r3
    3f54:	e00e      	b.n	3f74 <__adddf3+0xd0>
    3f56:	f1a5 0520 	sub.w	r5, r5, #32
    3f5a:	f10e 0e20 	add.w	lr, lr, #32
    3f5e:	2a01      	cmp	r2, #1
    3f60:	fa03 fc0e 	lsl.w	ip, r3, lr
    3f64:	bf28      	it	cs
    3f66:	f04c 0c02 	orrcs.w	ip, ip, #2
    3f6a:	fa43 f305 	asr.w	r3, r3, r5
    3f6e:	18c0      	adds	r0, r0, r3
    3f70:	eb51 71e3 	adcs.w	r1, r1, r3, asr #31
    3f74:	f001 4500 	and.w	r5, r1, #2147483648	; 0x80000000
    3f78:	d507      	bpl.n	3f8a <__adddf3+0xe6>
    3f7a:	f04f 0e00 	mov.w	lr, #0
    3f7e:	f1dc 0c00 	rsbs	ip, ip, #0
    3f82:	eb7e 0000 	sbcs.w	r0, lr, r0
    3f86:	eb6e 0101 	sbc.w	r1, lr, r1
    3f8a:	f5b1 1f80 	cmp.w	r1, #1048576	; 0x100000
    3f8e:	d31b      	bcc.n	3fc8 <__adddf3+0x124>
    3f90:	f5b1 1f00 	cmp.w	r1, #2097152	; 0x200000
    3f94:	d30c      	bcc.n	3fb0 <__adddf3+0x10c>
    3f96:	0849      	lsrs	r1, r1, #1
    3f98:	ea5f 0030 	movs.w	r0, r0, rrx
    3f9c:	ea4f 0c3c 	mov.w	ip, ip, rrx
    3fa0:	f104 0401 	add.w	r4, r4, #1
    3fa4:	ea4f 5244 	mov.w	r2, r4, lsl #21
    3fa8:	f512 0f80 	cmn.w	r2, #4194304	; 0x400000
    3fac:	f080 809a 	bcs.w	40e4 <__adddf3+0x240>
    3fb0:	f1bc 4f00 	cmp.w	ip, #2147483648	; 0x80000000
    3fb4:	bf08      	it	eq
    3fb6:	ea5f 0c50 	movseq.w	ip, r0, lsr #1
    3fba:	f150 0000 	adcs.w	r0, r0, #0
    3fbe:	eb41 5104 	adc.w	r1, r1, r4, lsl #20
    3fc2:	ea41 0105 	orr.w	r1, r1, r5
    3fc6:	bd30      	pop	{r4, r5, pc}
    3fc8:	ea5f 0c4c 	movs.w	ip, ip, lsl #1
    3fcc:	4140      	adcs	r0, r0
    3fce:	eb41 0101 	adc.w	r1, r1, r1
    3fd2:	f411 1f80 	tst.w	r1, #1048576	; 0x100000
    3fd6:	f1a4 0401 	sub.w	r4, r4, #1
    3fda:	d1e9      	bne.n	3fb0 <__adddf3+0x10c>
    3fdc:	f091 0f00 	teq	r1, #0
    3fe0:	bf04      	itt	eq
    3fe2:	4601      	moveq	r1, r0
    3fe4:	2000      	moveq	r0, #0
    3fe6:	fab1 f381 	clz	r3, r1
    3fea:	bf08      	it	eq
    3fec:	3320      	addeq	r3, #32
    3fee:	f1a3 030b 	sub.w	r3, r3, #11
    3ff2:	f1b3 0220 	subs.w	r2, r3, #32
    3ff6:	da0c      	bge.n	4012 <__adddf3+0x16e>
    3ff8:	320c      	adds	r2, #12
    3ffa:	dd08      	ble.n	400e <__adddf3+0x16a>
    3ffc:	f102 0c14 	add.w	ip, r2, #20
    4000:	f1c2 020c 	rsb	r2, r2, #12
    4004:	fa01 f00c 	lsl.w	r0, r1, ip
    4008:	fa21 f102 	lsr.w	r1, r1, r2
    400c:	e00c      	b.n	4028 <__adddf3+0x184>
    400e:	f102 0214 	add.w	r2, r2, #20
    4012:	bfd8      	it	le
    4014:	f1c2 0c20 	rsble	ip, r2, #32
    4018:	fa01 f102 	lsl.w	r1, r1, r2
    401c:	fa20 fc0c 	lsr.w	ip, r0, ip
    4020:	bfdc      	itt	le
    4022:	ea41 010c 	orrle.w	r1, r1, ip
    4026:	4090      	lslle	r0, r2
    4028:	1ae4      	subs	r4, r4, r3
    402a:	bfa2      	ittt	ge
    402c:	eb01 5104 	addge.w	r1, r1, r4, lsl #20
    4030:	4329      	orrge	r1, r5
    4032:	bd30      	popge	{r4, r5, pc}
    4034:	ea6f 0404 	mvn.w	r4, r4
    4038:	3c1f      	subs	r4, #31
    403a:	da1c      	bge.n	4076 <__adddf3+0x1d2>
    403c:	340c      	adds	r4, #12
    403e:	dc0e      	bgt.n	405e <__adddf3+0x1ba>
    4040:	f104 0414 	add.w	r4, r4, #20
    4044:	f1c4 0220 	rsb	r2, r4, #32
    4048:	fa20 f004 	lsr.w	r0, r0, r4
    404c:	fa01 f302 	lsl.w	r3, r1, r2
    4050:	ea40 0003 	orr.w	r0, r0, r3
    4054:	fa21 f304 	lsr.w	r3, r1, r4
    4058:	ea45 0103 	orr.w	r1, r5, r3
    405c:	bd30      	pop	{r4, r5, pc}
    405e:	f1c4 040c 	rsb	r4, r4, #12
    4062:	f1c4 0220 	rsb	r2, r4, #32
    4066:	fa20 f002 	lsr.w	r0, r0, r2
    406a:	fa01 f304 	lsl.w	r3, r1, r4
    406e:	ea40 0003 	orr.w	r0, r0, r3
    4072:	4629      	mov	r1, r5
    4074:	bd30      	pop	{r4, r5, pc}
    4076:	fa21 f004 	lsr.w	r0, r1, r4
    407a:	4629      	mov	r1, r5
    407c:	bd30      	pop	{r4, r5, pc}
    407e:	f094 0f00 	teq	r4, #0
    4082:	f483 1380 	eor.w	r3, r3, #1048576	; 0x100000
    4086:	bf06      	itte	eq
    4088:	f481 1180 	eoreq.w	r1, r1, #1048576	; 0x100000
    408c:	3401      	addeq	r4, #1
    408e:	3d01      	subne	r5, #1
    4090:	e74e      	b.n	3f30 <__adddf3+0x8c>
    4092:	ea7f 5c64 	mvns.w	ip, r4, asr #21
    4096:	bf18      	it	ne
    4098:	ea7f 5c65 	mvnsne.w	ip, r5, asr #21
    409c:	d029      	beq.n	40f2 <__adddf3+0x24e>
    409e:	ea94 0f05 	teq	r4, r5
    40a2:	bf08      	it	eq
    40a4:	ea90 0f02 	teqeq	r0, r2
    40a8:	d005      	beq.n	40b6 <__adddf3+0x212>
    40aa:	ea54 0c00 	orrs.w	ip, r4, r0
    40ae:	bf04      	itt	eq
    40b0:	4619      	moveq	r1, r3
    40b2:	4610      	moveq	r0, r2
    40b4:	bd30      	pop	{r4, r5, pc}
    40b6:	ea91 0f03 	teq	r1, r3
    40ba:	bf1e      	ittt	ne
    40bc:	2100      	movne	r1, #0
    40be:	2000      	movne	r0, #0
    40c0:	bd30      	popne	{r4, r5, pc}
    40c2:	ea5f 5c54 	movs.w	ip, r4, lsr #21
    40c6:	d105      	bne.n	40d4 <__adddf3+0x230>
    40c8:	0040      	lsls	r0, r0, #1
    40ca:	4149      	adcs	r1, r1
    40cc:	bf28      	it	cs
    40ce:	f041 4100 	orrcs.w	r1, r1, #2147483648	; 0x80000000
    40d2:	bd30      	pop	{r4, r5, pc}
    40d4:	f514 0480 	adds.w	r4, r4, #4194304	; 0x400000
    40d8:	bf3c      	itt	cc
    40da:	f501 1180 	addcc.w	r1, r1, #1048576	; 0x100000
    40de:	bd30      	popcc	{r4, r5, pc}
    40e0:	f001 4500 	and.w	r5, r1, #2147483648	; 0x80000000
    40e4:	f045 41fe 	orr.w	r1, r5, #2130706432	; 0x7f000000
    40e8:	f441 0170 	orr.w	r1, r1, #15728640	; 0xf00000
    40ec:	f04f 0000 	mov.w	r0, #0
    40f0:	bd30      	pop	{r4, r5, pc}
    40f2:	ea7f 5c64 	mvns.w	ip, r4, asr #21
    40f6:	bf1a      	itte	ne
    40f8:	4619      	movne	r1, r3
    40fa:	4610      	movne	r0, r2
    40fc:	ea7f 5c65 	mvnseq.w	ip, r5, asr #21
    4100:	bf1c      	itt	ne
    4102:	460b      	movne	r3, r1
    4104:	4602      	movne	r2, r0
    4106:	ea50 3401 	orrs.w	r4, r0, r1, lsl #12
    410a:	bf06      	itte	eq
    410c:	ea52 3503 	orrseq.w	r5, r2, r3, lsl #12
    4110:	ea91 0f03 	teqeq	r1, r3
    4114:	f441 2100 	orrne.w	r1, r1, #524288	; 0x80000
    4118:	bd30      	pop	{r4, r5, pc}
    411a:	bf00      	nop

0000411c <__aeabi_ui2d>:
    411c:	f090 0f00 	teq	r0, #0
    4120:	bf04      	itt	eq
    4122:	2100      	moveq	r1, #0
    4124:	4770      	bxeq	lr
    4126:	b530      	push	{r4, r5, lr}
    4128:	f44f 6480 	mov.w	r4, #1024	; 0x400
    412c:	f104 0432 	add.w	r4, r4, #50	; 0x32
    4130:	f04f 0500 	mov.w	r5, #0
    4134:	f04f 0100 	mov.w	r1, #0
    4138:	e750      	b.n	3fdc <__adddf3+0x138>
    413a:	bf00      	nop

0000413c <__aeabi_i2d>:
    413c:	f090 0f00 	teq	r0, #0
    4140:	bf04      	itt	eq
    4142:	2100      	moveq	r1, #0
    4144:	4770      	bxeq	lr
    4146:	b530      	push	{r4, r5, lr}
    4148:	f44f 6480 	mov.w	r4, #1024	; 0x400
    414c:	f104 0432 	add.w	r4, r4, #50	; 0x32
    4150:	f010 4500 	ands.w	r5, r0, #2147483648	; 0x80000000
    4154:	bf48      	it	mi
    4156:	4240      	negmi	r0, r0
    4158:	f04f 0100 	mov.w	r1, #0
    415c:	e73e      	b.n	3fdc <__adddf3+0x138>
    415e:	bf00      	nop

00004160 <__aeabi_f2d>:
    4160:	0042      	lsls	r2, r0, #1
    4162:	ea4f 01e2 	mov.w	r1, r2, asr #3
    4166:	ea4f 0131 	mov.w	r1, r1, rrx
    416a:	ea4f 7002 	mov.w	r0, r2, lsl #28
    416e:	bf1f      	itttt	ne
    4170:	f012 437f 	andsne.w	r3, r2, #4278190080	; 0xff000000
    4174:	f093 4f7f 	teqne	r3, #4278190080	; 0xff000000
    4178:	f081 5160 	eorne.w	r1, r1, #939524096	; 0x38000000
    417c:	4770      	bxne	lr
    417e:	f092 0f00 	teq	r2, #0
    4182:	bf14      	ite	ne
    4184:	f093 4f7f 	teqne	r3, #4278190080	; 0xff000000
    4188:	4770      	bxeq	lr
    418a:	b530      	push	{r4, r5, lr}
    418c:	f44f 7460 	mov.w	r4, #896	; 0x380
    4190:	f001 4500 	and.w	r5, r1, #2147483648	; 0x80000000
    4194:	f021 4100 	bic.w	r1, r1, #2147483648	; 0x80000000
    4198:	e720      	b.n	3fdc <__adddf3+0x138>
    419a:	bf00      	nop

0000419c <__aeabi_ul2d>:
    419c:	ea50 0201 	orrs.w	r2, r0, r1
    41a0:	bf08      	it	eq
    41a2:	4770      	bxeq	lr
    41a4:	b530      	push	{r4, r5, lr}
    41a6:	f04f 0500 	mov.w	r5, #0
    41aa:	e00a      	b.n	41c2 <__aeabi_l2d+0x16>

000041ac <__aeabi_l2d>:
    41ac:	ea50 0201 	orrs.w	r2, r0, r1
    41b0:	bf08      	it	eq
    41b2:	4770      	bxeq	lr
    41b4:	b530      	push	{r4, r5, lr}
    41b6:	f011 4500 	ands.w	r5, r1, #2147483648	; 0x80000000
    41ba:	d502      	bpl.n	41c2 <__aeabi_l2d+0x16>
    41bc:	4240      	negs	r0, r0
    41be:	eb61 0141 	sbc.w	r1, r1, r1, lsl #1
    41c2:	f44f 6480 	mov.w	r4, #1024	; 0x400
    41c6:	f104 0432 	add.w	r4, r4, #50	; 0x32
    41ca:	ea5f 5c91 	movs.w	ip, r1, lsr #22
    41ce:	f43f aedc 	beq.w	3f8a <__adddf3+0xe6>
    41d2:	f04f 0203 	mov.w	r2, #3
    41d6:	ea5f 0cdc 	movs.w	ip, ip, lsr #3
    41da:	bf18      	it	ne
    41dc:	3203      	addne	r2, #3
    41de:	ea5f 0cdc 	movs.w	ip, ip, lsr #3
    41e2:	bf18      	it	ne
    41e4:	3203      	addne	r2, #3
    41e6:	eb02 02dc 	add.w	r2, r2, ip, lsr #3
    41ea:	f1c2 0320 	rsb	r3, r2, #32
    41ee:	fa00 fc03 	lsl.w	ip, r0, r3
    41f2:	fa20 f002 	lsr.w	r0, r0, r2
    41f6:	fa01 fe03 	lsl.w	lr, r1, r3
    41fa:	ea40 000e 	orr.w	r0, r0, lr
    41fe:	fa21 f102 	lsr.w	r1, r1, r2
    4202:	4414      	add	r4, r2
    4204:	e6c1      	b.n	3f8a <__adddf3+0xe6>
    4206:	bf00      	nop

00004208 <__aeabi_dmul>:
    4208:	b570      	push	{r4, r5, r6, lr}
    420a:	f04f 0cff 	mov.w	ip, #255	; 0xff
    420e:	f44c 6ce0 	orr.w	ip, ip, #1792	; 0x700
    4212:	ea1c 5411 	ands.w	r4, ip, r1, lsr #20
    4216:	bf1d      	ittte	ne
    4218:	ea1c 5513 	andsne.w	r5, ip, r3, lsr #20
    421c:	ea94 0f0c 	teqne	r4, ip
    4220:	ea95 0f0c 	teqne	r5, ip
    4224:	f000 f8de 	bleq	43e4 <__aeabi_dmul+0x1dc>
    4228:	442c      	add	r4, r5
    422a:	ea81 0603 	eor.w	r6, r1, r3
    422e:	ea21 514c 	bic.w	r1, r1, ip, lsl #21
    4232:	ea23 534c 	bic.w	r3, r3, ip, lsl #21
    4236:	ea50 3501 	orrs.w	r5, r0, r1, lsl #12
    423a:	bf18      	it	ne
    423c:	ea52 3503 	orrsne.w	r5, r2, r3, lsl #12
    4240:	f441 1180 	orr.w	r1, r1, #1048576	; 0x100000
    4244:	f443 1380 	orr.w	r3, r3, #1048576	; 0x100000
    4248:	d038      	beq.n	42bc <__aeabi_dmul+0xb4>
    424a:	fba0 ce02 	umull	ip, lr, r0, r2
    424e:	f04f 0500 	mov.w	r5, #0
    4252:	fbe1 e502 	umlal	lr, r5, r1, r2
    4256:	f006 4200 	and.w	r2, r6, #2147483648	; 0x80000000
    425a:	fbe0 e503 	umlal	lr, r5, r0, r3
    425e:	f04f 0600 	mov.w	r6, #0
    4262:	fbe1 5603 	umlal	r5, r6, r1, r3
    4266:	f09c 0f00 	teq	ip, #0
    426a:	bf18      	it	ne
    426c:	f04e 0e01 	orrne.w	lr, lr, #1
    4270:	f1a4 04ff 	sub.w	r4, r4, #255	; 0xff
    4274:	f5b6 7f00 	cmp.w	r6, #512	; 0x200
    4278:	f564 7440 	sbc.w	r4, r4, #768	; 0x300
    427c:	d204      	bcs.n	4288 <__aeabi_dmul+0x80>
    427e:	ea5f 0e4e 	movs.w	lr, lr, lsl #1
    4282:	416d      	adcs	r5, r5
    4284:	eb46 0606 	adc.w	r6, r6, r6
    4288:	ea42 21c6 	orr.w	r1, r2, r6, lsl #11
    428c:	ea41 5155 	orr.w	r1, r1, r5, lsr #21
    4290:	ea4f 20c5 	mov.w	r0, r5, lsl #11
    4294:	ea40 505e 	orr.w	r0, r0, lr, lsr #21
    4298:	ea4f 2ece 	mov.w	lr, lr, lsl #11
    429c:	f1b4 0cfd 	subs.w	ip, r4, #253	; 0xfd
    42a0:	bf88      	it	hi
    42a2:	f5bc 6fe0 	cmphi.w	ip, #1792	; 0x700
    42a6:	d81e      	bhi.n	42e6 <__aeabi_dmul+0xde>
    42a8:	f1be 4f00 	cmp.w	lr, #2147483648	; 0x80000000
    42ac:	bf08      	it	eq
    42ae:	ea5f 0e50 	movseq.w	lr, r0, lsr #1
    42b2:	f150 0000 	adcs.w	r0, r0, #0
    42b6:	eb41 5104 	adc.w	r1, r1, r4, lsl #20
    42ba:	bd70      	pop	{r4, r5, r6, pc}
    42bc:	f006 4600 	and.w	r6, r6, #2147483648	; 0x80000000
    42c0:	ea46 0101 	orr.w	r1, r6, r1
    42c4:	ea40 0002 	orr.w	r0, r0, r2
    42c8:	ea81 0103 	eor.w	r1, r1, r3
    42cc:	ebb4 045c 	subs.w	r4, r4, ip, lsr #1
    42d0:	bfc2      	ittt	gt
    42d2:	ebd4 050c 	rsbsgt	r5, r4, ip
    42d6:	ea41 5104 	orrgt.w	r1, r1, r4, lsl #20
    42da:	bd70      	popgt	{r4, r5, r6, pc}
    42dc:	f441 1180 	orr.w	r1, r1, #1048576	; 0x100000
    42e0:	f04f 0e00 	mov.w	lr, #0
    42e4:	3c01      	subs	r4, #1
    42e6:	f300 80ab 	bgt.w	4440 <__aeabi_dmul+0x238>
    42ea:	f114 0f36 	cmn.w	r4, #54	; 0x36
    42ee:	bfde      	ittt	le
    42f0:	2000      	movle	r0, #0
    42f2:	f001 4100 	andle.w	r1, r1, #2147483648	; 0x80000000
    42f6:	bd70      	pople	{r4, r5, r6, pc}
    42f8:	f1c4 0400 	rsb	r4, r4, #0
    42fc:	3c20      	subs	r4, #32
    42fe:	da35      	bge.n	436c <__aeabi_dmul+0x164>
    4300:	340c      	adds	r4, #12
    4302:	dc1b      	bgt.n	433c <__aeabi_dmul+0x134>
    4304:	f104 0414 	add.w	r4, r4, #20
    4308:	f1c4 0520 	rsb	r5, r4, #32
    430c:	fa00 f305 	lsl.w	r3, r0, r5
    4310:	fa20 f004 	lsr.w	r0, r0, r4
    4314:	fa01 f205 	lsl.w	r2, r1, r5
    4318:	ea40 0002 	orr.w	r0, r0, r2
    431c:	f001 4200 	and.w	r2, r1, #2147483648	; 0x80000000
    4320:	f021 4100 	bic.w	r1, r1, #2147483648	; 0x80000000
    4324:	eb10 70d3 	adds.w	r0, r0, r3, lsr #31
    4328:	fa21 f604 	lsr.w	r6, r1, r4
    432c:	eb42 0106 	adc.w	r1, r2, r6
    4330:	ea5e 0e43 	orrs.w	lr, lr, r3, lsl #1
    4334:	bf08      	it	eq
    4336:	ea20 70d3 	biceq.w	r0, r0, r3, lsr #31
    433a:	bd70      	pop	{r4, r5, r6, pc}
    433c:	f1c4 040c 	rsb	r4, r4, #12
    4340:	f1c4 0520 	rsb	r5, r4, #32
    4344:	fa00 f304 	lsl.w	r3, r0, r4
    4348:	fa20 f005 	lsr.w	r0, r0, r5
    434c:	fa01 f204 	lsl.w	r2, r1, r4
    4350:	ea40 0002 	orr.w	r0, r0, r2
    4354:	f001 4100 	and.w	r1, r1, #2147483648	; 0x80000000
    4358:	eb10 70d3 	adds.w	r0, r0, r3, lsr #31
    435c:	f141 0100 	adc.w	r1, r1, #0
    4360:	ea5e 0e43 	orrs.w	lr, lr, r3, lsl #1
    4364:	bf08      	it	eq
    4366:	ea20 70d3 	biceq.w	r0, r0, r3, lsr #31
    436a:	bd70      	pop	{r4, r5, r6, pc}
    436c:	f1c4 0520 	rsb	r5, r4, #32
    4370:	fa00 f205 	lsl.w	r2, r0, r5
    4374:	ea4e 0e02 	orr.w	lr, lr, r2
    4378:	fa20 f304 	lsr.w	r3, r0, r4
    437c:	fa01 f205 	lsl.w	r2, r1, r5
    4380:	ea43 0302 	orr.w	r3, r3, r2
    4384:	fa21 f004 	lsr.w	r0, r1, r4
    4388:	f001 4100 	and.w	r1, r1, #2147483648	; 0x80000000
    438c:	fa21 f204 	lsr.w	r2, r1, r4
    4390:	ea20 0002 	bic.w	r0, r0, r2
    4394:	eb00 70d3 	add.w	r0, r0, r3, lsr #31
    4398:	ea5e 0e43 	orrs.w	lr, lr, r3, lsl #1
    439c:	bf08      	it	eq
    439e:	ea20 70d3 	biceq.w	r0, r0, r3, lsr #31
    43a2:	bd70      	pop	{r4, r5, r6, pc}
    43a4:	f094 0f00 	teq	r4, #0
    43a8:	d10f      	bne.n	43ca <__aeabi_dmul+0x1c2>
    43aa:	f001 4600 	and.w	r6, r1, #2147483648	; 0x80000000
    43ae:	0040      	lsls	r0, r0, #1
    43b0:	eb41 0101 	adc.w	r1, r1, r1
    43b4:	f411 1f80 	tst.w	r1, #1048576	; 0x100000
    43b8:	bf08      	it	eq
    43ba:	3c01      	subeq	r4, #1
    43bc:	d0f7      	beq.n	43ae <__aeabi_dmul+0x1a6>
    43be:	ea41 0106 	orr.w	r1, r1, r6
    43c2:	f095 0f00 	teq	r5, #0
    43c6:	bf18      	it	ne
    43c8:	4770      	bxne	lr
    43ca:	f003 4600 	and.w	r6, r3, #2147483648	; 0x80000000
    43ce:	0052      	lsls	r2, r2, #1
    43d0:	eb43 0303 	adc.w	r3, r3, r3
    43d4:	f413 1f80 	tst.w	r3, #1048576	; 0x100000
    43d8:	bf08      	it	eq
    43da:	3d01      	subeq	r5, #1
    43dc:	d0f7      	beq.n	43ce <__aeabi_dmul+0x1c6>
    43de:	ea43 0306 	orr.w	r3, r3, r6
    43e2:	4770      	bx	lr
    43e4:	ea94 0f0c 	teq	r4, ip
    43e8:	ea0c 5513 	and.w	r5, ip, r3, lsr #20
    43ec:	bf18      	it	ne
    43ee:	ea95 0f0c 	teqne	r5, ip
    43f2:	d00c      	beq.n	440e <__aeabi_dmul+0x206>
    43f4:	ea50 0641 	orrs.w	r6, r0, r1, lsl #1
    43f8:	bf18      	it	ne
    43fa:	ea52 0643 	orrsne.w	r6, r2, r3, lsl #1
    43fe:	d1d1      	bne.n	43a4 <__aeabi_dmul+0x19c>
    4400:	ea81 0103 	eor.w	r1, r1, r3
    4404:	f001 4100 	and.w	r1, r1, #2147483648	; 0x80000000
    4408:	f04f 0000 	mov.w	r0, #0
    440c:	bd70      	pop	{r4, r5, r6, pc}
    440e:	ea50 0641 	orrs.w	r6, r0, r1, lsl #1
    4412:	bf06      	itte	eq
    4414:	4610      	moveq	r0, r2
    4416:	4619      	moveq	r1, r3
    4418:	ea52 0643 	orrsne.w	r6, r2, r3, lsl #1
    441c:	d019      	beq.n	4452 <__aeabi_dmul+0x24a>
    441e:	ea94 0f0c 	teq	r4, ip
    4422:	d102      	bne.n	442a <__aeabi_dmul+0x222>
    4424:	ea50 3601 	orrs.w	r6, r0, r1, lsl #12
    4428:	d113      	bne.n	4452 <__aeabi_dmul+0x24a>
    442a:	ea95 0f0c 	teq	r5, ip
    442e:	d105      	bne.n	443c <__aeabi_dmul+0x234>
    4430:	ea52 3603 	orrs.w	r6, r2, r3, lsl #12
    4434:	bf1c      	itt	ne
    4436:	4610      	movne	r0, r2
    4438:	4619      	movne	r1, r3
    443a:	d10a      	bne.n	4452 <__aeabi_dmul+0x24a>
    443c:	ea81 0103 	eor.w	r1, r1, r3
    4440:	f001 4100 	and.w	r1, r1, #2147483648	; 0x80000000
    4444:	f041 41fe 	orr.w	r1, r1, #2130706432	; 0x7f000000
    4448:	f441 0170 	orr.w	r1, r1, #15728640	; 0xf00000
    444c:	f04f 0000 	mov.w	r0, #0
    4450:	bd70      	pop	{r4, r5, r6, pc}
    4452:	f041 41fe 	orr.w	r1, r1, #2130706432	; 0x7f000000
    4456:	f441 0178 	orr.w	r1, r1, #16252928	; 0xf80000
    445a:	bd70      	pop	{r4, r5, r6, pc}

0000445c <__aeabi_ddiv>:
    445c:	b570      	push	{r4, r5, r6, lr}
    445e:	f04f 0cff 	mov.w	ip, #255	; 0xff
    4462:	f44c 6ce0 	orr.w	ip, ip, #1792	; 0x700
    4466:	ea1c 5411 	ands.w	r4, ip, r1, lsr #20
    446a:	bf1d      	ittte	ne
    446c:	ea1c 5513 	andsne.w	r5, ip, r3, lsr #20
    4470:	ea94 0f0c 	teqne	r4, ip
    4474:	ea95 0f0c 	teqne	r5, ip
    4478:	f000 f8a7 	bleq	45ca <__aeabi_ddiv+0x16e>
    447c:	eba4 0405 	sub.w	r4, r4, r5
    4480:	ea81 0e03 	eor.w	lr, r1, r3
    4484:	ea52 3503 	orrs.w	r5, r2, r3, lsl #12
    4488:	ea4f 3101 	mov.w	r1, r1, lsl #12
    448c:	f000 8088 	beq.w	45a0 <__aeabi_ddiv+0x144>
    4490:	ea4f 3303 	mov.w	r3, r3, lsl #12
    4494:	f04f 5580 	mov.w	r5, #268435456	; 0x10000000
    4498:	ea45 1313 	orr.w	r3, r5, r3, lsr #4
    449c:	ea43 6312 	orr.w	r3, r3, r2, lsr #24
    44a0:	ea4f 2202 	mov.w	r2, r2, lsl #8
    44a4:	ea45 1511 	orr.w	r5, r5, r1, lsr #4
    44a8:	ea45 6510 	orr.w	r5, r5, r0, lsr #24
    44ac:	ea4f 2600 	mov.w	r6, r0, lsl #8
    44b0:	f00e 4100 	and.w	r1, lr, #2147483648	; 0x80000000
    44b4:	429d      	cmp	r5, r3
    44b6:	bf08      	it	eq
    44b8:	4296      	cmpeq	r6, r2
    44ba:	f144 04fd 	adc.w	r4, r4, #253	; 0xfd
    44be:	f504 7440 	add.w	r4, r4, #768	; 0x300
    44c2:	d202      	bcs.n	44ca <__aeabi_ddiv+0x6e>
    44c4:	085b      	lsrs	r3, r3, #1
    44c6:	ea4f 0232 	mov.w	r2, r2, rrx
    44ca:	1ab6      	subs	r6, r6, r2
    44cc:	eb65 0503 	sbc.w	r5, r5, r3
    44d0:	085b      	lsrs	r3, r3, #1
    44d2:	ea4f 0232 	mov.w	r2, r2, rrx
    44d6:	f44f 1080 	mov.w	r0, #1048576	; 0x100000
    44da:	f44f 2c00 	mov.w	ip, #524288	; 0x80000
    44de:	ebb6 0e02 	subs.w	lr, r6, r2
    44e2:	eb75 0e03 	sbcs.w	lr, r5, r3
    44e6:	bf22      	ittt	cs
    44e8:	1ab6      	subcs	r6, r6, r2
    44ea:	4675      	movcs	r5, lr
    44ec:	ea40 000c 	orrcs.w	r0, r0, ip
    44f0:	085b      	lsrs	r3, r3, #1
    44f2:	ea4f 0232 	mov.w	r2, r2, rrx
    44f6:	ebb6 0e02 	subs.w	lr, r6, r2
    44fa:	eb75 0e03 	sbcs.w	lr, r5, r3
    44fe:	bf22      	ittt	cs
    4500:	1ab6      	subcs	r6, r6, r2
    4502:	4675      	movcs	r5, lr
    4504:	ea40 005c 	orrcs.w	r0, r0, ip, lsr #1
    4508:	085b      	lsrs	r3, r3, #1
    450a:	ea4f 0232 	mov.w	r2, r2, rrx
    450e:	ebb6 0e02 	subs.w	lr, r6, r2
    4512:	eb75 0e03 	sbcs.w	lr, r5, r3
    4516:	bf22      	ittt	cs
    4518:	1ab6      	subcs	r6, r6, r2
    451a:	4675      	movcs	r5, lr
    451c:	ea40 009c 	orrcs.w	r0, r0, ip, lsr #2
    4520:	085b      	lsrs	r3, r3, #1
    4522:	ea4f 0232 	mov.w	r2, r2, rrx
    4526:	ebb6 0e02 	subs.w	lr, r6, r2
    452a:	eb75 0e03 	sbcs.w	lr, r5, r3
    452e:	bf22      	ittt	cs
    4530:	1ab6      	subcs	r6, r6, r2
    4532:	4675      	movcs	r5, lr
    4534:	ea40 00dc 	orrcs.w	r0, r0, ip, lsr #3
    4538:	ea55 0e06 	orrs.w	lr, r5, r6
    453c:	d018      	beq.n	4570 <__aeabi_ddiv+0x114>
    453e:	ea4f 1505 	mov.w	r5, r5, lsl #4
    4542:	ea45 7516 	orr.w	r5, r5, r6, lsr #28
    4546:	ea4f 1606 	mov.w	r6, r6, lsl #4
    454a:	ea4f 03c3 	mov.w	r3, r3, lsl #3
    454e:	ea43 7352 	orr.w	r3, r3, r2, lsr #29
    4552:	ea4f 02c2 	mov.w	r2, r2, lsl #3
    4556:	ea5f 1c1c 	movs.w	ip, ip, lsr #4
    455a:	d1c0      	bne.n	44de <__aeabi_ddiv+0x82>
    455c:	f411 1f80 	tst.w	r1, #1048576	; 0x100000
    4560:	d10b      	bne.n	457a <__aeabi_ddiv+0x11e>
    4562:	ea41 0100 	orr.w	r1, r1, r0
    4566:	f04f 0000 	mov.w	r0, #0
    456a:	f04f 4c00 	mov.w	ip, #2147483648	; 0x80000000
    456e:	e7b6      	b.n	44de <__aeabi_ddiv+0x82>
    4570:	f411 1f80 	tst.w	r1, #1048576	; 0x100000
    4574:	bf04      	itt	eq
    4576:	4301      	orreq	r1, r0
    4578:	2000      	moveq	r0, #0
    457a:	f1b4 0cfd 	subs.w	ip, r4, #253	; 0xfd
    457e:	bf88      	it	hi
    4580:	f5bc 6fe0 	cmphi.w	ip, #1792	; 0x700
    4584:	f63f aeaf 	bhi.w	42e6 <__aeabi_dmul+0xde>
    4588:	ebb5 0c03 	subs.w	ip, r5, r3
    458c:	bf04      	itt	eq
    458e:	ebb6 0c02 	subseq.w	ip, r6, r2
    4592:	ea5f 0c50 	movseq.w	ip, r0, lsr #1
    4596:	f150 0000 	adcs.w	r0, r0, #0
    459a:	eb41 5104 	adc.w	r1, r1, r4, lsl #20
    459e:	bd70      	pop	{r4, r5, r6, pc}
    45a0:	f00e 4e00 	and.w	lr, lr, #2147483648	; 0x80000000
    45a4:	ea4e 3111 	orr.w	r1, lr, r1, lsr #12
    45a8:	eb14 045c 	adds.w	r4, r4, ip, lsr #1
    45ac:	bfc2      	ittt	gt
    45ae:	ebd4 050c 	rsbsgt	r5, r4, ip
    45b2:	ea41 5104 	orrgt.w	r1, r1, r4, lsl #20
    45b6:	bd70      	popgt	{r4, r5, r6, pc}
    45b8:	f441 1180 	orr.w	r1, r1, #1048576	; 0x100000
    45bc:	f04f 0e00 	mov.w	lr, #0
    45c0:	3c01      	subs	r4, #1
    45c2:	e690      	b.n	42e6 <__aeabi_dmul+0xde>
    45c4:	ea45 0e06 	orr.w	lr, r5, r6
    45c8:	e68d      	b.n	42e6 <__aeabi_dmul+0xde>
    45ca:	ea0c 5513 	and.w	r5, ip, r3, lsr #20
    45ce:	ea94 0f0c 	teq	r4, ip
    45d2:	bf08      	it	eq
    45d4:	ea95 0f0c 	teqeq	r5, ip
    45d8:	f43f af3b 	beq.w	4452 <__aeabi_dmul+0x24a>
    45dc:	ea94 0f0c 	teq	r4, ip
    45e0:	d10a      	bne.n	45f8 <__aeabi_ddiv+0x19c>
    45e2:	ea50 3401 	orrs.w	r4, r0, r1, lsl #12
    45e6:	f47f af34 	bne.w	4452 <__aeabi_dmul+0x24a>
    45ea:	ea95 0f0c 	teq	r5, ip
    45ee:	f47f af25 	bne.w	443c <__aeabi_dmul+0x234>
    45f2:	4610      	mov	r0, r2
    45f4:	4619      	mov	r1, r3
    45f6:	e72c      	b.n	4452 <__aeabi_dmul+0x24a>
    45f8:	ea95 0f0c 	teq	r5, ip
    45fc:	d106      	bne.n	460c <__aeabi_ddiv+0x1b0>
    45fe:	ea52 3503 	orrs.w	r5, r2, r3, lsl #12
    4602:	f43f aefd 	beq.w	4400 <__aeabi_dmul+0x1f8>
    4606:	4610      	mov	r0, r2
    4608:	4619      	mov	r1, r3
    460a:	e722      	b.n	4452 <__aeabi_dmul+0x24a>
    460c:	ea50 0641 	orrs.w	r6, r0, r1, lsl #1
    4610:	bf18      	it	ne
    4612:	ea52 0643 	orrsne.w	r6, r2, r3, lsl #1
    4616:	f47f aec5 	bne.w	43a4 <__aeabi_dmul+0x19c>
    461a:	ea50 0441 	orrs.w	r4, r0, r1, lsl #1
    461e:	f47f af0d 	bne.w	443c <__aeabi_dmul+0x234>
    4622:	ea52 0543 	orrs.w	r5, r2, r3, lsl #1
    4626:	f47f aeeb 	bne.w	4400 <__aeabi_dmul+0x1f8>
    462a:	e712      	b.n	4452 <__aeabi_dmul+0x24a>

0000462c <__gedf2>:
    462c:	f04f 3cff 	mov.w	ip, #4294967295	; 0xffffffff
    4630:	e006      	b.n	4640 <__cmpdf2+0x4>
    4632:	bf00      	nop

00004634 <__ledf2>:
    4634:	f04f 0c01 	mov.w	ip, #1
    4638:	e002      	b.n	4640 <__cmpdf2+0x4>
    463a:	bf00      	nop

0000463c <__cmpdf2>:
    463c:	f04f 0c01 	mov.w	ip, #1
    4640:	f84d cd04 	str.w	ip, [sp, #-4]!
    4644:	ea4f 0c41 	mov.w	ip, r1, lsl #1
    4648:	ea7f 5c6c 	mvns.w	ip, ip, asr #21
    464c:	ea4f 0c43 	mov.w	ip, r3, lsl #1
    4650:	bf18      	it	ne
    4652:	ea7f 5c6c 	mvnsne.w	ip, ip, asr #21
    4656:	d01b      	beq.n	4690 <__cmpdf2+0x54>
    4658:	b001      	add	sp, #4
    465a:	ea50 0c41 	orrs.w	ip, r0, r1, lsl #1
    465e:	bf0c      	ite	eq
    4660:	ea52 0c43 	orrseq.w	ip, r2, r3, lsl #1
    4664:	ea91 0f03 	teqne	r1, r3
    4668:	bf02      	ittt	eq
    466a:	ea90 0f02 	teqeq	r0, r2
    466e:	2000      	moveq	r0, #0
    4670:	4770      	bxeq	lr
    4672:	f110 0f00 	cmn.w	r0, #0
    4676:	ea91 0f03 	teq	r1, r3
    467a:	bf58      	it	pl
    467c:	4299      	cmppl	r1, r3
    467e:	bf08      	it	eq
    4680:	4290      	cmpeq	r0, r2
    4682:	bf2c      	ite	cs
    4684:	17d8      	asrcs	r0, r3, #31
    4686:	ea6f 70e3 	mvncc.w	r0, r3, asr #31
    468a:	f040 0001 	orr.w	r0, r0, #1
    468e:	4770      	bx	lr
    4690:	ea4f 0c41 	mov.w	ip, r1, lsl #1
    4694:	ea7f 5c6c 	mvns.w	ip, ip, asr #21
    4698:	d102      	bne.n	46a0 <__cmpdf2+0x64>
    469a:	ea50 3c01 	orrs.w	ip, r0, r1, lsl #12
    469e:	d107      	bne.n	46b0 <__cmpdf2+0x74>
    46a0:	ea4f 0c43 	mov.w	ip, r3, lsl #1
    46a4:	ea7f 5c6c 	mvns.w	ip, ip, asr #21
    46a8:	d1d6      	bne.n	4658 <__cmpdf2+0x1c>
    46aa:	ea52 3c03 	orrs.w	ip, r2, r3, lsl #12
    46ae:	d0d3      	beq.n	4658 <__cmpdf2+0x1c>
    46b0:	f85d 0b04 	ldr.w	r0, [sp], #4
    46b4:	4770      	bx	lr
    46b6:	bf00      	nop

000046b8 <__aeabi_cdrcmple>:
    46b8:	4684      	mov	ip, r0
    46ba:	4610      	mov	r0, r2
    46bc:	4662      	mov	r2, ip
    46be:	468c      	mov	ip, r1
    46c0:	4619      	mov	r1, r3
    46c2:	4663      	mov	r3, ip
    46c4:	e000      	b.n	46c8 <__aeabi_cdcmpeq>
    46c6:	bf00      	nop

000046c8 <__aeabi_cdcmpeq>:
    46c8:	b501      	push	{r0, lr}
    46ca:	f7ff ffb7 	bl	463c <__cmpdf2>
    46ce:	2800      	cmp	r0, #0
    46d0:	bf48      	it	mi
    46d2:	f110 0f00 	cmnmi.w	r0, #0
    46d6:	bd01      	pop	{r0, pc}

000046d8 <__aeabi_dcmpeq>:
    46d8:	f84d ed08 	str.w	lr, [sp, #-8]!
    46dc:	f7ff fff4 	bl	46c8 <__aeabi_cdcmpeq>
    46e0:	bf0c      	ite	eq
    46e2:	2001      	moveq	r0, #1
    46e4:	2000      	movne	r0, #0
    46e6:	f85d fb08 	ldr.w	pc, [sp], #8
    46ea:	bf00      	nop

000046ec <__aeabi_dcmplt>:
    46ec:	f84d ed08 	str.w	lr, [sp, #-8]!
    46f0:	f7ff ffea 	bl	46c8 <__aeabi_cdcmpeq>
    46f4:	bf34      	ite	cc
    46f6:	2001      	movcc	r0, #1
    46f8:	2000      	movcs	r0, #0
    46fa:	f85d fb08 	ldr.w	pc, [sp], #8
    46fe:	bf00      	nop

00004700 <__aeabi_dcmple>:
    4700:	f84d ed08 	str.w	lr, [sp, #-8]!
    4704:	f7ff ffe0 	bl	46c8 <__aeabi_cdcmpeq>
    4708:	bf94      	ite	ls
    470a:	2001      	movls	r0, #1
    470c:	2000      	movhi	r0, #0
    470e:	f85d fb08 	ldr.w	pc, [sp], #8
    4712:	bf00      	nop

00004714 <__aeabi_dcmpge>:
    4714:	f84d ed08 	str.w	lr, [sp, #-8]!
    4718:	f7ff ffce 	bl	46b8 <__aeabi_cdrcmple>
    471c:	bf94      	ite	ls
    471e:	2001      	movls	r0, #1
    4720:	2000      	movhi	r0, #0
    4722:	f85d fb08 	ldr.w	pc, [sp], #8
    4726:	bf00      	nop

00004728 <__aeabi_dcmpgt>:
    4728:	f84d ed08 	str.w	lr, [sp, #-8]!
    472c:	f7ff ffc4 	bl	46b8 <__aeabi_cdrcmple>
    4730:	bf34      	ite	cc
    4732:	2001      	movcc	r0, #1
    4734:	2000      	movcs	r0, #0
    4736:	f85d fb08 	ldr.w	pc, [sp], #8
    473a:	bf00      	nop

0000473c <__aeabi_dcmpun>:
    473c:	ea4f 0c41 	mov.w	ip, r1, lsl #1
    4740:	ea7f 5c6c 	mvns.w	ip, ip, asr #21
    4744:	d102      	bne.n	474c <__aeabi_dcmpun+0x10>
    4746:	ea50 3c01 	orrs.w	ip, r0, r1, lsl #12
    474a:	d10a      	bne.n	4762 <__aeabi_dcmpun+0x26>
    474c:	ea4f 0c43 	mov.w	ip, r3, lsl #1
    4750:	ea7f 5c6c 	mvns.w	ip, ip, asr #21
    4754:	d102      	bne.n	475c <__aeabi_dcmpun+0x20>
    4756:	ea52 3c03 	orrs.w	ip, r2, r3, lsl #12
    475a:	d102      	bne.n	4762 <__aeabi_dcmpun+0x26>
    475c:	f04f 0000 	mov.w	r0, #0
    4760:	4770      	bx	lr
    4762:	f04f 0001 	mov.w	r0, #1
    4766:	4770      	bx	lr

00004768 <__aeabi_atexit>:
    4768:	460b      	mov	r3, r1
    476a:	4601      	mov	r1, r0
    476c:	4618      	mov	r0, r3
    476e:	f000 b801 	b.w	4774 <__cxa_atexit>
    4772:	bf00      	nop

00004774 <__cxa_atexit>:
    4774:	4613      	mov	r3, r2
    4776:	460a      	mov	r2, r1
    4778:	4601      	mov	r1, r0
    477a:	2002      	movs	r0, #2
    477c:	f000 bea4 	b.w	54c8 <__register_exitproc>

00004780 <__errno>:
    4780:	4b01      	ldr	r3, [pc, #4]	; (4788 <__errno+0x8>)
    4782:	6818      	ldr	r0, [r3, #0]
    4784:	4770      	bx	lr
    4786:	bf00      	nop
    4788:	1fff92a8 	.word	0x1fff92a8

0000478c <__libc_init_array>:
    478c:	b570      	push	{r4, r5, r6, lr}
    478e:	4e0f      	ldr	r6, [pc, #60]	; (47cc <__libc_init_array+0x40>)
    4790:	4d0f      	ldr	r5, [pc, #60]	; (47d0 <__libc_init_array+0x44>)
    4792:	1b76      	subs	r6, r6, r5
    4794:	10b6      	asrs	r6, r6, #2
    4796:	bf18      	it	ne
    4798:	2400      	movne	r4, #0
    479a:	d005      	beq.n	47a8 <__libc_init_array+0x1c>
    479c:	3401      	adds	r4, #1
    479e:	f855 3b04 	ldr.w	r3, [r5], #4
    47a2:	4798      	blx	r3
    47a4:	42a6      	cmp	r6, r4
    47a6:	d1f9      	bne.n	479c <__libc_init_array+0x10>
    47a8:	4e0a      	ldr	r6, [pc, #40]	; (47d4 <__libc_init_array+0x48>)
    47aa:	4d0b      	ldr	r5, [pc, #44]	; (47d8 <__libc_init_array+0x4c>)
    47ac:	1b76      	subs	r6, r6, r5
    47ae:	f004 fd4d 	bl	924c <_init>
    47b2:	10b6      	asrs	r6, r6, #2
    47b4:	bf18      	it	ne
    47b6:	2400      	movne	r4, #0
    47b8:	d006      	beq.n	47c8 <__libc_init_array+0x3c>
    47ba:	3401      	adds	r4, #1
    47bc:	f855 3b04 	ldr.w	r3, [r5], #4
    47c0:	4798      	blx	r3
    47c2:	42a6      	cmp	r6, r4
    47c4:	d1f9      	bne.n	47ba <__libc_init_array+0x2e>
    47c6:	bd70      	pop	{r4, r5, r6, pc}
    47c8:	bd70      	pop	{r4, r5, r6, pc}
    47ca:	bf00      	nop
    47cc:	00009258 	.word	0x00009258
    47d0:	00009258 	.word	0x00009258
    47d4:	00009268 	.word	0x00009268
    47d8:	00009258 	.word	0x00009258

000047dc <malloc>:
    47dc:	4b02      	ldr	r3, [pc, #8]	; (47e8 <malloc+0xc>)
    47de:	4601      	mov	r1, r0
    47e0:	6818      	ldr	r0, [r3, #0]
    47e2:	f000 b80b 	b.w	47fc <_malloc_r>
    47e6:	bf00      	nop
    47e8:	1fff92a8 	.word	0x1fff92a8

000047ec <free>:
    47ec:	4b02      	ldr	r3, [pc, #8]	; (47f8 <free+0xc>)
    47ee:	4601      	mov	r1, r0
    47f0:	6818      	ldr	r0, [r3, #0]
    47f2:	f000 bf2d 	b.w	5650 <_free_r>
    47f6:	bf00      	nop
    47f8:	1fff92a8 	.word	0x1fff92a8

000047fc <_malloc_r>:
    47fc:	e92d 4ff0 	stmdb	sp!, {r4, r5, r6, r7, r8, r9, sl, fp, lr}
    4800:	f101 050b 	add.w	r5, r1, #11
    4804:	2d16      	cmp	r5, #22
    4806:	b083      	sub	sp, #12
    4808:	4606      	mov	r6, r0
    480a:	f240 809f 	bls.w	494c <_malloc_r+0x150>
    480e:	f035 0507 	bics.w	r5, r5, #7
    4812:	f100 80bf 	bmi.w	4994 <_malloc_r+0x198>
    4816:	42a9      	cmp	r1, r5
    4818:	f200 80bc 	bhi.w	4994 <_malloc_r+0x198>
    481c:	f000 fb6e 	bl	4efc <__malloc_lock>
    4820:	f5b5 7ffc 	cmp.w	r5, #504	; 0x1f8
    4824:	f0c0 829c 	bcc.w	4d60 <_malloc_r+0x564>
    4828:	0a6b      	lsrs	r3, r5, #9
    482a:	f000 80ba 	beq.w	49a2 <_malloc_r+0x1a6>
    482e:	2b04      	cmp	r3, #4
    4830:	f200 8183 	bhi.w	4b3a <_malloc_r+0x33e>
    4834:	09a8      	lsrs	r0, r5, #6
    4836:	f100 0e39 	add.w	lr, r0, #57	; 0x39
    483a:	ea4f 034e 	mov.w	r3, lr, lsl #1
    483e:	3038      	adds	r0, #56	; 0x38
    4840:	4fc4      	ldr	r7, [pc, #784]	; (4b54 <_malloc_r+0x358>)
    4842:	eb07 0383 	add.w	r3, r7, r3, lsl #2
    4846:	f1a3 0108 	sub.w	r1, r3, #8
    484a:	685c      	ldr	r4, [r3, #4]
    484c:	42a1      	cmp	r1, r4
    484e:	d107      	bne.n	4860 <_malloc_r+0x64>
    4850:	e0ac      	b.n	49ac <_malloc_r+0x1b0>
    4852:	2a00      	cmp	r2, #0
    4854:	f280 80ac 	bge.w	49b0 <_malloc_r+0x1b4>
    4858:	68e4      	ldr	r4, [r4, #12]
    485a:	42a1      	cmp	r1, r4
    485c:	f000 80a6 	beq.w	49ac <_malloc_r+0x1b0>
    4860:	6863      	ldr	r3, [r4, #4]
    4862:	f023 0303 	bic.w	r3, r3, #3
    4866:	1b5a      	subs	r2, r3, r5
    4868:	2a0f      	cmp	r2, #15
    486a:	ddf2      	ble.n	4852 <_malloc_r+0x56>
    486c:	49b9      	ldr	r1, [pc, #740]	; (4b54 <_malloc_r+0x358>)
    486e:	693c      	ldr	r4, [r7, #16]
    4870:	f101 0e08 	add.w	lr, r1, #8
    4874:	4574      	cmp	r4, lr
    4876:	f000 81b3 	beq.w	4be0 <_malloc_r+0x3e4>
    487a:	6863      	ldr	r3, [r4, #4]
    487c:	f023 0303 	bic.w	r3, r3, #3
    4880:	1b5a      	subs	r2, r3, r5
    4882:	2a0f      	cmp	r2, #15
    4884:	f300 8199 	bgt.w	4bba <_malloc_r+0x3be>
    4888:	2a00      	cmp	r2, #0
    488a:	f8c1 e014 	str.w	lr, [r1, #20]
    488e:	f8c1 e010 	str.w	lr, [r1, #16]
    4892:	f280 809e 	bge.w	49d2 <_malloc_r+0x1d6>
    4896:	f5b3 7f00 	cmp.w	r3, #512	; 0x200
    489a:	f080 8167 	bcs.w	4b6c <_malloc_r+0x370>
    489e:	08db      	lsrs	r3, r3, #3
    48a0:	f103 0c01 	add.w	ip, r3, #1
    48a4:	2201      	movs	r2, #1
    48a6:	109b      	asrs	r3, r3, #2
    48a8:	fa02 f303 	lsl.w	r3, r2, r3
    48ac:	684a      	ldr	r2, [r1, #4]
    48ae:	f851 803c 	ldr.w	r8, [r1, ip, lsl #3]
    48b2:	f8c4 8008 	str.w	r8, [r4, #8]
    48b6:	eb01 09cc 	add.w	r9, r1, ip, lsl #3
    48ba:	431a      	orrs	r2, r3
    48bc:	f1a9 0308 	sub.w	r3, r9, #8
    48c0:	60e3      	str	r3, [r4, #12]
    48c2:	604a      	str	r2, [r1, #4]
    48c4:	f841 403c 	str.w	r4, [r1, ip, lsl #3]
    48c8:	f8c8 400c 	str.w	r4, [r8, #12]
    48cc:	1083      	asrs	r3, r0, #2
    48ce:	2401      	movs	r4, #1
    48d0:	409c      	lsls	r4, r3
    48d2:	4294      	cmp	r4, r2
    48d4:	f200 808a 	bhi.w	49ec <_malloc_r+0x1f0>
    48d8:	4214      	tst	r4, r2
    48da:	d106      	bne.n	48ea <_malloc_r+0xee>
    48dc:	f020 0003 	bic.w	r0, r0, #3
    48e0:	0064      	lsls	r4, r4, #1
    48e2:	4214      	tst	r4, r2
    48e4:	f100 0004 	add.w	r0, r0, #4
    48e8:	d0fa      	beq.n	48e0 <_malloc_r+0xe4>
    48ea:	eb07 09c0 	add.w	r9, r7, r0, lsl #3
    48ee:	46cc      	mov	ip, r9
    48f0:	4680      	mov	r8, r0
    48f2:	f8dc 100c 	ldr.w	r1, [ip, #12]
    48f6:	458c      	cmp	ip, r1
    48f8:	d107      	bne.n	490a <_malloc_r+0x10e>
    48fa:	e173      	b.n	4be4 <_malloc_r+0x3e8>
    48fc:	2a00      	cmp	r2, #0
    48fe:	f280 8181 	bge.w	4c04 <_malloc_r+0x408>
    4902:	68c9      	ldr	r1, [r1, #12]
    4904:	458c      	cmp	ip, r1
    4906:	f000 816d 	beq.w	4be4 <_malloc_r+0x3e8>
    490a:	684b      	ldr	r3, [r1, #4]
    490c:	f023 0303 	bic.w	r3, r3, #3
    4910:	1b5a      	subs	r2, r3, r5
    4912:	2a0f      	cmp	r2, #15
    4914:	ddf2      	ble.n	48fc <_malloc_r+0x100>
    4916:	460c      	mov	r4, r1
    4918:	f8d1 c00c 	ldr.w	ip, [r1, #12]
    491c:	f854 8f08 	ldr.w	r8, [r4, #8]!
    4920:	194b      	adds	r3, r1, r5
    4922:	f045 0501 	orr.w	r5, r5, #1
    4926:	604d      	str	r5, [r1, #4]
    4928:	f042 0101 	orr.w	r1, r2, #1
    492c:	f8c8 c00c 	str.w	ip, [r8, #12]
    4930:	4630      	mov	r0, r6
    4932:	f8cc 8008 	str.w	r8, [ip, #8]
    4936:	617b      	str	r3, [r7, #20]
    4938:	613b      	str	r3, [r7, #16]
    493a:	f8c3 e00c 	str.w	lr, [r3, #12]
    493e:	f8c3 e008 	str.w	lr, [r3, #8]
    4942:	6059      	str	r1, [r3, #4]
    4944:	509a      	str	r2, [r3, r2]
    4946:	f000 fadb 	bl	4f00 <__malloc_unlock>
    494a:	e01f      	b.n	498c <_malloc_r+0x190>
    494c:	2910      	cmp	r1, #16
    494e:	d821      	bhi.n	4994 <_malloc_r+0x198>
    4950:	f000 fad4 	bl	4efc <__malloc_lock>
    4954:	2510      	movs	r5, #16
    4956:	2306      	movs	r3, #6
    4958:	2002      	movs	r0, #2
    495a:	4f7e      	ldr	r7, [pc, #504]	; (4b54 <_malloc_r+0x358>)
    495c:	eb07 0383 	add.w	r3, r7, r3, lsl #2
    4960:	f1a3 0208 	sub.w	r2, r3, #8
    4964:	685c      	ldr	r4, [r3, #4]
    4966:	4294      	cmp	r4, r2
    4968:	f000 8145 	beq.w	4bf6 <_malloc_r+0x3fa>
    496c:	6863      	ldr	r3, [r4, #4]
    496e:	68e1      	ldr	r1, [r4, #12]
    4970:	68a5      	ldr	r5, [r4, #8]
    4972:	f023 0303 	bic.w	r3, r3, #3
    4976:	4423      	add	r3, r4
    4978:	4630      	mov	r0, r6
    497a:	685a      	ldr	r2, [r3, #4]
    497c:	60e9      	str	r1, [r5, #12]
    497e:	f042 0201 	orr.w	r2, r2, #1
    4982:	608d      	str	r5, [r1, #8]
    4984:	605a      	str	r2, [r3, #4]
    4986:	f000 fabb 	bl	4f00 <__malloc_unlock>
    498a:	3408      	adds	r4, #8
    498c:	4620      	mov	r0, r4
    498e:	b003      	add	sp, #12
    4990:	e8bd 8ff0 	ldmia.w	sp!, {r4, r5, r6, r7, r8, r9, sl, fp, pc}
    4994:	2400      	movs	r4, #0
    4996:	230c      	movs	r3, #12
    4998:	4620      	mov	r0, r4
    499a:	6033      	str	r3, [r6, #0]
    499c:	b003      	add	sp, #12
    499e:	e8bd 8ff0 	ldmia.w	sp!, {r4, r5, r6, r7, r8, r9, sl, fp, pc}
    49a2:	2380      	movs	r3, #128	; 0x80
    49a4:	f04f 0e40 	mov.w	lr, #64	; 0x40
    49a8:	203f      	movs	r0, #63	; 0x3f
    49aa:	e749      	b.n	4840 <_malloc_r+0x44>
    49ac:	4670      	mov	r0, lr
    49ae:	e75d      	b.n	486c <_malloc_r+0x70>
    49b0:	4423      	add	r3, r4
    49b2:	68e1      	ldr	r1, [r4, #12]
    49b4:	685a      	ldr	r2, [r3, #4]
    49b6:	68a5      	ldr	r5, [r4, #8]
    49b8:	f042 0201 	orr.w	r2, r2, #1
    49bc:	60e9      	str	r1, [r5, #12]
    49be:	4630      	mov	r0, r6
    49c0:	608d      	str	r5, [r1, #8]
    49c2:	605a      	str	r2, [r3, #4]
    49c4:	f000 fa9c 	bl	4f00 <__malloc_unlock>
    49c8:	3408      	adds	r4, #8
    49ca:	4620      	mov	r0, r4
    49cc:	b003      	add	sp, #12
    49ce:	e8bd 8ff0 	ldmia.w	sp!, {r4, r5, r6, r7, r8, r9, sl, fp, pc}
    49d2:	4423      	add	r3, r4
    49d4:	4630      	mov	r0, r6
    49d6:	685a      	ldr	r2, [r3, #4]
    49d8:	f042 0201 	orr.w	r2, r2, #1
    49dc:	605a      	str	r2, [r3, #4]
    49de:	f000 fa8f 	bl	4f00 <__malloc_unlock>
    49e2:	3408      	adds	r4, #8
    49e4:	4620      	mov	r0, r4
    49e6:	b003      	add	sp, #12
    49e8:	e8bd 8ff0 	ldmia.w	sp!, {r4, r5, r6, r7, r8, r9, sl, fp, pc}
    49ec:	68bc      	ldr	r4, [r7, #8]
    49ee:	6863      	ldr	r3, [r4, #4]
    49f0:	f023 0803 	bic.w	r8, r3, #3
    49f4:	45a8      	cmp	r8, r5
    49f6:	d304      	bcc.n	4a02 <_malloc_r+0x206>
    49f8:	ebc5 0308 	rsb	r3, r5, r8
    49fc:	2b0f      	cmp	r3, #15
    49fe:	f300 808c 	bgt.w	4b1a <_malloc_r+0x31e>
    4a02:	4b55      	ldr	r3, [pc, #340]	; (4b58 <_malloc_r+0x35c>)
    4a04:	f8df 9160 	ldr.w	r9, [pc, #352]	; 4b68 <_malloc_r+0x36c>
    4a08:	681a      	ldr	r2, [r3, #0]
    4a0a:	f8d9 3000 	ldr.w	r3, [r9]
    4a0e:	3301      	adds	r3, #1
    4a10:	442a      	add	r2, r5
    4a12:	eb04 0a08 	add.w	sl, r4, r8
    4a16:	f000 8160 	beq.w	4cda <_malloc_r+0x4de>
    4a1a:	f502 5280 	add.w	r2, r2, #4096	; 0x1000
    4a1e:	320f      	adds	r2, #15
    4a20:	f422 627f 	bic.w	r2, r2, #4080	; 0xff0
    4a24:	f022 020f 	bic.w	r2, r2, #15
    4a28:	4611      	mov	r1, r2
    4a2a:	4630      	mov	r0, r6
    4a2c:	9201      	str	r2, [sp, #4]
    4a2e:	f000 fc59 	bl	52e4 <_sbrk_r>
    4a32:	f1b0 3fff 	cmp.w	r0, #4294967295	; 0xffffffff
    4a36:	4683      	mov	fp, r0
    4a38:	9a01      	ldr	r2, [sp, #4]
    4a3a:	f000 8158 	beq.w	4cee <_malloc_r+0x4f2>
    4a3e:	4582      	cmp	sl, r0
    4a40:	f200 80fc 	bhi.w	4c3c <_malloc_r+0x440>
    4a44:	4b45      	ldr	r3, [pc, #276]	; (4b5c <_malloc_r+0x360>)
    4a46:	6819      	ldr	r1, [r3, #0]
    4a48:	45da      	cmp	sl, fp
    4a4a:	4411      	add	r1, r2
    4a4c:	6019      	str	r1, [r3, #0]
    4a4e:	f000 8153 	beq.w	4cf8 <_malloc_r+0x4fc>
    4a52:	f8d9 0000 	ldr.w	r0, [r9]
    4a56:	f8df e110 	ldr.w	lr, [pc, #272]	; 4b68 <_malloc_r+0x36c>
    4a5a:	3001      	adds	r0, #1
    4a5c:	bf1b      	ittet	ne
    4a5e:	ebca 0a0b 	rsbne	sl, sl, fp
    4a62:	4451      	addne	r1, sl
    4a64:	f8ce b000 	streq.w	fp, [lr]
    4a68:	6019      	strne	r1, [r3, #0]
    4a6a:	f01b 0107 	ands.w	r1, fp, #7
    4a6e:	f000 8117 	beq.w	4ca0 <_malloc_r+0x4a4>
    4a72:	f1c1 0008 	rsb	r0, r1, #8
    4a76:	f5c1 5180 	rsb	r1, r1, #4096	; 0x1000
    4a7a:	4483      	add	fp, r0
    4a7c:	3108      	adds	r1, #8
    4a7e:	445a      	add	r2, fp
    4a80:	f3c2 020b 	ubfx	r2, r2, #0, #12
    4a84:	ebc2 0901 	rsb	r9, r2, r1
    4a88:	4649      	mov	r1, r9
    4a8a:	4630      	mov	r0, r6
    4a8c:	9301      	str	r3, [sp, #4]
    4a8e:	f000 fc29 	bl	52e4 <_sbrk_r>
    4a92:	1c43      	adds	r3, r0, #1
    4a94:	9b01      	ldr	r3, [sp, #4]
    4a96:	f000 813f 	beq.w	4d18 <_malloc_r+0x51c>
    4a9a:	ebcb 0200 	rsb	r2, fp, r0
    4a9e:	444a      	add	r2, r9
    4aa0:	f042 0201 	orr.w	r2, r2, #1
    4aa4:	6819      	ldr	r1, [r3, #0]
    4aa6:	f8c7 b008 	str.w	fp, [r7, #8]
    4aaa:	4449      	add	r1, r9
    4aac:	42bc      	cmp	r4, r7
    4aae:	f8cb 2004 	str.w	r2, [fp, #4]
    4ab2:	6019      	str	r1, [r3, #0]
    4ab4:	f8df 90a4 	ldr.w	r9, [pc, #164]	; 4b5c <_malloc_r+0x360>
    4ab8:	d016      	beq.n	4ae8 <_malloc_r+0x2ec>
    4aba:	f1b8 0f0f 	cmp.w	r8, #15
    4abe:	f240 80fd 	bls.w	4cbc <_malloc_r+0x4c0>
    4ac2:	6862      	ldr	r2, [r4, #4]
    4ac4:	f1a8 030c 	sub.w	r3, r8, #12
    4ac8:	f023 0307 	bic.w	r3, r3, #7
    4acc:	18e0      	adds	r0, r4, r3
    4ace:	f002 0201 	and.w	r2, r2, #1
    4ad2:	f04f 0e05 	mov.w	lr, #5
    4ad6:	431a      	orrs	r2, r3
    4ad8:	2b0f      	cmp	r3, #15
    4ada:	6062      	str	r2, [r4, #4]
    4adc:	f8c0 e004 	str.w	lr, [r0, #4]
    4ae0:	f8c0 e008 	str.w	lr, [r0, #8]
    4ae4:	f200 811c 	bhi.w	4d20 <_malloc_r+0x524>
    4ae8:	4b1d      	ldr	r3, [pc, #116]	; (4b60 <_malloc_r+0x364>)
    4aea:	68bc      	ldr	r4, [r7, #8]
    4aec:	681a      	ldr	r2, [r3, #0]
    4aee:	4291      	cmp	r1, r2
    4af0:	bf88      	it	hi
    4af2:	6019      	strhi	r1, [r3, #0]
    4af4:	4b1b      	ldr	r3, [pc, #108]	; (4b64 <_malloc_r+0x368>)
    4af6:	681a      	ldr	r2, [r3, #0]
    4af8:	4291      	cmp	r1, r2
    4afa:	6862      	ldr	r2, [r4, #4]
    4afc:	bf88      	it	hi
    4afe:	6019      	strhi	r1, [r3, #0]
    4b00:	f022 0203 	bic.w	r2, r2, #3
    4b04:	4295      	cmp	r5, r2
    4b06:	eba2 0305 	sub.w	r3, r2, r5
    4b0a:	d801      	bhi.n	4b10 <_malloc_r+0x314>
    4b0c:	2b0f      	cmp	r3, #15
    4b0e:	dc04      	bgt.n	4b1a <_malloc_r+0x31e>
    4b10:	4630      	mov	r0, r6
    4b12:	f000 f9f5 	bl	4f00 <__malloc_unlock>
    4b16:	2400      	movs	r4, #0
    4b18:	e738      	b.n	498c <_malloc_r+0x190>
    4b1a:	1962      	adds	r2, r4, r5
    4b1c:	f043 0301 	orr.w	r3, r3, #1
    4b20:	f045 0501 	orr.w	r5, r5, #1
    4b24:	6065      	str	r5, [r4, #4]
    4b26:	4630      	mov	r0, r6
    4b28:	60ba      	str	r2, [r7, #8]
    4b2a:	6053      	str	r3, [r2, #4]
    4b2c:	f000 f9e8 	bl	4f00 <__malloc_unlock>
    4b30:	3408      	adds	r4, #8
    4b32:	4620      	mov	r0, r4
    4b34:	b003      	add	sp, #12
    4b36:	e8bd 8ff0 	ldmia.w	sp!, {r4, r5, r6, r7, r8, r9, sl, fp, pc}
    4b3a:	2b14      	cmp	r3, #20
    4b3c:	d971      	bls.n	4c22 <_malloc_r+0x426>
    4b3e:	2b54      	cmp	r3, #84	; 0x54
    4b40:	f200 80a4 	bhi.w	4c8c <_malloc_r+0x490>
    4b44:	0b28      	lsrs	r0, r5, #12
    4b46:	f100 0e6f 	add.w	lr, r0, #111	; 0x6f
    4b4a:	ea4f 034e 	mov.w	r3, lr, lsl #1
    4b4e:	306e      	adds	r0, #110	; 0x6e
    4b50:	e676      	b.n	4840 <_malloc_r+0x44>
    4b52:	bf00      	nop
    4b54:	1fff9418 	.word	0x1fff9418
    4b58:	1fff9bbc 	.word	0x1fff9bbc
    4b5c:	1fff9bc0 	.word	0x1fff9bc0
    4b60:	1fff9bb8 	.word	0x1fff9bb8
    4b64:	1fff9bb4 	.word	0x1fff9bb4
    4b68:	1fff9824 	.word	0x1fff9824
    4b6c:	0a5a      	lsrs	r2, r3, #9
    4b6e:	2a04      	cmp	r2, #4
    4b70:	d95e      	bls.n	4c30 <_malloc_r+0x434>
    4b72:	2a14      	cmp	r2, #20
    4b74:	f200 80b3 	bhi.w	4cde <_malloc_r+0x4e2>
    4b78:	f102 015c 	add.w	r1, r2, #92	; 0x5c
    4b7c:	0049      	lsls	r1, r1, #1
    4b7e:	325b      	adds	r2, #91	; 0x5b
    4b80:	eb07 0c81 	add.w	ip, r7, r1, lsl #2
    4b84:	f857 1021 	ldr.w	r1, [r7, r1, lsl #2]
    4b88:	f8df 81dc 	ldr.w	r8, [pc, #476]	; 4d68 <_malloc_r+0x56c>
    4b8c:	f1ac 0c08 	sub.w	ip, ip, #8
    4b90:	458c      	cmp	ip, r1
    4b92:	f000 8088 	beq.w	4ca6 <_malloc_r+0x4aa>
    4b96:	684a      	ldr	r2, [r1, #4]
    4b98:	f022 0203 	bic.w	r2, r2, #3
    4b9c:	4293      	cmp	r3, r2
    4b9e:	d202      	bcs.n	4ba6 <_malloc_r+0x3aa>
    4ba0:	6889      	ldr	r1, [r1, #8]
    4ba2:	458c      	cmp	ip, r1
    4ba4:	d1f7      	bne.n	4b96 <_malloc_r+0x39a>
    4ba6:	f8d1 c00c 	ldr.w	ip, [r1, #12]
    4baa:	687a      	ldr	r2, [r7, #4]
    4bac:	f8c4 c00c 	str.w	ip, [r4, #12]
    4bb0:	60a1      	str	r1, [r4, #8]
    4bb2:	f8cc 4008 	str.w	r4, [ip, #8]
    4bb6:	60cc      	str	r4, [r1, #12]
    4bb8:	e688      	b.n	48cc <_malloc_r+0xd0>
    4bba:	1963      	adds	r3, r4, r5
    4bbc:	f042 0701 	orr.w	r7, r2, #1
    4bc0:	f045 0501 	orr.w	r5, r5, #1
    4bc4:	6065      	str	r5, [r4, #4]
    4bc6:	4630      	mov	r0, r6
    4bc8:	614b      	str	r3, [r1, #20]
    4bca:	610b      	str	r3, [r1, #16]
    4bcc:	f8c3 e00c 	str.w	lr, [r3, #12]
    4bd0:	f8c3 e008 	str.w	lr, [r3, #8]
    4bd4:	605f      	str	r7, [r3, #4]
    4bd6:	509a      	str	r2, [r3, r2]
    4bd8:	3408      	adds	r4, #8
    4bda:	f000 f991 	bl	4f00 <__malloc_unlock>
    4bde:	e6d5      	b.n	498c <_malloc_r+0x190>
    4be0:	684a      	ldr	r2, [r1, #4]
    4be2:	e673      	b.n	48cc <_malloc_r+0xd0>
    4be4:	f108 0801 	add.w	r8, r8, #1
    4be8:	f018 0f03 	tst.w	r8, #3
    4bec:	f10c 0c08 	add.w	ip, ip, #8
    4bf0:	f47f ae7f 	bne.w	48f2 <_malloc_r+0xf6>
    4bf4:	e030      	b.n	4c58 <_malloc_r+0x45c>
    4bf6:	68dc      	ldr	r4, [r3, #12]
    4bf8:	42a3      	cmp	r3, r4
    4bfa:	bf08      	it	eq
    4bfc:	3002      	addeq	r0, #2
    4bfe:	f43f ae35 	beq.w	486c <_malloc_r+0x70>
    4c02:	e6b3      	b.n	496c <_malloc_r+0x170>
    4c04:	440b      	add	r3, r1
    4c06:	460c      	mov	r4, r1
    4c08:	685a      	ldr	r2, [r3, #4]
    4c0a:	68c9      	ldr	r1, [r1, #12]
    4c0c:	f854 5f08 	ldr.w	r5, [r4, #8]!
    4c10:	f042 0201 	orr.w	r2, r2, #1
    4c14:	605a      	str	r2, [r3, #4]
    4c16:	4630      	mov	r0, r6
    4c18:	60e9      	str	r1, [r5, #12]
    4c1a:	608d      	str	r5, [r1, #8]
    4c1c:	f000 f970 	bl	4f00 <__malloc_unlock>
    4c20:	e6b4      	b.n	498c <_malloc_r+0x190>
    4c22:	f103 0e5c 	add.w	lr, r3, #92	; 0x5c
    4c26:	f103 005b 	add.w	r0, r3, #91	; 0x5b
    4c2a:	ea4f 034e 	mov.w	r3, lr, lsl #1
    4c2e:	e607      	b.n	4840 <_malloc_r+0x44>
    4c30:	099a      	lsrs	r2, r3, #6
    4c32:	f102 0139 	add.w	r1, r2, #57	; 0x39
    4c36:	0049      	lsls	r1, r1, #1
    4c38:	3238      	adds	r2, #56	; 0x38
    4c3a:	e7a1      	b.n	4b80 <_malloc_r+0x384>
    4c3c:	42bc      	cmp	r4, r7
    4c3e:	4b4a      	ldr	r3, [pc, #296]	; (4d68 <_malloc_r+0x56c>)
    4c40:	f43f af00 	beq.w	4a44 <_malloc_r+0x248>
    4c44:	689c      	ldr	r4, [r3, #8]
    4c46:	6862      	ldr	r2, [r4, #4]
    4c48:	f022 0203 	bic.w	r2, r2, #3
    4c4c:	e75a      	b.n	4b04 <_malloc_r+0x308>
    4c4e:	f859 3908 	ldr.w	r3, [r9], #-8
    4c52:	4599      	cmp	r9, r3
    4c54:	f040 8082 	bne.w	4d5c <_malloc_r+0x560>
    4c58:	f010 0f03 	tst.w	r0, #3
    4c5c:	f100 30ff 	add.w	r0, r0, #4294967295	; 0xffffffff
    4c60:	d1f5      	bne.n	4c4e <_malloc_r+0x452>
    4c62:	687b      	ldr	r3, [r7, #4]
    4c64:	ea23 0304 	bic.w	r3, r3, r4
    4c68:	607b      	str	r3, [r7, #4]
    4c6a:	0064      	lsls	r4, r4, #1
    4c6c:	429c      	cmp	r4, r3
    4c6e:	f63f aebd 	bhi.w	49ec <_malloc_r+0x1f0>
    4c72:	2c00      	cmp	r4, #0
    4c74:	f43f aeba 	beq.w	49ec <_malloc_r+0x1f0>
    4c78:	421c      	tst	r4, r3
    4c7a:	4640      	mov	r0, r8
    4c7c:	f47f ae35 	bne.w	48ea <_malloc_r+0xee>
    4c80:	0064      	lsls	r4, r4, #1
    4c82:	421c      	tst	r4, r3
    4c84:	f100 0004 	add.w	r0, r0, #4
    4c88:	d0fa      	beq.n	4c80 <_malloc_r+0x484>
    4c8a:	e62e      	b.n	48ea <_malloc_r+0xee>
    4c8c:	f5b3 7faa 	cmp.w	r3, #340	; 0x154
    4c90:	d818      	bhi.n	4cc4 <_malloc_r+0x4c8>
    4c92:	0be8      	lsrs	r0, r5, #15
    4c94:	f100 0e78 	add.w	lr, r0, #120	; 0x78
    4c98:	ea4f 034e 	mov.w	r3, lr, lsl #1
    4c9c:	3077      	adds	r0, #119	; 0x77
    4c9e:	e5cf      	b.n	4840 <_malloc_r+0x44>
    4ca0:	f44f 5180 	mov.w	r1, #4096	; 0x1000
    4ca4:	e6eb      	b.n	4a7e <_malloc_r+0x282>
    4ca6:	2101      	movs	r1, #1
    4ca8:	f8d8 3004 	ldr.w	r3, [r8, #4]
    4cac:	1092      	asrs	r2, r2, #2
    4cae:	fa01 f202 	lsl.w	r2, r1, r2
    4cb2:	431a      	orrs	r2, r3
    4cb4:	f8c8 2004 	str.w	r2, [r8, #4]
    4cb8:	4661      	mov	r1, ip
    4cba:	e777      	b.n	4bac <_malloc_r+0x3b0>
    4cbc:	2301      	movs	r3, #1
    4cbe:	f8cb 3004 	str.w	r3, [fp, #4]
    4cc2:	e725      	b.n	4b10 <_malloc_r+0x314>
    4cc4:	f240 5254 	movw	r2, #1364	; 0x554
    4cc8:	4293      	cmp	r3, r2
    4cca:	d820      	bhi.n	4d0e <_malloc_r+0x512>
    4ccc:	0ca8      	lsrs	r0, r5, #18
    4cce:	f100 0e7d 	add.w	lr, r0, #125	; 0x7d
    4cd2:	ea4f 034e 	mov.w	r3, lr, lsl #1
    4cd6:	307c      	adds	r0, #124	; 0x7c
    4cd8:	e5b2      	b.n	4840 <_malloc_r+0x44>
    4cda:	3210      	adds	r2, #16
    4cdc:	e6a4      	b.n	4a28 <_malloc_r+0x22c>
    4cde:	2a54      	cmp	r2, #84	; 0x54
    4ce0:	d826      	bhi.n	4d30 <_malloc_r+0x534>
    4ce2:	0b1a      	lsrs	r2, r3, #12
    4ce4:	f102 016f 	add.w	r1, r2, #111	; 0x6f
    4ce8:	0049      	lsls	r1, r1, #1
    4cea:	326e      	adds	r2, #110	; 0x6e
    4cec:	e748      	b.n	4b80 <_malloc_r+0x384>
    4cee:	68bc      	ldr	r4, [r7, #8]
    4cf0:	6862      	ldr	r2, [r4, #4]
    4cf2:	f022 0203 	bic.w	r2, r2, #3
    4cf6:	e705      	b.n	4b04 <_malloc_r+0x308>
    4cf8:	f3ca 000b 	ubfx	r0, sl, #0, #12
    4cfc:	2800      	cmp	r0, #0
    4cfe:	f47f aea8 	bne.w	4a52 <_malloc_r+0x256>
    4d02:	4442      	add	r2, r8
    4d04:	68bb      	ldr	r3, [r7, #8]
    4d06:	f042 0201 	orr.w	r2, r2, #1
    4d0a:	605a      	str	r2, [r3, #4]
    4d0c:	e6ec      	b.n	4ae8 <_malloc_r+0x2ec>
    4d0e:	23fe      	movs	r3, #254	; 0xfe
    4d10:	f04f 0e7f 	mov.w	lr, #127	; 0x7f
    4d14:	207e      	movs	r0, #126	; 0x7e
    4d16:	e593      	b.n	4840 <_malloc_r+0x44>
    4d18:	2201      	movs	r2, #1
    4d1a:	f04f 0900 	mov.w	r9, #0
    4d1e:	e6c1      	b.n	4aa4 <_malloc_r+0x2a8>
    4d20:	f104 0108 	add.w	r1, r4, #8
    4d24:	4630      	mov	r0, r6
    4d26:	f000 fc93 	bl	5650 <_free_r>
    4d2a:	f8d9 1000 	ldr.w	r1, [r9]
    4d2e:	e6db      	b.n	4ae8 <_malloc_r+0x2ec>
    4d30:	f5b2 7faa 	cmp.w	r2, #340	; 0x154
    4d34:	d805      	bhi.n	4d42 <_malloc_r+0x546>
    4d36:	0bda      	lsrs	r2, r3, #15
    4d38:	f102 0178 	add.w	r1, r2, #120	; 0x78
    4d3c:	0049      	lsls	r1, r1, #1
    4d3e:	3277      	adds	r2, #119	; 0x77
    4d40:	e71e      	b.n	4b80 <_malloc_r+0x384>
    4d42:	f240 5154 	movw	r1, #1364	; 0x554
    4d46:	428a      	cmp	r2, r1
    4d48:	d805      	bhi.n	4d56 <_malloc_r+0x55a>
    4d4a:	0c9a      	lsrs	r2, r3, #18
    4d4c:	f102 017d 	add.w	r1, r2, #125	; 0x7d
    4d50:	0049      	lsls	r1, r1, #1
    4d52:	327c      	adds	r2, #124	; 0x7c
    4d54:	e714      	b.n	4b80 <_malloc_r+0x384>
    4d56:	21fe      	movs	r1, #254	; 0xfe
    4d58:	227e      	movs	r2, #126	; 0x7e
    4d5a:	e711      	b.n	4b80 <_malloc_r+0x384>
    4d5c:	687b      	ldr	r3, [r7, #4]
    4d5e:	e784      	b.n	4c6a <_malloc_r+0x46e>
    4d60:	08e8      	lsrs	r0, r5, #3
    4d62:	1c43      	adds	r3, r0, #1
    4d64:	005b      	lsls	r3, r3, #1
    4d66:	e5f8      	b.n	495a <_malloc_r+0x15e>
    4d68:	1fff9418 	.word	0x1fff9418

00004d6c <__ascii_mbtowc>:
    4d6c:	b082      	sub	sp, #8
    4d6e:	b149      	cbz	r1, 4d84 <__ascii_mbtowc+0x18>
    4d70:	b15a      	cbz	r2, 4d8a <__ascii_mbtowc+0x1e>
    4d72:	b16b      	cbz	r3, 4d90 <__ascii_mbtowc+0x24>
    4d74:	7813      	ldrb	r3, [r2, #0]
    4d76:	600b      	str	r3, [r1, #0]
    4d78:	7812      	ldrb	r2, [r2, #0]
    4d7a:	1c10      	adds	r0, r2, #0
    4d7c:	bf18      	it	ne
    4d7e:	2001      	movne	r0, #1
    4d80:	b002      	add	sp, #8
    4d82:	4770      	bx	lr
    4d84:	a901      	add	r1, sp, #4
    4d86:	2a00      	cmp	r2, #0
    4d88:	d1f3      	bne.n	4d72 <__ascii_mbtowc+0x6>
    4d8a:	4610      	mov	r0, r2
    4d8c:	b002      	add	sp, #8
    4d8e:	4770      	bx	lr
    4d90:	f06f 0001 	mvn.w	r0, #1
    4d94:	e7f4      	b.n	4d80 <__ascii_mbtowc+0x14>
    4d96:	bf00      	nop

00004d98 <memmove>:
    4d98:	4288      	cmp	r0, r1
    4d9a:	b5f0      	push	{r4, r5, r6, r7, lr}
    4d9c:	d90d      	bls.n	4dba <memmove+0x22>
    4d9e:	188b      	adds	r3, r1, r2
    4da0:	4298      	cmp	r0, r3
    4da2:	d20a      	bcs.n	4dba <memmove+0x22>
    4da4:	1881      	adds	r1, r0, r2
    4da6:	2a00      	cmp	r2, #0
    4da8:	d051      	beq.n	4e4e <memmove+0xb6>
    4daa:	1a9a      	subs	r2, r3, r2
    4dac:	f813 4d01 	ldrb.w	r4, [r3, #-1]!
    4db0:	f801 4d01 	strb.w	r4, [r1, #-1]!
    4db4:	4293      	cmp	r3, r2
    4db6:	d1f9      	bne.n	4dac <memmove+0x14>
    4db8:	bdf0      	pop	{r4, r5, r6, r7, pc}
    4dba:	2a0f      	cmp	r2, #15
    4dbc:	d948      	bls.n	4e50 <memmove+0xb8>
    4dbe:	ea41 0300 	orr.w	r3, r1, r0
    4dc2:	079b      	lsls	r3, r3, #30
    4dc4:	d146      	bne.n	4e54 <memmove+0xbc>
    4dc6:	f100 0410 	add.w	r4, r0, #16
    4dca:	f101 0310 	add.w	r3, r1, #16
    4dce:	4615      	mov	r5, r2
    4dd0:	f853 6c10 	ldr.w	r6, [r3, #-16]
    4dd4:	f844 6c10 	str.w	r6, [r4, #-16]
    4dd8:	f853 6c0c 	ldr.w	r6, [r3, #-12]
    4ddc:	f844 6c0c 	str.w	r6, [r4, #-12]
    4de0:	f853 6c08 	ldr.w	r6, [r3, #-8]
    4de4:	f844 6c08 	str.w	r6, [r4, #-8]
    4de8:	3d10      	subs	r5, #16
    4dea:	f853 6c04 	ldr.w	r6, [r3, #-4]
    4dee:	f844 6c04 	str.w	r6, [r4, #-4]
    4df2:	2d0f      	cmp	r5, #15
    4df4:	f103 0310 	add.w	r3, r3, #16
    4df8:	f104 0410 	add.w	r4, r4, #16
    4dfc:	d8e8      	bhi.n	4dd0 <memmove+0x38>
    4dfe:	f1a2 0310 	sub.w	r3, r2, #16
    4e02:	f023 030f 	bic.w	r3, r3, #15
    4e06:	f002 0e0f 	and.w	lr, r2, #15
    4e0a:	3310      	adds	r3, #16
    4e0c:	f1be 0f03 	cmp.w	lr, #3
    4e10:	4419      	add	r1, r3
    4e12:	4403      	add	r3, r0
    4e14:	d921      	bls.n	4e5a <memmove+0xc2>
    4e16:	1f1e      	subs	r6, r3, #4
    4e18:	460d      	mov	r5, r1
    4e1a:	4674      	mov	r4, lr
    4e1c:	3c04      	subs	r4, #4
    4e1e:	f855 7b04 	ldr.w	r7, [r5], #4
    4e22:	f846 7f04 	str.w	r7, [r6, #4]!
    4e26:	2c03      	cmp	r4, #3
    4e28:	d8f8      	bhi.n	4e1c <memmove+0x84>
    4e2a:	f1ae 0404 	sub.w	r4, lr, #4
    4e2e:	f024 0403 	bic.w	r4, r4, #3
    4e32:	3404      	adds	r4, #4
    4e34:	4423      	add	r3, r4
    4e36:	4421      	add	r1, r4
    4e38:	f002 0203 	and.w	r2, r2, #3
    4e3c:	b162      	cbz	r2, 4e58 <memmove+0xc0>
    4e3e:	3b01      	subs	r3, #1
    4e40:	440a      	add	r2, r1
    4e42:	f811 4b01 	ldrb.w	r4, [r1], #1
    4e46:	f803 4f01 	strb.w	r4, [r3, #1]!
    4e4a:	428a      	cmp	r2, r1
    4e4c:	d1f9      	bne.n	4e42 <memmove+0xaa>
    4e4e:	bdf0      	pop	{r4, r5, r6, r7, pc}
    4e50:	4603      	mov	r3, r0
    4e52:	e7f3      	b.n	4e3c <memmove+0xa4>
    4e54:	4603      	mov	r3, r0
    4e56:	e7f2      	b.n	4e3e <memmove+0xa6>
    4e58:	bdf0      	pop	{r4, r5, r6, r7, pc}
    4e5a:	4672      	mov	r2, lr
    4e5c:	e7ee      	b.n	4e3c <memmove+0xa4>
    4e5e:	bf00      	nop

00004e60 <memset>:
    4e60:	b470      	push	{r4, r5, r6}
    4e62:	0784      	lsls	r4, r0, #30
    4e64:	d046      	beq.n	4ef4 <memset+0x94>
    4e66:	1e54      	subs	r4, r2, #1
    4e68:	2a00      	cmp	r2, #0
    4e6a:	d041      	beq.n	4ef0 <memset+0x90>
    4e6c:	b2cd      	uxtb	r5, r1
    4e6e:	4603      	mov	r3, r0
    4e70:	e002      	b.n	4e78 <memset+0x18>
    4e72:	1e62      	subs	r2, r4, #1
    4e74:	b3e4      	cbz	r4, 4ef0 <memset+0x90>
    4e76:	4614      	mov	r4, r2
    4e78:	f803 5b01 	strb.w	r5, [r3], #1
    4e7c:	079a      	lsls	r2, r3, #30
    4e7e:	d1f8      	bne.n	4e72 <memset+0x12>
    4e80:	2c03      	cmp	r4, #3
    4e82:	d92e      	bls.n	4ee2 <memset+0x82>
    4e84:	b2cd      	uxtb	r5, r1
    4e86:	ea45 2505 	orr.w	r5, r5, r5, lsl #8
    4e8a:	2c0f      	cmp	r4, #15
    4e8c:	ea45 4505 	orr.w	r5, r5, r5, lsl #16
    4e90:	d919      	bls.n	4ec6 <memset+0x66>
    4e92:	f103 0210 	add.w	r2, r3, #16
    4e96:	4626      	mov	r6, r4
    4e98:	3e10      	subs	r6, #16
    4e9a:	2e0f      	cmp	r6, #15
    4e9c:	f842 5c10 	str.w	r5, [r2, #-16]
    4ea0:	f842 5c0c 	str.w	r5, [r2, #-12]
    4ea4:	f842 5c08 	str.w	r5, [r2, #-8]
    4ea8:	f842 5c04 	str.w	r5, [r2, #-4]
    4eac:	f102 0210 	add.w	r2, r2, #16
    4eb0:	d8f2      	bhi.n	4e98 <memset+0x38>
    4eb2:	f1a4 0210 	sub.w	r2, r4, #16
    4eb6:	f022 020f 	bic.w	r2, r2, #15
    4eba:	f004 040f 	and.w	r4, r4, #15
    4ebe:	3210      	adds	r2, #16
    4ec0:	2c03      	cmp	r4, #3
    4ec2:	4413      	add	r3, r2
    4ec4:	d90d      	bls.n	4ee2 <memset+0x82>
    4ec6:	461e      	mov	r6, r3
    4ec8:	4622      	mov	r2, r4
    4eca:	3a04      	subs	r2, #4
    4ecc:	2a03      	cmp	r2, #3
    4ece:	f846 5b04 	str.w	r5, [r6], #4
    4ed2:	d8fa      	bhi.n	4eca <memset+0x6a>
    4ed4:	1f22      	subs	r2, r4, #4
    4ed6:	f022 0203 	bic.w	r2, r2, #3
    4eda:	3204      	adds	r2, #4
    4edc:	4413      	add	r3, r2
    4ede:	f004 0403 	and.w	r4, r4, #3
    4ee2:	b12c      	cbz	r4, 4ef0 <memset+0x90>
    4ee4:	b2c9      	uxtb	r1, r1
    4ee6:	441c      	add	r4, r3
    4ee8:	f803 1b01 	strb.w	r1, [r3], #1
    4eec:	42a3      	cmp	r3, r4
    4eee:	d1fb      	bne.n	4ee8 <memset+0x88>
    4ef0:	bc70      	pop	{r4, r5, r6}
    4ef2:	4770      	bx	lr
    4ef4:	4614      	mov	r4, r2
    4ef6:	4603      	mov	r3, r0
    4ef8:	e7c2      	b.n	4e80 <memset+0x20>
    4efa:	bf00      	nop

00004efc <__malloc_lock>:
    4efc:	4770      	bx	lr
    4efe:	bf00      	nop

00004f00 <__malloc_unlock>:
    4f00:	4770      	bx	lr
    4f02:	bf00      	nop

00004f04 <_realloc_r>:
    4f04:	e92d 4ff0 	stmdb	sp!, {r4, r5, r6, r7, r8, r9, sl, fp, lr}
    4f08:	4617      	mov	r7, r2
    4f0a:	b083      	sub	sp, #12
    4f0c:	2900      	cmp	r1, #0
    4f0e:	f000 80c1 	beq.w	5094 <_realloc_r+0x190>
    4f12:	460e      	mov	r6, r1
    4f14:	4681      	mov	r9, r0
    4f16:	f107 050b 	add.w	r5, r7, #11
    4f1a:	f7ff ffef 	bl	4efc <__malloc_lock>
    4f1e:	f856 ec04 	ldr.w	lr, [r6, #-4]
    4f22:	2d16      	cmp	r5, #22
    4f24:	f02e 0403 	bic.w	r4, lr, #3
    4f28:	f1a6 0808 	sub.w	r8, r6, #8
    4f2c:	d840      	bhi.n	4fb0 <_realloc_r+0xac>
    4f2e:	2210      	movs	r2, #16
    4f30:	4615      	mov	r5, r2
    4f32:	42af      	cmp	r7, r5
    4f34:	d841      	bhi.n	4fba <_realloc_r+0xb6>
    4f36:	4294      	cmp	r4, r2
    4f38:	da75      	bge.n	5026 <_realloc_r+0x122>
    4f3a:	4bc9      	ldr	r3, [pc, #804]	; (5260 <_realloc_r+0x35c>)
    4f3c:	6899      	ldr	r1, [r3, #8]
    4f3e:	eb08 0004 	add.w	r0, r8, r4
    4f42:	4288      	cmp	r0, r1
    4f44:	6841      	ldr	r1, [r0, #4]
    4f46:	f000 80d9 	beq.w	50fc <_realloc_r+0x1f8>
    4f4a:	f021 0301 	bic.w	r3, r1, #1
    4f4e:	4403      	add	r3, r0
    4f50:	685b      	ldr	r3, [r3, #4]
    4f52:	07db      	lsls	r3, r3, #31
    4f54:	d57d      	bpl.n	5052 <_realloc_r+0x14e>
    4f56:	f01e 0f01 	tst.w	lr, #1
    4f5a:	d035      	beq.n	4fc8 <_realloc_r+0xc4>
    4f5c:	4639      	mov	r1, r7
    4f5e:	4648      	mov	r0, r9
    4f60:	f7ff fc4c 	bl	47fc <_malloc_r>
    4f64:	4607      	mov	r7, r0
    4f66:	b1e0      	cbz	r0, 4fa2 <_realloc_r+0x9e>
    4f68:	f856 3c04 	ldr.w	r3, [r6, #-4]
    4f6c:	f023 0301 	bic.w	r3, r3, #1
    4f70:	4443      	add	r3, r8
    4f72:	f1a0 0208 	sub.w	r2, r0, #8
    4f76:	429a      	cmp	r2, r3
    4f78:	f000 8144 	beq.w	5204 <_realloc_r+0x300>
    4f7c:	1f22      	subs	r2, r4, #4
    4f7e:	2a24      	cmp	r2, #36	; 0x24
    4f80:	f200 8131 	bhi.w	51e6 <_realloc_r+0x2e2>
    4f84:	2a13      	cmp	r2, #19
    4f86:	f200 8104 	bhi.w	5192 <_realloc_r+0x28e>
    4f8a:	4603      	mov	r3, r0
    4f8c:	4632      	mov	r2, r6
    4f8e:	6811      	ldr	r1, [r2, #0]
    4f90:	6019      	str	r1, [r3, #0]
    4f92:	6851      	ldr	r1, [r2, #4]
    4f94:	6059      	str	r1, [r3, #4]
    4f96:	6892      	ldr	r2, [r2, #8]
    4f98:	609a      	str	r2, [r3, #8]
    4f9a:	4631      	mov	r1, r6
    4f9c:	4648      	mov	r0, r9
    4f9e:	f000 fb57 	bl	5650 <_free_r>
    4fa2:	4648      	mov	r0, r9
    4fa4:	f7ff ffac 	bl	4f00 <__malloc_unlock>
    4fa8:	4638      	mov	r0, r7
    4faa:	b003      	add	sp, #12
    4fac:	e8bd 8ff0 	ldmia.w	sp!, {r4, r5, r6, r7, r8, r9, sl, fp, pc}
    4fb0:	f025 0507 	bic.w	r5, r5, #7
    4fb4:	2d00      	cmp	r5, #0
    4fb6:	462a      	mov	r2, r5
    4fb8:	dabb      	bge.n	4f32 <_realloc_r+0x2e>
    4fba:	230c      	movs	r3, #12
    4fbc:	2000      	movs	r0, #0
    4fbe:	f8c9 3000 	str.w	r3, [r9]
    4fc2:	b003      	add	sp, #12
    4fc4:	e8bd 8ff0 	ldmia.w	sp!, {r4, r5, r6, r7, r8, r9, sl, fp, pc}
    4fc8:	f856 3c08 	ldr.w	r3, [r6, #-8]
    4fcc:	ebc3 0a08 	rsb	sl, r3, r8
    4fd0:	f8da 3004 	ldr.w	r3, [sl, #4]
    4fd4:	f023 0c03 	bic.w	ip, r3, #3
    4fd8:	eb04 030c 	add.w	r3, r4, ip
    4fdc:	4293      	cmp	r3, r2
    4fde:	dbbd      	blt.n	4f5c <_realloc_r+0x58>
    4fe0:	4657      	mov	r7, sl
    4fe2:	f8da 100c 	ldr.w	r1, [sl, #12]
    4fe6:	f857 0f08 	ldr.w	r0, [r7, #8]!
    4fea:	1f22      	subs	r2, r4, #4
    4fec:	2a24      	cmp	r2, #36	; 0x24
    4fee:	60c1      	str	r1, [r0, #12]
    4ff0:	6088      	str	r0, [r1, #8]
    4ff2:	f200 8117 	bhi.w	5224 <_realloc_r+0x320>
    4ff6:	2a13      	cmp	r2, #19
    4ff8:	f240 8112 	bls.w	5220 <_realloc_r+0x31c>
    4ffc:	6831      	ldr	r1, [r6, #0]
    4ffe:	f8ca 1008 	str.w	r1, [sl, #8]
    5002:	6871      	ldr	r1, [r6, #4]
    5004:	f8ca 100c 	str.w	r1, [sl, #12]
    5008:	2a1b      	cmp	r2, #27
    500a:	f200 812b 	bhi.w	5264 <_realloc_r+0x360>
    500e:	3608      	adds	r6, #8
    5010:	f10a 0210 	add.w	r2, sl, #16
    5014:	6831      	ldr	r1, [r6, #0]
    5016:	6011      	str	r1, [r2, #0]
    5018:	6871      	ldr	r1, [r6, #4]
    501a:	6051      	str	r1, [r2, #4]
    501c:	68b1      	ldr	r1, [r6, #8]
    501e:	6091      	str	r1, [r2, #8]
    5020:	463e      	mov	r6, r7
    5022:	461c      	mov	r4, r3
    5024:	46d0      	mov	r8, sl
    5026:	1b63      	subs	r3, r4, r5
    5028:	2b0f      	cmp	r3, #15
    502a:	d81d      	bhi.n	5068 <_realloc_r+0x164>
    502c:	f8d8 3004 	ldr.w	r3, [r8, #4]
    5030:	f003 0301 	and.w	r3, r3, #1
    5034:	4323      	orrs	r3, r4
    5036:	4444      	add	r4, r8
    5038:	f8c8 3004 	str.w	r3, [r8, #4]
    503c:	6863      	ldr	r3, [r4, #4]
    503e:	f043 0301 	orr.w	r3, r3, #1
    5042:	6063      	str	r3, [r4, #4]
    5044:	4648      	mov	r0, r9
    5046:	f7ff ff5b 	bl	4f00 <__malloc_unlock>
    504a:	4630      	mov	r0, r6
    504c:	b003      	add	sp, #12
    504e:	e8bd 8ff0 	ldmia.w	sp!, {r4, r5, r6, r7, r8, r9, sl, fp, pc}
    5052:	f021 0103 	bic.w	r1, r1, #3
    5056:	4421      	add	r1, r4
    5058:	4291      	cmp	r1, r2
    505a:	db21      	blt.n	50a0 <_realloc_r+0x19c>
    505c:	68c3      	ldr	r3, [r0, #12]
    505e:	6882      	ldr	r2, [r0, #8]
    5060:	460c      	mov	r4, r1
    5062:	60d3      	str	r3, [r2, #12]
    5064:	609a      	str	r2, [r3, #8]
    5066:	e7de      	b.n	5026 <_realloc_r+0x122>
    5068:	f8d8 2004 	ldr.w	r2, [r8, #4]
    506c:	eb08 0105 	add.w	r1, r8, r5
    5070:	f002 0201 	and.w	r2, r2, #1
    5074:	4315      	orrs	r5, r2
    5076:	f043 0201 	orr.w	r2, r3, #1
    507a:	440b      	add	r3, r1
    507c:	f8c8 5004 	str.w	r5, [r8, #4]
    5080:	604a      	str	r2, [r1, #4]
    5082:	685a      	ldr	r2, [r3, #4]
    5084:	f042 0201 	orr.w	r2, r2, #1
    5088:	3108      	adds	r1, #8
    508a:	605a      	str	r2, [r3, #4]
    508c:	4648      	mov	r0, r9
    508e:	f000 fadf 	bl	5650 <_free_r>
    5092:	e7d7      	b.n	5044 <_realloc_r+0x140>
    5094:	4611      	mov	r1, r2
    5096:	b003      	add	sp, #12
    5098:	e8bd 4ff0 	ldmia.w	sp!, {r4, r5, r6, r7, r8, r9, sl, fp, lr}
    509c:	f7ff bbae 	b.w	47fc <_malloc_r>
    50a0:	f01e 0f01 	tst.w	lr, #1
    50a4:	f47f af5a 	bne.w	4f5c <_realloc_r+0x58>
    50a8:	f856 3c08 	ldr.w	r3, [r6, #-8]
    50ac:	ebc3 0a08 	rsb	sl, r3, r8
    50b0:	f8da 3004 	ldr.w	r3, [sl, #4]
    50b4:	f023 0c03 	bic.w	ip, r3, #3
    50b8:	eb01 0e0c 	add.w	lr, r1, ip
    50bc:	4596      	cmp	lr, r2
    50be:	db8b      	blt.n	4fd8 <_realloc_r+0xd4>
    50c0:	68c3      	ldr	r3, [r0, #12]
    50c2:	6882      	ldr	r2, [r0, #8]
    50c4:	4657      	mov	r7, sl
    50c6:	60d3      	str	r3, [r2, #12]
    50c8:	609a      	str	r2, [r3, #8]
    50ca:	f857 1f08 	ldr.w	r1, [r7, #8]!
    50ce:	f8da 300c 	ldr.w	r3, [sl, #12]
    50d2:	60cb      	str	r3, [r1, #12]
    50d4:	1f22      	subs	r2, r4, #4
    50d6:	2a24      	cmp	r2, #36	; 0x24
    50d8:	6099      	str	r1, [r3, #8]
    50da:	f200 8099 	bhi.w	5210 <_realloc_r+0x30c>
    50de:	2a13      	cmp	r2, #19
    50e0:	d962      	bls.n	51a8 <_realloc_r+0x2a4>
    50e2:	6833      	ldr	r3, [r6, #0]
    50e4:	f8ca 3008 	str.w	r3, [sl, #8]
    50e8:	6873      	ldr	r3, [r6, #4]
    50ea:	f8ca 300c 	str.w	r3, [sl, #12]
    50ee:	2a1b      	cmp	r2, #27
    50f0:	f200 80a0 	bhi.w	5234 <_realloc_r+0x330>
    50f4:	3608      	adds	r6, #8
    50f6:	f10a 0310 	add.w	r3, sl, #16
    50fa:	e056      	b.n	51aa <_realloc_r+0x2a6>
    50fc:	f021 0b03 	bic.w	fp, r1, #3
    5100:	44a3      	add	fp, r4
    5102:	f105 0010 	add.w	r0, r5, #16
    5106:	4583      	cmp	fp, r0
    5108:	da59      	bge.n	51be <_realloc_r+0x2ba>
    510a:	f01e 0f01 	tst.w	lr, #1
    510e:	f47f af25 	bne.w	4f5c <_realloc_r+0x58>
    5112:	f856 1c08 	ldr.w	r1, [r6, #-8]
    5116:	ebc1 0a08 	rsb	sl, r1, r8
    511a:	f8da 1004 	ldr.w	r1, [sl, #4]
    511e:	f021 0c03 	bic.w	ip, r1, #3
    5122:	44e3      	add	fp, ip
    5124:	4558      	cmp	r0, fp
    5126:	f73f af57 	bgt.w	4fd8 <_realloc_r+0xd4>
    512a:	4657      	mov	r7, sl
    512c:	f8da 100c 	ldr.w	r1, [sl, #12]
    5130:	f857 0f08 	ldr.w	r0, [r7, #8]!
    5134:	1f22      	subs	r2, r4, #4
    5136:	2a24      	cmp	r2, #36	; 0x24
    5138:	60c1      	str	r1, [r0, #12]
    513a:	6088      	str	r0, [r1, #8]
    513c:	f200 80b4 	bhi.w	52a8 <_realloc_r+0x3a4>
    5140:	2a13      	cmp	r2, #19
    5142:	f240 80a5 	bls.w	5290 <_realloc_r+0x38c>
    5146:	6831      	ldr	r1, [r6, #0]
    5148:	f8ca 1008 	str.w	r1, [sl, #8]
    514c:	6871      	ldr	r1, [r6, #4]
    514e:	f8ca 100c 	str.w	r1, [sl, #12]
    5152:	2a1b      	cmp	r2, #27
    5154:	f200 80af 	bhi.w	52b6 <_realloc_r+0x3b2>
    5158:	3608      	adds	r6, #8
    515a:	f10a 0210 	add.w	r2, sl, #16
    515e:	6831      	ldr	r1, [r6, #0]
    5160:	6011      	str	r1, [r2, #0]
    5162:	6871      	ldr	r1, [r6, #4]
    5164:	6051      	str	r1, [r2, #4]
    5166:	68b1      	ldr	r1, [r6, #8]
    5168:	6091      	str	r1, [r2, #8]
    516a:	eb0a 0105 	add.w	r1, sl, r5
    516e:	ebc5 020b 	rsb	r2, r5, fp
    5172:	f042 0201 	orr.w	r2, r2, #1
    5176:	6099      	str	r1, [r3, #8]
    5178:	604a      	str	r2, [r1, #4]
    517a:	f8da 3004 	ldr.w	r3, [sl, #4]
    517e:	f003 0301 	and.w	r3, r3, #1
    5182:	431d      	orrs	r5, r3
    5184:	4648      	mov	r0, r9
    5186:	f8ca 5004 	str.w	r5, [sl, #4]
    518a:	f7ff feb9 	bl	4f00 <__malloc_unlock>
    518e:	4638      	mov	r0, r7
    5190:	e75c      	b.n	504c <_realloc_r+0x148>
    5192:	6833      	ldr	r3, [r6, #0]
    5194:	6003      	str	r3, [r0, #0]
    5196:	6873      	ldr	r3, [r6, #4]
    5198:	6043      	str	r3, [r0, #4]
    519a:	2a1b      	cmp	r2, #27
    519c:	d827      	bhi.n	51ee <_realloc_r+0x2ea>
    519e:	f100 0308 	add.w	r3, r0, #8
    51a2:	f106 0208 	add.w	r2, r6, #8
    51a6:	e6f2      	b.n	4f8e <_realloc_r+0x8a>
    51a8:	463b      	mov	r3, r7
    51aa:	6832      	ldr	r2, [r6, #0]
    51ac:	601a      	str	r2, [r3, #0]
    51ae:	6872      	ldr	r2, [r6, #4]
    51b0:	605a      	str	r2, [r3, #4]
    51b2:	68b2      	ldr	r2, [r6, #8]
    51b4:	609a      	str	r2, [r3, #8]
    51b6:	463e      	mov	r6, r7
    51b8:	4674      	mov	r4, lr
    51ba:	46d0      	mov	r8, sl
    51bc:	e733      	b.n	5026 <_realloc_r+0x122>
    51be:	eb08 0105 	add.w	r1, r8, r5
    51c2:	ebc5 0b0b 	rsb	fp, r5, fp
    51c6:	f04b 0201 	orr.w	r2, fp, #1
    51ca:	6099      	str	r1, [r3, #8]
    51cc:	604a      	str	r2, [r1, #4]
    51ce:	f856 3c04 	ldr.w	r3, [r6, #-4]
    51d2:	f003 0301 	and.w	r3, r3, #1
    51d6:	431d      	orrs	r5, r3
    51d8:	4648      	mov	r0, r9
    51da:	f846 5c04 	str.w	r5, [r6, #-4]
    51de:	f7ff fe8f 	bl	4f00 <__malloc_unlock>
    51e2:	4630      	mov	r0, r6
    51e4:	e732      	b.n	504c <_realloc_r+0x148>
    51e6:	4631      	mov	r1, r6
    51e8:	f7ff fdd6 	bl	4d98 <memmove>
    51ec:	e6d5      	b.n	4f9a <_realloc_r+0x96>
    51ee:	68b3      	ldr	r3, [r6, #8]
    51f0:	6083      	str	r3, [r0, #8]
    51f2:	68f3      	ldr	r3, [r6, #12]
    51f4:	60c3      	str	r3, [r0, #12]
    51f6:	2a24      	cmp	r2, #36	; 0x24
    51f8:	d028      	beq.n	524c <_realloc_r+0x348>
    51fa:	f100 0310 	add.w	r3, r0, #16
    51fe:	f106 0210 	add.w	r2, r6, #16
    5202:	e6c4      	b.n	4f8e <_realloc_r+0x8a>
    5204:	f850 3c04 	ldr.w	r3, [r0, #-4]
    5208:	f023 0303 	bic.w	r3, r3, #3
    520c:	441c      	add	r4, r3
    520e:	e70a      	b.n	5026 <_realloc_r+0x122>
    5210:	4631      	mov	r1, r6
    5212:	4638      	mov	r0, r7
    5214:	4674      	mov	r4, lr
    5216:	46d0      	mov	r8, sl
    5218:	f7ff fdbe 	bl	4d98 <memmove>
    521c:	463e      	mov	r6, r7
    521e:	e702      	b.n	5026 <_realloc_r+0x122>
    5220:	463a      	mov	r2, r7
    5222:	e6f7      	b.n	5014 <_realloc_r+0x110>
    5224:	4631      	mov	r1, r6
    5226:	4638      	mov	r0, r7
    5228:	461c      	mov	r4, r3
    522a:	46d0      	mov	r8, sl
    522c:	f7ff fdb4 	bl	4d98 <memmove>
    5230:	463e      	mov	r6, r7
    5232:	e6f8      	b.n	5026 <_realloc_r+0x122>
    5234:	68b3      	ldr	r3, [r6, #8]
    5236:	f8ca 3010 	str.w	r3, [sl, #16]
    523a:	68f3      	ldr	r3, [r6, #12]
    523c:	f8ca 3014 	str.w	r3, [sl, #20]
    5240:	2a24      	cmp	r2, #36	; 0x24
    5242:	d01b      	beq.n	527c <_realloc_r+0x378>
    5244:	3610      	adds	r6, #16
    5246:	f10a 0318 	add.w	r3, sl, #24
    524a:	e7ae      	b.n	51aa <_realloc_r+0x2a6>
    524c:	6933      	ldr	r3, [r6, #16]
    524e:	6103      	str	r3, [r0, #16]
    5250:	6973      	ldr	r3, [r6, #20]
    5252:	6143      	str	r3, [r0, #20]
    5254:	f106 0218 	add.w	r2, r6, #24
    5258:	f100 0318 	add.w	r3, r0, #24
    525c:	e697      	b.n	4f8e <_realloc_r+0x8a>
    525e:	bf00      	nop
    5260:	1fff9418 	.word	0x1fff9418
    5264:	68b1      	ldr	r1, [r6, #8]
    5266:	f8ca 1010 	str.w	r1, [sl, #16]
    526a:	68f1      	ldr	r1, [r6, #12]
    526c:	f8ca 1014 	str.w	r1, [sl, #20]
    5270:	2a24      	cmp	r2, #36	; 0x24
    5272:	d00f      	beq.n	5294 <_realloc_r+0x390>
    5274:	3610      	adds	r6, #16
    5276:	f10a 0218 	add.w	r2, sl, #24
    527a:	e6cb      	b.n	5014 <_realloc_r+0x110>
    527c:	6933      	ldr	r3, [r6, #16]
    527e:	f8ca 3018 	str.w	r3, [sl, #24]
    5282:	6973      	ldr	r3, [r6, #20]
    5284:	f8ca 301c 	str.w	r3, [sl, #28]
    5288:	3618      	adds	r6, #24
    528a:	f10a 0320 	add.w	r3, sl, #32
    528e:	e78c      	b.n	51aa <_realloc_r+0x2a6>
    5290:	463a      	mov	r2, r7
    5292:	e764      	b.n	515e <_realloc_r+0x25a>
    5294:	6932      	ldr	r2, [r6, #16]
    5296:	f8ca 2018 	str.w	r2, [sl, #24]
    529a:	6972      	ldr	r2, [r6, #20]
    529c:	f8ca 201c 	str.w	r2, [sl, #28]
    52a0:	3618      	adds	r6, #24
    52a2:	f10a 0220 	add.w	r2, sl, #32
    52a6:	e6b5      	b.n	5014 <_realloc_r+0x110>
    52a8:	4631      	mov	r1, r6
    52aa:	4638      	mov	r0, r7
    52ac:	9301      	str	r3, [sp, #4]
    52ae:	f7ff fd73 	bl	4d98 <memmove>
    52b2:	9b01      	ldr	r3, [sp, #4]
    52b4:	e759      	b.n	516a <_realloc_r+0x266>
    52b6:	68b1      	ldr	r1, [r6, #8]
    52b8:	f8ca 1010 	str.w	r1, [sl, #16]
    52bc:	68f1      	ldr	r1, [r6, #12]
    52be:	f8ca 1014 	str.w	r1, [sl, #20]
    52c2:	2a24      	cmp	r2, #36	; 0x24
    52c4:	d003      	beq.n	52ce <_realloc_r+0x3ca>
    52c6:	3610      	adds	r6, #16
    52c8:	f10a 0218 	add.w	r2, sl, #24
    52cc:	e747      	b.n	515e <_realloc_r+0x25a>
    52ce:	6932      	ldr	r2, [r6, #16]
    52d0:	f8ca 2018 	str.w	r2, [sl, #24]
    52d4:	6972      	ldr	r2, [r6, #20]
    52d6:	f8ca 201c 	str.w	r2, [sl, #28]
    52da:	3618      	adds	r6, #24
    52dc:	f10a 0220 	add.w	r2, sl, #32
    52e0:	e73d      	b.n	515e <_realloc_r+0x25a>
    52e2:	bf00      	nop

000052e4 <_sbrk_r>:
    52e4:	b538      	push	{r3, r4, r5, lr}
    52e6:	4c07      	ldr	r4, [pc, #28]	; (5304 <_sbrk_r+0x20>)
    52e8:	2300      	movs	r3, #0
    52ea:	4605      	mov	r5, r0
    52ec:	4608      	mov	r0, r1
    52ee:	6023      	str	r3, [r4, #0]
    52f0:	f7fc ffca 	bl	2288 <_sbrk>
    52f4:	1c43      	adds	r3, r0, #1
    52f6:	d000      	beq.n	52fa <_sbrk_r+0x16>
    52f8:	bd38      	pop	{r3, r4, r5, pc}
    52fa:	6823      	ldr	r3, [r4, #0]
    52fc:	2b00      	cmp	r3, #0
    52fe:	d0fb      	beq.n	52f8 <_sbrk_r+0x14>
    5300:	602b      	str	r3, [r5, #0]
    5302:	bd38      	pop	{r3, r4, r5, pc}
    5304:	1fff9bfc 	.word	0x1fff9bfc
    5308:	ffffffff 	.word	0xffffffff
    530c:	ffffffff 	.word	0xffffffff
    5310:	ffffffff 	.word	0xffffffff
    5314:	ffffffff 	.word	0xffffffff
    5318:	ffffffff 	.word	0xffffffff
    531c:	ffffffff 	.word	0xffffffff
    5320:	ffffffff 	.word	0xffffffff
    5324:	ffffffff 	.word	0xffffffff
    5328:	ffffffff 	.word	0xffffffff
    532c:	ffffffff 	.word	0xffffffff
    5330:	ffffffff 	.word	0xffffffff
    5334:	ffffffff 	.word	0xffffffff
    5338:	ffffffff 	.word	0xffffffff
    533c:	ffffffff 	.word	0xffffffff

00005340 <strlen>:
    5340:	f890 f000 	pld	[r0]
    5344:	e96d 4502 	strd	r4, r5, [sp, #-8]!
    5348:	f020 0107 	bic.w	r1, r0, #7
    534c:	f06f 0c00 	mvn.w	ip, #0
    5350:	f010 0407 	ands.w	r4, r0, #7
    5354:	f891 f020 	pld	[r1, #32]
    5358:	f040 8049 	bne.w	53ee <strlen+0xae>
    535c:	f04f 0400 	mov.w	r4, #0
    5360:	f06f 0007 	mvn.w	r0, #7
    5364:	e9d1 2300 	ldrd	r2, r3, [r1]
    5368:	f891 f040 	pld	[r1, #64]	; 0x40
    536c:	f100 0008 	add.w	r0, r0, #8
    5370:	fa82 f24c 	uadd8	r2, r2, ip
    5374:	faa4 f28c 	sel	r2, r4, ip
    5378:	fa83 f34c 	uadd8	r3, r3, ip
    537c:	faa2 f38c 	sel	r3, r2, ip
    5380:	bb4b      	cbnz	r3, 53d6 <strlen+0x96>
    5382:	e9d1 2302 	ldrd	r2, r3, [r1, #8]
    5386:	fa82 f24c 	uadd8	r2, r2, ip
    538a:	f100 0008 	add.w	r0, r0, #8
    538e:	faa4 f28c 	sel	r2, r4, ip
    5392:	fa83 f34c 	uadd8	r3, r3, ip
    5396:	faa2 f38c 	sel	r3, r2, ip
    539a:	b9e3      	cbnz	r3, 53d6 <strlen+0x96>
    539c:	e9d1 2304 	ldrd	r2, r3, [r1, #16]
    53a0:	fa82 f24c 	uadd8	r2, r2, ip
    53a4:	f100 0008 	add.w	r0, r0, #8
    53a8:	faa4 f28c 	sel	r2, r4, ip
    53ac:	fa83 f34c 	uadd8	r3, r3, ip
    53b0:	faa2 f38c 	sel	r3, r2, ip
    53b4:	b97b      	cbnz	r3, 53d6 <strlen+0x96>
    53b6:	e9d1 2306 	ldrd	r2, r3, [r1, #24]
    53ba:	f101 0120 	add.w	r1, r1, #32
    53be:	fa82 f24c 	uadd8	r2, r2, ip
    53c2:	f100 0008 	add.w	r0, r0, #8
    53c6:	faa4 f28c 	sel	r2, r4, ip
    53ca:	fa83 f34c 	uadd8	r3, r3, ip
    53ce:	faa2 f38c 	sel	r3, r2, ip
    53d2:	2b00      	cmp	r3, #0
    53d4:	d0c6      	beq.n	5364 <strlen+0x24>
    53d6:	2a00      	cmp	r2, #0
    53d8:	bf04      	itt	eq
    53da:	3004      	addeq	r0, #4
    53dc:	461a      	moveq	r2, r3
    53de:	ba12      	rev	r2, r2
    53e0:	fab2 f282 	clz	r2, r2
    53e4:	e8fd 4502 	ldrd	r4, r5, [sp], #8
    53e8:	eb00 00d2 	add.w	r0, r0, r2, lsr #3
    53ec:	4770      	bx	lr
    53ee:	e9d1 2300 	ldrd	r2, r3, [r1]
    53f2:	f004 0503 	and.w	r5, r4, #3
    53f6:	f1c4 0000 	rsb	r0, r4, #0
    53fa:	ea4f 05c5 	mov.w	r5, r5, lsl #3
    53fe:	f014 0f04 	tst.w	r4, #4
    5402:	f891 f040 	pld	[r1, #64]	; 0x40
    5406:	fa0c f505 	lsl.w	r5, ip, r5
    540a:	ea62 0205 	orn	r2, r2, r5
    540e:	bf1c      	itt	ne
    5410:	ea63 0305 	ornne	r3, r3, r5
    5414:	4662      	movne	r2, ip
    5416:	f04f 0400 	mov.w	r4, #0
    541a:	e7a9      	b.n	5370 <strlen+0x30>

0000541c <_vdprintf_r>:
    541c:	b5f0      	push	{r4, r5, r6, r7, lr}
    541e:	f5ad 7d05 	sub.w	sp, sp, #532	; 0x214
    5422:	ad04      	add	r5, sp, #16
    5424:	9300      	str	r3, [sp, #0]
    5426:	460f      	mov	r7, r1
    5428:	4613      	mov	r3, r2
    542a:	f44f 7400 	mov.w	r4, #512	; 0x200
    542e:	aa03      	add	r2, sp, #12
    5430:	4629      	mov	r1, r5
    5432:	9403      	str	r4, [sp, #12]
    5434:	4606      	mov	r6, r0
    5436:	f000 fd61 	bl	5efc <_vasnprintf_r>
    543a:	b188      	cbz	r0, 5460 <_vdprintf_r+0x44>
    543c:	4604      	mov	r4, r0
    543e:	4602      	mov	r2, r0
    5440:	4639      	mov	r1, r7
    5442:	9b03      	ldr	r3, [sp, #12]
    5444:	4630      	mov	r0, r6
    5446:	f000 f829 	bl	549c <_write_r>
    544a:	42ac      	cmp	r4, r5
    544c:	9003      	str	r0, [sp, #12]
    544e:	d004      	beq.n	545a <_vdprintf_r+0x3e>
    5450:	4630      	mov	r0, r6
    5452:	4621      	mov	r1, r4
    5454:	f000 f8fc 	bl	5650 <_free_r>
    5458:	9803      	ldr	r0, [sp, #12]
    545a:	f50d 7d05 	add.w	sp, sp, #532	; 0x214
    545e:	bdf0      	pop	{r4, r5, r6, r7, pc}
    5460:	f04f 30ff 	mov.w	r0, #4294967295	; 0xffffffff
    5464:	e7f9      	b.n	545a <_vdprintf_r+0x3e>
    5466:	bf00      	nop

00005468 <vdprintf>:
    5468:	b410      	push	{r4}
    546a:	4c04      	ldr	r4, [pc, #16]	; (547c <vdprintf+0x14>)
    546c:	4613      	mov	r3, r2
    546e:	460a      	mov	r2, r1
    5470:	4601      	mov	r1, r0
    5472:	6820      	ldr	r0, [r4, #0]
    5474:	bc10      	pop	{r4}
    5476:	f7ff bfd1 	b.w	541c <_vdprintf_r>
    547a:	bf00      	nop
    547c:	1fff92a8 	.word	0x1fff92a8

00005480 <__ascii_wctomb>:
    5480:	b121      	cbz	r1, 548c <__ascii_wctomb+0xc>
    5482:	2aff      	cmp	r2, #255	; 0xff
    5484:	d804      	bhi.n	5490 <__ascii_wctomb+0x10>
    5486:	700a      	strb	r2, [r1, #0]
    5488:	2001      	movs	r0, #1
    548a:	4770      	bx	lr
    548c:	4608      	mov	r0, r1
    548e:	4770      	bx	lr
    5490:	238a      	movs	r3, #138	; 0x8a
    5492:	6003      	str	r3, [r0, #0]
    5494:	f04f 30ff 	mov.w	r0, #4294967295	; 0xffffffff
    5498:	4770      	bx	lr
    549a:	bf00      	nop

0000549c <_write_r>:
    549c:	b570      	push	{r4, r5, r6, lr}
    549e:	460d      	mov	r5, r1
    54a0:	4c08      	ldr	r4, [pc, #32]	; (54c4 <_write_r+0x28>)
    54a2:	4611      	mov	r1, r2
    54a4:	4606      	mov	r6, r0
    54a6:	461a      	mov	r2, r3
    54a8:	4628      	mov	r0, r5
    54aa:	2300      	movs	r3, #0
    54ac:	6023      	str	r3, [r4, #0]
    54ae:	f7fe f80d 	bl	34cc <_write>
    54b2:	1c43      	adds	r3, r0, #1
    54b4:	d000      	beq.n	54b8 <_write_r+0x1c>
    54b6:	bd70      	pop	{r4, r5, r6, pc}
    54b8:	6823      	ldr	r3, [r4, #0]
    54ba:	2b00      	cmp	r3, #0
    54bc:	d0fb      	beq.n	54b6 <_write_r+0x1a>
    54be:	6033      	str	r3, [r6, #0]
    54c0:	bd70      	pop	{r4, r5, r6, pc}
    54c2:	bf00      	nop
    54c4:	1fff9bfc 	.word	0x1fff9bfc

000054c8 <__register_exitproc>:
    54c8:	e92d 47f0 	stmdb	sp!, {r4, r5, r6, r7, r8, r9, sl, lr}
    54cc:	4c25      	ldr	r4, [pc, #148]	; (5564 <__register_exitproc+0x9c>)
    54ce:	6825      	ldr	r5, [r4, #0]
    54d0:	f8d5 4148 	ldr.w	r4, [r5, #328]	; 0x148
    54d4:	4606      	mov	r6, r0
    54d6:	4688      	mov	r8, r1
    54d8:	4692      	mov	sl, r2
    54da:	4699      	mov	r9, r3
    54dc:	b3c4      	cbz	r4, 5550 <__register_exitproc+0x88>
    54de:	6860      	ldr	r0, [r4, #4]
    54e0:	281f      	cmp	r0, #31
    54e2:	dc17      	bgt.n	5514 <__register_exitproc+0x4c>
    54e4:	1c43      	adds	r3, r0, #1
    54e6:	b176      	cbz	r6, 5506 <__register_exitproc+0x3e>
    54e8:	eb04 0580 	add.w	r5, r4, r0, lsl #2
    54ec:	2201      	movs	r2, #1
    54ee:	f8c5 a088 	str.w	sl, [r5, #136]	; 0x88
    54f2:	f8d4 1188 	ldr.w	r1, [r4, #392]	; 0x188
    54f6:	4082      	lsls	r2, r0
    54f8:	4311      	orrs	r1, r2
    54fa:	2e02      	cmp	r6, #2
    54fc:	f8c4 1188 	str.w	r1, [r4, #392]	; 0x188
    5500:	f8c5 9108 	str.w	r9, [r5, #264]	; 0x108
    5504:	d01e      	beq.n	5544 <__register_exitproc+0x7c>
    5506:	3002      	adds	r0, #2
    5508:	6063      	str	r3, [r4, #4]
    550a:	f844 8020 	str.w	r8, [r4, r0, lsl #2]
    550e:	2000      	movs	r0, #0
    5510:	e8bd 87f0 	ldmia.w	sp!, {r4, r5, r6, r7, r8, r9, sl, pc}
    5514:	4b14      	ldr	r3, [pc, #80]	; (5568 <__register_exitproc+0xa0>)
    5516:	b303      	cbz	r3, 555a <__register_exitproc+0x92>
    5518:	f44f 70c8 	mov.w	r0, #400	; 0x190
    551c:	f7ff f95e 	bl	47dc <malloc>
    5520:	4604      	mov	r4, r0
    5522:	b1d0      	cbz	r0, 555a <__register_exitproc+0x92>
    5524:	f8d5 3148 	ldr.w	r3, [r5, #328]	; 0x148
    5528:	2700      	movs	r7, #0
    552a:	e880 0088 	stmia.w	r0, {r3, r7}
    552e:	f8c5 4148 	str.w	r4, [r5, #328]	; 0x148
    5532:	4638      	mov	r0, r7
    5534:	2301      	movs	r3, #1
    5536:	f8c4 7188 	str.w	r7, [r4, #392]	; 0x188
    553a:	f8c4 718c 	str.w	r7, [r4, #396]	; 0x18c
    553e:	2e00      	cmp	r6, #0
    5540:	d0e1      	beq.n	5506 <__register_exitproc+0x3e>
    5542:	e7d1      	b.n	54e8 <__register_exitproc+0x20>
    5544:	f8d4 118c 	ldr.w	r1, [r4, #396]	; 0x18c
    5548:	430a      	orrs	r2, r1
    554a:	f8c4 218c 	str.w	r2, [r4, #396]	; 0x18c
    554e:	e7da      	b.n	5506 <__register_exitproc+0x3e>
    5550:	f505 74a6 	add.w	r4, r5, #332	; 0x14c
    5554:	f8c5 4148 	str.w	r4, [r5, #328]	; 0x148
    5558:	e7c1      	b.n	54de <__register_exitproc+0x16>
    555a:	f04f 30ff 	mov.w	r0, #4294967295	; 0xffffffff
    555e:	e8bd 87f0 	ldmia.w	sp!, {r4, r5, r6, r7, r8, r9, sl, pc}
    5562:	bf00      	nop
    5564:	00008fc0 	.word	0x00008fc0
    5568:	000047dd 	.word	0x000047dd

0000556c <register_fini>:
    556c:	4b02      	ldr	r3, [pc, #8]	; (5578 <register_fini+0xc>)
    556e:	b113      	cbz	r3, 5576 <register_fini+0xa>
    5570:	4802      	ldr	r0, [pc, #8]	; (557c <register_fini+0x10>)
    5572:	f000 b805 	b.w	5580 <atexit>
    5576:	4770      	bx	lr
    5578:	00000000 	.word	0x00000000
    557c:	0000558d 	.word	0x0000558d

00005580 <atexit>:
    5580:	2300      	movs	r3, #0
    5582:	4601      	mov	r1, r0
    5584:	461a      	mov	r2, r3
    5586:	4618      	mov	r0, r3
    5588:	f7ff bf9e 	b.w	54c8 <__register_exitproc>

0000558c <__libc_fini_array>:
    558c:	b538      	push	{r3, r4, r5, lr}
    558e:	4d07      	ldr	r5, [pc, #28]	; (55ac <__libc_fini_array+0x20>)
    5590:	4c07      	ldr	r4, [pc, #28]	; (55b0 <__libc_fini_array+0x24>)
    5592:	1b2c      	subs	r4, r5, r4
    5594:	10a4      	asrs	r4, r4, #2
    5596:	d005      	beq.n	55a4 <__libc_fini_array+0x18>
    5598:	3c01      	subs	r4, #1
    559a:	f855 3d04 	ldr.w	r3, [r5, #-4]!
    559e:	4798      	blx	r3
    55a0:	2c00      	cmp	r4, #0
    55a2:	d1f9      	bne.n	5598 <__libc_fini_array+0xc>
    55a4:	e8bd 4038 	ldmia.w	sp!, {r3, r4, r5, lr}
    55a8:	f003 be5e 	b.w	9268 <__init_array_end>
	...

000055b4 <_malloc_trim_r>:
    55b4:	b5f8      	push	{r3, r4, r5, r6, r7, lr}
    55b6:	4f23      	ldr	r7, [pc, #140]	; (5644 <_malloc_trim_r+0x90>)
    55b8:	460c      	mov	r4, r1
    55ba:	4606      	mov	r6, r0
    55bc:	f7ff fc9e 	bl	4efc <__malloc_lock>
    55c0:	68bb      	ldr	r3, [r7, #8]
    55c2:	685d      	ldr	r5, [r3, #4]
    55c4:	f025 0503 	bic.w	r5, r5, #3
    55c8:	1b29      	subs	r1, r5, r4
    55ca:	f601 71ef 	addw	r1, r1, #4079	; 0xfef
    55ce:	f421 617f 	bic.w	r1, r1, #4080	; 0xff0
    55d2:	f021 010f 	bic.w	r1, r1, #15
    55d6:	f5a1 5480 	sub.w	r4, r1, #4096	; 0x1000
    55da:	f5b4 5f80 	cmp.w	r4, #4096	; 0x1000
    55de:	db07      	blt.n	55f0 <_malloc_trim_r+0x3c>
    55e0:	2100      	movs	r1, #0
    55e2:	4630      	mov	r0, r6
    55e4:	f7ff fe7e 	bl	52e4 <_sbrk_r>
    55e8:	68bb      	ldr	r3, [r7, #8]
    55ea:	442b      	add	r3, r5
    55ec:	4298      	cmp	r0, r3
    55ee:	d004      	beq.n	55fa <_malloc_trim_r+0x46>
    55f0:	4630      	mov	r0, r6
    55f2:	f7ff fc85 	bl	4f00 <__malloc_unlock>
    55f6:	2000      	movs	r0, #0
    55f8:	bdf8      	pop	{r3, r4, r5, r6, r7, pc}
    55fa:	4261      	negs	r1, r4
    55fc:	4630      	mov	r0, r6
    55fe:	f7ff fe71 	bl	52e4 <_sbrk_r>
    5602:	3001      	adds	r0, #1
    5604:	d00d      	beq.n	5622 <_malloc_trim_r+0x6e>
    5606:	4b10      	ldr	r3, [pc, #64]	; (5648 <_malloc_trim_r+0x94>)
    5608:	68ba      	ldr	r2, [r7, #8]
    560a:	6819      	ldr	r1, [r3, #0]
    560c:	1b2d      	subs	r5, r5, r4
    560e:	f045 0501 	orr.w	r5, r5, #1
    5612:	4630      	mov	r0, r6
    5614:	1b09      	subs	r1, r1, r4
    5616:	6055      	str	r5, [r2, #4]
    5618:	6019      	str	r1, [r3, #0]
    561a:	f7ff fc71 	bl	4f00 <__malloc_unlock>
    561e:	2001      	movs	r0, #1
    5620:	bdf8      	pop	{r3, r4, r5, r6, r7, pc}
    5622:	2100      	movs	r1, #0
    5624:	4630      	mov	r0, r6
    5626:	f7ff fe5d 	bl	52e4 <_sbrk_r>
    562a:	68ba      	ldr	r2, [r7, #8]
    562c:	1a83      	subs	r3, r0, r2
    562e:	2b0f      	cmp	r3, #15
    5630:	ddde      	ble.n	55f0 <_malloc_trim_r+0x3c>
    5632:	4c06      	ldr	r4, [pc, #24]	; (564c <_malloc_trim_r+0x98>)
    5634:	4904      	ldr	r1, [pc, #16]	; (5648 <_malloc_trim_r+0x94>)
    5636:	6824      	ldr	r4, [r4, #0]
    5638:	f043 0301 	orr.w	r3, r3, #1
    563c:	1b00      	subs	r0, r0, r4
    563e:	6053      	str	r3, [r2, #4]
    5640:	6008      	str	r0, [r1, #0]
    5642:	e7d5      	b.n	55f0 <_malloc_trim_r+0x3c>
    5644:	1fff9418 	.word	0x1fff9418
    5648:	1fff9bc0 	.word	0x1fff9bc0
    564c:	1fff9824 	.word	0x1fff9824

00005650 <_free_r>:
    5650:	2900      	cmp	r1, #0
    5652:	d045      	beq.n	56e0 <_free_r+0x90>
    5654:	e92d 41f0 	stmdb	sp!, {r4, r5, r6, r7, r8, lr}
    5658:	460d      	mov	r5, r1
    565a:	4680      	mov	r8, r0
    565c:	f7ff fc4e 	bl	4efc <__malloc_lock>
    5660:	f855 7c04 	ldr.w	r7, [r5, #-4]
    5664:	496a      	ldr	r1, [pc, #424]	; (5810 <_free_r+0x1c0>)
    5666:	f027 0301 	bic.w	r3, r7, #1
    566a:	f1a5 0408 	sub.w	r4, r5, #8
    566e:	18e2      	adds	r2, r4, r3
    5670:	688e      	ldr	r6, [r1, #8]
    5672:	6850      	ldr	r0, [r2, #4]
    5674:	42b2      	cmp	r2, r6
    5676:	f020 0003 	bic.w	r0, r0, #3
    567a:	d062      	beq.n	5742 <_free_r+0xf2>
    567c:	07fe      	lsls	r6, r7, #31
    567e:	6050      	str	r0, [r2, #4]
    5680:	d40b      	bmi.n	569a <_free_r+0x4a>
    5682:	f855 7c08 	ldr.w	r7, [r5, #-8]
    5686:	1be4      	subs	r4, r4, r7
    5688:	f101 0e08 	add.w	lr, r1, #8
    568c:	68a5      	ldr	r5, [r4, #8]
    568e:	4575      	cmp	r5, lr
    5690:	443b      	add	r3, r7
    5692:	d06f      	beq.n	5774 <_free_r+0x124>
    5694:	68e7      	ldr	r7, [r4, #12]
    5696:	60ef      	str	r7, [r5, #12]
    5698:	60bd      	str	r5, [r7, #8]
    569a:	1815      	adds	r5, r2, r0
    569c:	686d      	ldr	r5, [r5, #4]
    569e:	07ed      	lsls	r5, r5, #31
    56a0:	d542      	bpl.n	5728 <_free_r+0xd8>
    56a2:	f043 0201 	orr.w	r2, r3, #1
    56a6:	6062      	str	r2, [r4, #4]
    56a8:	50e3      	str	r3, [r4, r3]
    56aa:	f5b3 7f00 	cmp.w	r3, #512	; 0x200
    56ae:	d218      	bcs.n	56e2 <_free_r+0x92>
    56b0:	08db      	lsrs	r3, r3, #3
    56b2:	1c5a      	adds	r2, r3, #1
    56b4:	684d      	ldr	r5, [r1, #4]
    56b6:	f851 7032 	ldr.w	r7, [r1, r2, lsl #3]
    56ba:	60a7      	str	r7, [r4, #8]
    56bc:	2001      	movs	r0, #1
    56be:	109b      	asrs	r3, r3, #2
    56c0:	fa00 f303 	lsl.w	r3, r0, r3
    56c4:	eb01 00c2 	add.w	r0, r1, r2, lsl #3
    56c8:	431d      	orrs	r5, r3
    56ca:	3808      	subs	r0, #8
    56cc:	60e0      	str	r0, [r4, #12]
    56ce:	604d      	str	r5, [r1, #4]
    56d0:	f841 4032 	str.w	r4, [r1, r2, lsl #3]
    56d4:	60fc      	str	r4, [r7, #12]
    56d6:	4640      	mov	r0, r8
    56d8:	e8bd 41f0 	ldmia.w	sp!, {r4, r5, r6, r7, r8, lr}
    56dc:	f7ff bc10 	b.w	4f00 <__malloc_unlock>
    56e0:	4770      	bx	lr
    56e2:	0a5a      	lsrs	r2, r3, #9
    56e4:	2a04      	cmp	r2, #4
    56e6:	d853      	bhi.n	5790 <_free_r+0x140>
    56e8:	099a      	lsrs	r2, r3, #6
    56ea:	f102 0739 	add.w	r7, r2, #57	; 0x39
    56ee:	007f      	lsls	r7, r7, #1
    56f0:	f102 0538 	add.w	r5, r2, #56	; 0x38
    56f4:	eb01 0087 	add.w	r0, r1, r7, lsl #2
    56f8:	f851 2027 	ldr.w	r2, [r1, r7, lsl #2]
    56fc:	4944      	ldr	r1, [pc, #272]	; (5810 <_free_r+0x1c0>)
    56fe:	3808      	subs	r0, #8
    5700:	4290      	cmp	r0, r2
    5702:	d04d      	beq.n	57a0 <_free_r+0x150>
    5704:	6851      	ldr	r1, [r2, #4]
    5706:	f021 0103 	bic.w	r1, r1, #3
    570a:	428b      	cmp	r3, r1
    570c:	d202      	bcs.n	5714 <_free_r+0xc4>
    570e:	6892      	ldr	r2, [r2, #8]
    5710:	4290      	cmp	r0, r2
    5712:	d1f7      	bne.n	5704 <_free_r+0xb4>
    5714:	68d0      	ldr	r0, [r2, #12]
    5716:	60e0      	str	r0, [r4, #12]
    5718:	60a2      	str	r2, [r4, #8]
    571a:	6084      	str	r4, [r0, #8]
    571c:	60d4      	str	r4, [r2, #12]
    571e:	4640      	mov	r0, r8
    5720:	e8bd 41f0 	ldmia.w	sp!, {r4, r5, r6, r7, r8, lr}
    5724:	f7ff bbec 	b.w	4f00 <__malloc_unlock>
    5728:	6895      	ldr	r5, [r2, #8]
    572a:	4f3a      	ldr	r7, [pc, #232]	; (5814 <_free_r+0x1c4>)
    572c:	42bd      	cmp	r5, r7
    572e:	4403      	add	r3, r0
    5730:	d03f      	beq.n	57b2 <_free_r+0x162>
    5732:	68d0      	ldr	r0, [r2, #12]
    5734:	60e8      	str	r0, [r5, #12]
    5736:	f043 0201 	orr.w	r2, r3, #1
    573a:	6085      	str	r5, [r0, #8]
    573c:	6062      	str	r2, [r4, #4]
    573e:	50e3      	str	r3, [r4, r3]
    5740:	e7b3      	b.n	56aa <_free_r+0x5a>
    5742:	07ff      	lsls	r7, r7, #31
    5744:	4403      	add	r3, r0
    5746:	d407      	bmi.n	5758 <_free_r+0x108>
    5748:	f855 2c08 	ldr.w	r2, [r5, #-8]
    574c:	1aa4      	subs	r4, r4, r2
    574e:	4413      	add	r3, r2
    5750:	68a0      	ldr	r0, [r4, #8]
    5752:	68e2      	ldr	r2, [r4, #12]
    5754:	60c2      	str	r2, [r0, #12]
    5756:	6090      	str	r0, [r2, #8]
    5758:	4a2f      	ldr	r2, [pc, #188]	; (5818 <_free_r+0x1c8>)
    575a:	6812      	ldr	r2, [r2, #0]
    575c:	f043 0001 	orr.w	r0, r3, #1
    5760:	4293      	cmp	r3, r2
    5762:	6060      	str	r0, [r4, #4]
    5764:	608c      	str	r4, [r1, #8]
    5766:	d3b6      	bcc.n	56d6 <_free_r+0x86>
    5768:	4b2c      	ldr	r3, [pc, #176]	; (581c <_free_r+0x1cc>)
    576a:	4640      	mov	r0, r8
    576c:	6819      	ldr	r1, [r3, #0]
    576e:	f7ff ff21 	bl	55b4 <_malloc_trim_r>
    5772:	e7b0      	b.n	56d6 <_free_r+0x86>
    5774:	1811      	adds	r1, r2, r0
    5776:	6849      	ldr	r1, [r1, #4]
    5778:	07c9      	lsls	r1, r1, #31
    577a:	d444      	bmi.n	5806 <_free_r+0x1b6>
    577c:	6891      	ldr	r1, [r2, #8]
    577e:	68d2      	ldr	r2, [r2, #12]
    5780:	60ca      	str	r2, [r1, #12]
    5782:	4403      	add	r3, r0
    5784:	f043 0001 	orr.w	r0, r3, #1
    5788:	6091      	str	r1, [r2, #8]
    578a:	6060      	str	r0, [r4, #4]
    578c:	50e3      	str	r3, [r4, r3]
    578e:	e7a2      	b.n	56d6 <_free_r+0x86>
    5790:	2a14      	cmp	r2, #20
    5792:	d817      	bhi.n	57c4 <_free_r+0x174>
    5794:	f102 075c 	add.w	r7, r2, #92	; 0x5c
    5798:	007f      	lsls	r7, r7, #1
    579a:	f102 055b 	add.w	r5, r2, #91	; 0x5b
    579e:	e7a9      	b.n	56f4 <_free_r+0xa4>
    57a0:	10aa      	asrs	r2, r5, #2
    57a2:	684b      	ldr	r3, [r1, #4]
    57a4:	2501      	movs	r5, #1
    57a6:	fa05 f202 	lsl.w	r2, r5, r2
    57aa:	4313      	orrs	r3, r2
    57ac:	604b      	str	r3, [r1, #4]
    57ae:	4602      	mov	r2, r0
    57b0:	e7b1      	b.n	5716 <_free_r+0xc6>
    57b2:	f043 0201 	orr.w	r2, r3, #1
    57b6:	614c      	str	r4, [r1, #20]
    57b8:	610c      	str	r4, [r1, #16]
    57ba:	60e5      	str	r5, [r4, #12]
    57bc:	60a5      	str	r5, [r4, #8]
    57be:	6062      	str	r2, [r4, #4]
    57c0:	50e3      	str	r3, [r4, r3]
    57c2:	e788      	b.n	56d6 <_free_r+0x86>
    57c4:	2a54      	cmp	r2, #84	; 0x54
    57c6:	d806      	bhi.n	57d6 <_free_r+0x186>
    57c8:	0b1a      	lsrs	r2, r3, #12
    57ca:	f102 076f 	add.w	r7, r2, #111	; 0x6f
    57ce:	007f      	lsls	r7, r7, #1
    57d0:	f102 056e 	add.w	r5, r2, #110	; 0x6e
    57d4:	e78e      	b.n	56f4 <_free_r+0xa4>
    57d6:	f5b2 7faa 	cmp.w	r2, #340	; 0x154
    57da:	d806      	bhi.n	57ea <_free_r+0x19a>
    57dc:	0bda      	lsrs	r2, r3, #15
    57de:	f102 0778 	add.w	r7, r2, #120	; 0x78
    57e2:	007f      	lsls	r7, r7, #1
    57e4:	f102 0577 	add.w	r5, r2, #119	; 0x77
    57e8:	e784      	b.n	56f4 <_free_r+0xa4>
    57ea:	f240 5054 	movw	r0, #1364	; 0x554
    57ee:	4282      	cmp	r2, r0
    57f0:	d806      	bhi.n	5800 <_free_r+0x1b0>
    57f2:	0c9a      	lsrs	r2, r3, #18
    57f4:	f102 077d 	add.w	r7, r2, #125	; 0x7d
    57f8:	007f      	lsls	r7, r7, #1
    57fa:	f102 057c 	add.w	r5, r2, #124	; 0x7c
    57fe:	e779      	b.n	56f4 <_free_r+0xa4>
    5800:	27fe      	movs	r7, #254	; 0xfe
    5802:	257e      	movs	r5, #126	; 0x7e
    5804:	e776      	b.n	56f4 <_free_r+0xa4>
    5806:	f043 0201 	orr.w	r2, r3, #1
    580a:	6062      	str	r2, [r4, #4]
    580c:	50e3      	str	r3, [r4, r3]
    580e:	e762      	b.n	56d6 <_free_r+0x86>
    5810:	1fff9418 	.word	0x1fff9418
    5814:	1fff9420 	.word	0x1fff9420
    5818:	1fff9820 	.word	0x1fff9820
    581c:	1fff9bbc 	.word	0x1fff9bbc

00005820 <_localeconv_r>:
    5820:	4a04      	ldr	r2, [pc, #16]	; (5834 <_localeconv_r+0x14>)
    5822:	4b05      	ldr	r3, [pc, #20]	; (5838 <_localeconv_r+0x18>)
    5824:	6812      	ldr	r2, [r2, #0]
    5826:	6b50      	ldr	r0, [r2, #52]	; 0x34
    5828:	2800      	cmp	r0, #0
    582a:	bf08      	it	eq
    582c:	4618      	moveq	r0, r3
    582e:	30f0      	adds	r0, #240	; 0xf0
    5830:	4770      	bx	lr
    5832:	bf00      	nop
    5834:	1fff92a8 	.word	0x1fff92a8
    5838:	1fff92ac 	.word	0x1fff92ac
    583c:	ffffffff 	.word	0xffffffff

00005840 <memchr>:
    5840:	f001 01ff 	and.w	r1, r1, #255	; 0xff
    5844:	2a10      	cmp	r2, #16
    5846:	db2b      	blt.n	58a0 <memchr+0x60>
    5848:	f010 0f07 	tst.w	r0, #7
    584c:	d008      	beq.n	5860 <memchr+0x20>
    584e:	f810 3b01 	ldrb.w	r3, [r0], #1
    5852:	3a01      	subs	r2, #1
    5854:	428b      	cmp	r3, r1
    5856:	d02d      	beq.n	58b4 <memchr+0x74>
    5858:	f010 0f07 	tst.w	r0, #7
    585c:	b342      	cbz	r2, 58b0 <memchr+0x70>
    585e:	d1f6      	bne.n	584e <memchr+0xe>
    5860:	b4f0      	push	{r4, r5, r6, r7}
    5862:	ea41 2101 	orr.w	r1, r1, r1, lsl #8
    5866:	ea41 4101 	orr.w	r1, r1, r1, lsl #16
    586a:	f022 0407 	bic.w	r4, r2, #7
    586e:	f07f 0700 	mvns.w	r7, #0
    5872:	2300      	movs	r3, #0
    5874:	e8f0 5602 	ldrd	r5, r6, [r0], #8
    5878:	3c08      	subs	r4, #8
    587a:	ea85 0501 	eor.w	r5, r5, r1
    587e:	ea86 0601 	eor.w	r6, r6, r1
    5882:	fa85 f547 	uadd8	r5, r5, r7
    5886:	faa3 f587 	sel	r5, r3, r7
    588a:	fa86 f647 	uadd8	r6, r6, r7
    588e:	faa5 f687 	sel	r6, r5, r7
    5892:	b98e      	cbnz	r6, 58b8 <memchr+0x78>
    5894:	d1ee      	bne.n	5874 <memchr+0x34>
    5896:	bcf0      	pop	{r4, r5, r6, r7}
    5898:	f001 01ff 	and.w	r1, r1, #255	; 0xff
    589c:	f002 0207 	and.w	r2, r2, #7
    58a0:	b132      	cbz	r2, 58b0 <memchr+0x70>
    58a2:	f810 3b01 	ldrb.w	r3, [r0], #1
    58a6:	3a01      	subs	r2, #1
    58a8:	ea83 0301 	eor.w	r3, r3, r1
    58ac:	b113      	cbz	r3, 58b4 <memchr+0x74>
    58ae:	d1f8      	bne.n	58a2 <memchr+0x62>
    58b0:	2000      	movs	r0, #0
    58b2:	4770      	bx	lr
    58b4:	3801      	subs	r0, #1
    58b6:	4770      	bx	lr
    58b8:	2d00      	cmp	r5, #0
    58ba:	bf06      	itte	eq
    58bc:	4635      	moveq	r5, r6
    58be:	3803      	subeq	r0, #3
    58c0:	3807      	subne	r0, #7
    58c2:	f015 0f01 	tst.w	r5, #1
    58c6:	d107      	bne.n	58d8 <memchr+0x98>
    58c8:	3001      	adds	r0, #1
    58ca:	f415 7f80 	tst.w	r5, #256	; 0x100
    58ce:	bf02      	ittt	eq
    58d0:	3001      	addeq	r0, #1
    58d2:	f415 3fc0 	tsteq.w	r5, #98304	; 0x18000
    58d6:	3001      	addeq	r0, #1
    58d8:	bcf0      	pop	{r4, r5, r6, r7}
    58da:	3801      	subs	r0, #1
    58dc:	4770      	bx	lr
    58de:	bf00      	nop

000058e0 <_Balloc>:
    58e0:	6cc3      	ldr	r3, [r0, #76]	; 0x4c
    58e2:	b570      	push	{r4, r5, r6, lr}
    58e4:	4605      	mov	r5, r0
    58e6:	460c      	mov	r4, r1
    58e8:	b14b      	cbz	r3, 58fe <_Balloc+0x1e>
    58ea:	f853 0024 	ldr.w	r0, [r3, r4, lsl #2]
    58ee:	b180      	cbz	r0, 5912 <_Balloc+0x32>
    58f0:	6802      	ldr	r2, [r0, #0]
    58f2:	f843 2024 	str.w	r2, [r3, r4, lsl #2]
    58f6:	2300      	movs	r3, #0
    58f8:	6103      	str	r3, [r0, #16]
    58fa:	60c3      	str	r3, [r0, #12]
    58fc:	bd70      	pop	{r4, r5, r6, pc}
    58fe:	2221      	movs	r2, #33	; 0x21
    5900:	2104      	movs	r1, #4
    5902:	f000 fb2b 	bl	5f5c <_calloc_r>
    5906:	64e8      	str	r0, [r5, #76]	; 0x4c
    5908:	4603      	mov	r3, r0
    590a:	2800      	cmp	r0, #0
    590c:	d1ed      	bne.n	58ea <_Balloc+0xa>
    590e:	2000      	movs	r0, #0
    5910:	bd70      	pop	{r4, r5, r6, pc}
    5912:	2101      	movs	r1, #1
    5914:	fa01 f604 	lsl.w	r6, r1, r4
    5918:	1d72      	adds	r2, r6, #5
    591a:	4628      	mov	r0, r5
    591c:	0092      	lsls	r2, r2, #2
    591e:	f000 fb1d 	bl	5f5c <_calloc_r>
    5922:	2800      	cmp	r0, #0
    5924:	d0f3      	beq.n	590e <_Balloc+0x2e>
    5926:	6044      	str	r4, [r0, #4]
    5928:	6086      	str	r6, [r0, #8]
    592a:	e7e4      	b.n	58f6 <_Balloc+0x16>

0000592c <_Bfree>:
    592c:	b131      	cbz	r1, 593c <_Bfree+0x10>
    592e:	6cc3      	ldr	r3, [r0, #76]	; 0x4c
    5930:	684a      	ldr	r2, [r1, #4]
    5932:	f853 0022 	ldr.w	r0, [r3, r2, lsl #2]
    5936:	6008      	str	r0, [r1, #0]
    5938:	f843 1022 	str.w	r1, [r3, r2, lsl #2]
    593c:	4770      	bx	lr
    593e:	bf00      	nop

00005940 <__multadd>:
    5940:	b5f0      	push	{r4, r5, r6, r7, lr}
    5942:	690c      	ldr	r4, [r1, #16]
    5944:	b083      	sub	sp, #12
    5946:	460d      	mov	r5, r1
    5948:	4606      	mov	r6, r0
    594a:	f101 0e14 	add.w	lr, r1, #20
    594e:	2700      	movs	r7, #0
    5950:	f8de 0000 	ldr.w	r0, [lr]
    5954:	b281      	uxth	r1, r0
    5956:	fb02 3101 	mla	r1, r2, r1, r3
    595a:	0c0b      	lsrs	r3, r1, #16
    595c:	0c00      	lsrs	r0, r0, #16
    595e:	fb02 3300 	mla	r3, r2, r0, r3
    5962:	b289      	uxth	r1, r1
    5964:	3701      	adds	r7, #1
    5966:	eb01 4103 	add.w	r1, r1, r3, lsl #16
    596a:	42bc      	cmp	r4, r7
    596c:	f84e 1b04 	str.w	r1, [lr], #4
    5970:	ea4f 4313 	mov.w	r3, r3, lsr #16
    5974:	dcec      	bgt.n	5950 <__multadd+0x10>
    5976:	b13b      	cbz	r3, 5988 <__multadd+0x48>
    5978:	68aa      	ldr	r2, [r5, #8]
    597a:	4294      	cmp	r4, r2
    597c:	da07      	bge.n	598e <__multadd+0x4e>
    597e:	eb05 0284 	add.w	r2, r5, r4, lsl #2
    5982:	3401      	adds	r4, #1
    5984:	6153      	str	r3, [r2, #20]
    5986:	612c      	str	r4, [r5, #16]
    5988:	4628      	mov	r0, r5
    598a:	b003      	add	sp, #12
    598c:	bdf0      	pop	{r4, r5, r6, r7, pc}
    598e:	6869      	ldr	r1, [r5, #4]
    5990:	9301      	str	r3, [sp, #4]
    5992:	3101      	adds	r1, #1
    5994:	4630      	mov	r0, r6
    5996:	f7ff ffa3 	bl	58e0 <_Balloc>
    599a:	692a      	ldr	r2, [r5, #16]
    599c:	3202      	adds	r2, #2
    599e:	f105 010c 	add.w	r1, r5, #12
    59a2:	4607      	mov	r7, r0
    59a4:	0092      	lsls	r2, r2, #2
    59a6:	300c      	adds	r0, #12
    59a8:	f7fd fe72 	bl	3690 <memcpy>
    59ac:	6cf2      	ldr	r2, [r6, #76]	; 0x4c
    59ae:	6869      	ldr	r1, [r5, #4]
    59b0:	9b01      	ldr	r3, [sp, #4]
    59b2:	f852 0021 	ldr.w	r0, [r2, r1, lsl #2]
    59b6:	6028      	str	r0, [r5, #0]
    59b8:	f842 5021 	str.w	r5, [r2, r1, lsl #2]
    59bc:	463d      	mov	r5, r7
    59be:	e7de      	b.n	597e <__multadd+0x3e>

000059c0 <__hi0bits>:
    59c0:	0c03      	lsrs	r3, r0, #16
    59c2:	041b      	lsls	r3, r3, #16
    59c4:	b9b3      	cbnz	r3, 59f4 <__hi0bits+0x34>
    59c6:	0400      	lsls	r0, r0, #16
    59c8:	2310      	movs	r3, #16
    59ca:	f010 4f7f 	tst.w	r0, #4278190080	; 0xff000000
    59ce:	bf04      	itt	eq
    59d0:	0200      	lsleq	r0, r0, #8
    59d2:	3308      	addeq	r3, #8
    59d4:	f010 4f70 	tst.w	r0, #4026531840	; 0xf0000000
    59d8:	bf04      	itt	eq
    59da:	0100      	lsleq	r0, r0, #4
    59dc:	3304      	addeq	r3, #4
    59de:	f010 4f40 	tst.w	r0, #3221225472	; 0xc0000000
    59e2:	bf04      	itt	eq
    59e4:	0080      	lsleq	r0, r0, #2
    59e6:	3302      	addeq	r3, #2
    59e8:	2800      	cmp	r0, #0
    59ea:	db07      	blt.n	59fc <__hi0bits+0x3c>
    59ec:	0042      	lsls	r2, r0, #1
    59ee:	d403      	bmi.n	59f8 <__hi0bits+0x38>
    59f0:	2020      	movs	r0, #32
    59f2:	4770      	bx	lr
    59f4:	2300      	movs	r3, #0
    59f6:	e7e8      	b.n	59ca <__hi0bits+0xa>
    59f8:	1c58      	adds	r0, r3, #1
    59fa:	4770      	bx	lr
    59fc:	4618      	mov	r0, r3
    59fe:	4770      	bx	lr

00005a00 <__lo0bits>:
    5a00:	6803      	ldr	r3, [r0, #0]
    5a02:	f013 0207 	ands.w	r2, r3, #7
    5a06:	d007      	beq.n	5a18 <__lo0bits+0x18>
    5a08:	07d9      	lsls	r1, r3, #31
    5a0a:	d420      	bmi.n	5a4e <__lo0bits+0x4e>
    5a0c:	079a      	lsls	r2, r3, #30
    5a0e:	d420      	bmi.n	5a52 <__lo0bits+0x52>
    5a10:	089b      	lsrs	r3, r3, #2
    5a12:	6003      	str	r3, [r0, #0]
    5a14:	2002      	movs	r0, #2
    5a16:	4770      	bx	lr
    5a18:	b299      	uxth	r1, r3
    5a1a:	b909      	cbnz	r1, 5a20 <__lo0bits+0x20>
    5a1c:	0c1b      	lsrs	r3, r3, #16
    5a1e:	2210      	movs	r2, #16
    5a20:	f013 0fff 	tst.w	r3, #255	; 0xff
    5a24:	bf04      	itt	eq
    5a26:	0a1b      	lsreq	r3, r3, #8
    5a28:	3208      	addeq	r2, #8
    5a2a:	0719      	lsls	r1, r3, #28
    5a2c:	bf04      	itt	eq
    5a2e:	091b      	lsreq	r3, r3, #4
    5a30:	3204      	addeq	r2, #4
    5a32:	0799      	lsls	r1, r3, #30
    5a34:	bf04      	itt	eq
    5a36:	089b      	lsreq	r3, r3, #2
    5a38:	3202      	addeq	r2, #2
    5a3a:	07d9      	lsls	r1, r3, #31
    5a3c:	d404      	bmi.n	5a48 <__lo0bits+0x48>
    5a3e:	085b      	lsrs	r3, r3, #1
    5a40:	d101      	bne.n	5a46 <__lo0bits+0x46>
    5a42:	2020      	movs	r0, #32
    5a44:	4770      	bx	lr
    5a46:	3201      	adds	r2, #1
    5a48:	6003      	str	r3, [r0, #0]
    5a4a:	4610      	mov	r0, r2
    5a4c:	4770      	bx	lr
    5a4e:	2000      	movs	r0, #0
    5a50:	4770      	bx	lr
    5a52:	085b      	lsrs	r3, r3, #1
    5a54:	6003      	str	r3, [r0, #0]
    5a56:	2001      	movs	r0, #1
    5a58:	4770      	bx	lr
    5a5a:	bf00      	nop

00005a5c <__i2b>:
    5a5c:	b510      	push	{r4, lr}
    5a5e:	460c      	mov	r4, r1
    5a60:	2101      	movs	r1, #1
    5a62:	f7ff ff3d 	bl	58e0 <_Balloc>
    5a66:	2201      	movs	r2, #1
    5a68:	6144      	str	r4, [r0, #20]
    5a6a:	6102      	str	r2, [r0, #16]
    5a6c:	bd10      	pop	{r4, pc}
    5a6e:	bf00      	nop

00005a70 <__multiply>:
    5a70:	e92d 4ff0 	stmdb	sp!, {r4, r5, r6, r7, r8, r9, sl, fp, lr}
    5a74:	690d      	ldr	r5, [r1, #16]
    5a76:	6917      	ldr	r7, [r2, #16]
    5a78:	42bd      	cmp	r5, r7
    5a7a:	b083      	sub	sp, #12
    5a7c:	460c      	mov	r4, r1
    5a7e:	4616      	mov	r6, r2
    5a80:	da04      	bge.n	5a8c <__multiply+0x1c>
    5a82:	462a      	mov	r2, r5
    5a84:	4634      	mov	r4, r6
    5a86:	463d      	mov	r5, r7
    5a88:	460e      	mov	r6, r1
    5a8a:	4617      	mov	r7, r2
    5a8c:	68a3      	ldr	r3, [r4, #8]
    5a8e:	6861      	ldr	r1, [r4, #4]
    5a90:	eb05 0807 	add.w	r8, r5, r7
    5a94:	4598      	cmp	r8, r3
    5a96:	bfc8      	it	gt
    5a98:	3101      	addgt	r1, #1
    5a9a:	f7ff ff21 	bl	58e0 <_Balloc>
    5a9e:	f100 0c14 	add.w	ip, r0, #20
    5aa2:	eb0c 0988 	add.w	r9, ip, r8, lsl #2
    5aa6:	45cc      	cmp	ip, r9
    5aa8:	9000      	str	r0, [sp, #0]
    5aaa:	d205      	bcs.n	5ab8 <__multiply+0x48>
    5aac:	4663      	mov	r3, ip
    5aae:	2100      	movs	r1, #0
    5ab0:	f843 1b04 	str.w	r1, [r3], #4
    5ab4:	4599      	cmp	r9, r3
    5ab6:	d8fb      	bhi.n	5ab0 <__multiply+0x40>
    5ab8:	f106 0214 	add.w	r2, r6, #20
    5abc:	eb02 0a87 	add.w	sl, r2, r7, lsl #2
    5ac0:	f104 0314 	add.w	r3, r4, #20
    5ac4:	4552      	cmp	r2, sl
    5ac6:	eb03 0e85 	add.w	lr, r3, r5, lsl #2
    5aca:	d254      	bcs.n	5b76 <__multiply+0x106>
    5acc:	f8cd 9004 	str.w	r9, [sp, #4]
    5ad0:	4699      	mov	r9, r3
    5ad2:	f852 3b04 	ldr.w	r3, [r2], #4
    5ad6:	fa1f fb83 	uxth.w	fp, r3
    5ada:	f1bb 0f00 	cmp.w	fp, #0
    5ade:	d020      	beq.n	5b22 <__multiply+0xb2>
    5ae0:	2000      	movs	r0, #0
    5ae2:	464f      	mov	r7, r9
    5ae4:	4666      	mov	r6, ip
    5ae6:	4605      	mov	r5, r0
    5ae8:	e000      	b.n	5aec <__multiply+0x7c>
    5aea:	461e      	mov	r6, r3
    5aec:	f857 4b04 	ldr.w	r4, [r7], #4
    5af0:	6830      	ldr	r0, [r6, #0]
    5af2:	b2a1      	uxth	r1, r4
    5af4:	b283      	uxth	r3, r0
    5af6:	fb0b 3101 	mla	r1, fp, r1, r3
    5afa:	0c24      	lsrs	r4, r4, #16
    5afc:	0c00      	lsrs	r0, r0, #16
    5afe:	194b      	adds	r3, r1, r5
    5b00:	fb0b 0004 	mla	r0, fp, r4, r0
    5b04:	eb00 4013 	add.w	r0, r0, r3, lsr #16
    5b08:	b299      	uxth	r1, r3
    5b0a:	4633      	mov	r3, r6
    5b0c:	ea41 4100 	orr.w	r1, r1, r0, lsl #16
    5b10:	45be      	cmp	lr, r7
    5b12:	ea4f 4510 	mov.w	r5, r0, lsr #16
    5b16:	f843 1b04 	str.w	r1, [r3], #4
    5b1a:	d8e6      	bhi.n	5aea <__multiply+0x7a>
    5b1c:	6075      	str	r5, [r6, #4]
    5b1e:	f852 3c04 	ldr.w	r3, [r2, #-4]
    5b22:	ea5f 4b13 	movs.w	fp, r3, lsr #16
    5b26:	d020      	beq.n	5b6a <__multiply+0xfa>
    5b28:	f8dc 3000 	ldr.w	r3, [ip]
    5b2c:	4667      	mov	r7, ip
    5b2e:	4618      	mov	r0, r3
    5b30:	464d      	mov	r5, r9
    5b32:	2100      	movs	r1, #0
    5b34:	e000      	b.n	5b38 <__multiply+0xc8>
    5b36:	4637      	mov	r7, r6
    5b38:	882c      	ldrh	r4, [r5, #0]
    5b3a:	0c00      	lsrs	r0, r0, #16
    5b3c:	fb0b 0004 	mla	r0, fp, r4, r0
    5b40:	4401      	add	r1, r0
    5b42:	b29c      	uxth	r4, r3
    5b44:	463e      	mov	r6, r7
    5b46:	ea44 4301 	orr.w	r3, r4, r1, lsl #16
    5b4a:	f846 3b04 	str.w	r3, [r6], #4
    5b4e:	6878      	ldr	r0, [r7, #4]
    5b50:	f855 4b04 	ldr.w	r4, [r5], #4
    5b54:	b283      	uxth	r3, r0
    5b56:	0c24      	lsrs	r4, r4, #16
    5b58:	fb0b 3404 	mla	r4, fp, r4, r3
    5b5c:	eb04 4311 	add.w	r3, r4, r1, lsr #16
    5b60:	45ae      	cmp	lr, r5
    5b62:	ea4f 4113 	mov.w	r1, r3, lsr #16
    5b66:	d8e6      	bhi.n	5b36 <__multiply+0xc6>
    5b68:	607b      	str	r3, [r7, #4]
    5b6a:	4592      	cmp	sl, r2
    5b6c:	f10c 0c04 	add.w	ip, ip, #4
    5b70:	d8af      	bhi.n	5ad2 <__multiply+0x62>
    5b72:	f8dd 9004 	ldr.w	r9, [sp, #4]
    5b76:	f1b8 0f00 	cmp.w	r8, #0
    5b7a:	dd0b      	ble.n	5b94 <__multiply+0x124>
    5b7c:	f859 3c04 	ldr.w	r3, [r9, #-4]
    5b80:	f1a9 0904 	sub.w	r9, r9, #4
    5b84:	b11b      	cbz	r3, 5b8e <__multiply+0x11e>
    5b86:	e005      	b.n	5b94 <__multiply+0x124>
    5b88:	f859 3d04 	ldr.w	r3, [r9, #-4]!
    5b8c:	b913      	cbnz	r3, 5b94 <__multiply+0x124>
    5b8e:	f1b8 0801 	subs.w	r8, r8, #1
    5b92:	d1f9      	bne.n	5b88 <__multiply+0x118>
    5b94:	9800      	ldr	r0, [sp, #0]
    5b96:	f8c0 8010 	str.w	r8, [r0, #16]
    5b9a:	b003      	add	sp, #12
    5b9c:	e8bd 8ff0 	ldmia.w	sp!, {r4, r5, r6, r7, r8, r9, sl, fp, pc}

00005ba0 <__pow5mult>:
    5ba0:	f012 0303 	ands.w	r3, r2, #3
    5ba4:	e92d 41f0 	stmdb	sp!, {r4, r5, r6, r7, r8, lr}
    5ba8:	4614      	mov	r4, r2
    5baa:	4607      	mov	r7, r0
    5bac:	d12e      	bne.n	5c0c <__pow5mult+0x6c>
    5bae:	460e      	mov	r6, r1
    5bb0:	10a4      	asrs	r4, r4, #2
    5bb2:	d01c      	beq.n	5bee <__pow5mult+0x4e>
    5bb4:	6cbd      	ldr	r5, [r7, #72]	; 0x48
    5bb6:	b395      	cbz	r5, 5c1e <__pow5mult+0x7e>
    5bb8:	07e3      	lsls	r3, r4, #31
    5bba:	f04f 0800 	mov.w	r8, #0
    5bbe:	d406      	bmi.n	5bce <__pow5mult+0x2e>
    5bc0:	1064      	asrs	r4, r4, #1
    5bc2:	d014      	beq.n	5bee <__pow5mult+0x4e>
    5bc4:	6828      	ldr	r0, [r5, #0]
    5bc6:	b1a8      	cbz	r0, 5bf4 <__pow5mult+0x54>
    5bc8:	4605      	mov	r5, r0
    5bca:	07e3      	lsls	r3, r4, #31
    5bcc:	d5f8      	bpl.n	5bc0 <__pow5mult+0x20>
    5bce:	462a      	mov	r2, r5
    5bd0:	4631      	mov	r1, r6
    5bd2:	4638      	mov	r0, r7
    5bd4:	f7ff ff4c 	bl	5a70 <__multiply>
    5bd8:	b1b6      	cbz	r6, 5c08 <__pow5mult+0x68>
    5bda:	6872      	ldr	r2, [r6, #4]
    5bdc:	6cfb      	ldr	r3, [r7, #76]	; 0x4c
    5bde:	1064      	asrs	r4, r4, #1
    5be0:	f853 1022 	ldr.w	r1, [r3, r2, lsl #2]
    5be4:	6031      	str	r1, [r6, #0]
    5be6:	f843 6022 	str.w	r6, [r3, r2, lsl #2]
    5bea:	4606      	mov	r6, r0
    5bec:	d1ea      	bne.n	5bc4 <__pow5mult+0x24>
    5bee:	4630      	mov	r0, r6
    5bf0:	e8bd 81f0 	ldmia.w	sp!, {r4, r5, r6, r7, r8, pc}
    5bf4:	462a      	mov	r2, r5
    5bf6:	4629      	mov	r1, r5
    5bf8:	4638      	mov	r0, r7
    5bfa:	f7ff ff39 	bl	5a70 <__multiply>
    5bfe:	6028      	str	r0, [r5, #0]
    5c00:	f8c0 8000 	str.w	r8, [r0]
    5c04:	4605      	mov	r5, r0
    5c06:	e7e0      	b.n	5bca <__pow5mult+0x2a>
    5c08:	4606      	mov	r6, r0
    5c0a:	e7d9      	b.n	5bc0 <__pow5mult+0x20>
    5c0c:	1e5a      	subs	r2, r3, #1
    5c0e:	4d0b      	ldr	r5, [pc, #44]	; (5c3c <__pow5mult+0x9c>)
    5c10:	2300      	movs	r3, #0
    5c12:	f855 2022 	ldr.w	r2, [r5, r2, lsl #2]
    5c16:	f7ff fe93 	bl	5940 <__multadd>
    5c1a:	4606      	mov	r6, r0
    5c1c:	e7c8      	b.n	5bb0 <__pow5mult+0x10>
    5c1e:	2101      	movs	r1, #1
    5c20:	4638      	mov	r0, r7
    5c22:	f7ff fe5d 	bl	58e0 <_Balloc>
    5c26:	f240 2171 	movw	r1, #625	; 0x271
    5c2a:	2201      	movs	r2, #1
    5c2c:	2300      	movs	r3, #0
    5c2e:	6141      	str	r1, [r0, #20]
    5c30:	6102      	str	r2, [r0, #16]
    5c32:	4605      	mov	r5, r0
    5c34:	64b8      	str	r0, [r7, #72]	; 0x48
    5c36:	6003      	str	r3, [r0, #0]
    5c38:	e7be      	b.n	5bb8 <__pow5mult+0x18>
    5c3a:	bf00      	nop
    5c3c:	000091a0 	.word	0x000091a0

00005c40 <__lshift>:
    5c40:	e92d 47f0 	stmdb	sp!, {r4, r5, r6, r7, r8, r9, sl, lr}
    5c44:	4691      	mov	r9, r2
    5c46:	690a      	ldr	r2, [r1, #16]
    5c48:	688b      	ldr	r3, [r1, #8]
    5c4a:	ea4f 1469 	mov.w	r4, r9, asr #5
    5c4e:	eb04 0802 	add.w	r8, r4, r2
    5c52:	f108 0501 	add.w	r5, r8, #1
    5c56:	429d      	cmp	r5, r3
    5c58:	460e      	mov	r6, r1
    5c5a:	4682      	mov	sl, r0
    5c5c:	6849      	ldr	r1, [r1, #4]
    5c5e:	dd04      	ble.n	5c6a <__lshift+0x2a>
    5c60:	005b      	lsls	r3, r3, #1
    5c62:	429d      	cmp	r5, r3
    5c64:	f101 0101 	add.w	r1, r1, #1
    5c68:	dcfa      	bgt.n	5c60 <__lshift+0x20>
    5c6a:	4650      	mov	r0, sl
    5c6c:	f7ff fe38 	bl	58e0 <_Balloc>
    5c70:	2c00      	cmp	r4, #0
    5c72:	f100 0214 	add.w	r2, r0, #20
    5c76:	dd38      	ble.n	5cea <__lshift+0xaa>
    5c78:	eb02 0384 	add.w	r3, r2, r4, lsl #2
    5c7c:	2100      	movs	r1, #0
    5c7e:	f842 1b04 	str.w	r1, [r2], #4
    5c82:	4293      	cmp	r3, r2
    5c84:	d1fb      	bne.n	5c7e <__lshift+0x3e>
    5c86:	6934      	ldr	r4, [r6, #16]
    5c88:	f106 0114 	add.w	r1, r6, #20
    5c8c:	f019 091f 	ands.w	r9, r9, #31
    5c90:	eb01 0e84 	add.w	lr, r1, r4, lsl #2
    5c94:	d021      	beq.n	5cda <__lshift+0x9a>
    5c96:	f1c9 0220 	rsb	r2, r9, #32
    5c9a:	2400      	movs	r4, #0
    5c9c:	680f      	ldr	r7, [r1, #0]
    5c9e:	fa07 fc09 	lsl.w	ip, r7, r9
    5ca2:	ea4c 0404 	orr.w	r4, ip, r4
    5ca6:	469c      	mov	ip, r3
    5ca8:	f843 4b04 	str.w	r4, [r3], #4
    5cac:	f851 4b04 	ldr.w	r4, [r1], #4
    5cb0:	458e      	cmp	lr, r1
    5cb2:	fa24 f402 	lsr.w	r4, r4, r2
    5cb6:	d8f1      	bhi.n	5c9c <__lshift+0x5c>
    5cb8:	f8cc 4004 	str.w	r4, [ip, #4]
    5cbc:	b10c      	cbz	r4, 5cc2 <__lshift+0x82>
    5cbe:	f108 0502 	add.w	r5, r8, #2
    5cc2:	f8da 304c 	ldr.w	r3, [sl, #76]	; 0x4c
    5cc6:	6872      	ldr	r2, [r6, #4]
    5cc8:	3d01      	subs	r5, #1
    5cca:	f853 1022 	ldr.w	r1, [r3, r2, lsl #2]
    5cce:	6105      	str	r5, [r0, #16]
    5cd0:	6031      	str	r1, [r6, #0]
    5cd2:	f843 6022 	str.w	r6, [r3, r2, lsl #2]
    5cd6:	e8bd 87f0 	ldmia.w	sp!, {r4, r5, r6, r7, r8, r9, sl, pc}
    5cda:	3b04      	subs	r3, #4
    5cdc:	f851 2b04 	ldr.w	r2, [r1], #4
    5ce0:	f843 2f04 	str.w	r2, [r3, #4]!
    5ce4:	458e      	cmp	lr, r1
    5ce6:	d8f9      	bhi.n	5cdc <__lshift+0x9c>
    5ce8:	e7eb      	b.n	5cc2 <__lshift+0x82>
    5cea:	4613      	mov	r3, r2
    5cec:	e7cb      	b.n	5c86 <__lshift+0x46>
    5cee:	bf00      	nop

00005cf0 <__mcmp>:
    5cf0:	6902      	ldr	r2, [r0, #16]
    5cf2:	690b      	ldr	r3, [r1, #16]
    5cf4:	1ad2      	subs	r2, r2, r3
    5cf6:	d112      	bne.n	5d1e <__mcmp+0x2e>
    5cf8:	009b      	lsls	r3, r3, #2
    5cfa:	3014      	adds	r0, #20
    5cfc:	3114      	adds	r1, #20
    5cfe:	4419      	add	r1, r3
    5d00:	b410      	push	{r4}
    5d02:	4403      	add	r3, r0
    5d04:	e001      	b.n	5d0a <__mcmp+0x1a>
    5d06:	4298      	cmp	r0, r3
    5d08:	d20b      	bcs.n	5d22 <__mcmp+0x32>
    5d0a:	f853 4d04 	ldr.w	r4, [r3, #-4]!
    5d0e:	f851 2d04 	ldr.w	r2, [r1, #-4]!
    5d12:	4294      	cmp	r4, r2
    5d14:	d0f7      	beq.n	5d06 <__mcmp+0x16>
    5d16:	d307      	bcc.n	5d28 <__mcmp+0x38>
    5d18:	2001      	movs	r0, #1
    5d1a:	bc10      	pop	{r4}
    5d1c:	4770      	bx	lr
    5d1e:	4610      	mov	r0, r2
    5d20:	4770      	bx	lr
    5d22:	2000      	movs	r0, #0
    5d24:	bc10      	pop	{r4}
    5d26:	4770      	bx	lr
    5d28:	f04f 30ff 	mov.w	r0, #4294967295	; 0xffffffff
    5d2c:	e7f5      	b.n	5d1a <__mcmp+0x2a>
    5d2e:	bf00      	nop

00005d30 <__mdiff>:
    5d30:	e92d 43f8 	stmdb	sp!, {r3, r4, r5, r6, r7, r8, r9, lr}
    5d34:	690b      	ldr	r3, [r1, #16]
    5d36:	460f      	mov	r7, r1
    5d38:	6911      	ldr	r1, [r2, #16]
    5d3a:	1a5b      	subs	r3, r3, r1
    5d3c:	2b00      	cmp	r3, #0
    5d3e:	4690      	mov	r8, r2
    5d40:	d117      	bne.n	5d72 <__mdiff+0x42>
    5d42:	0089      	lsls	r1, r1, #2
    5d44:	f107 0214 	add.w	r2, r7, #20
    5d48:	f108 0514 	add.w	r5, r8, #20
    5d4c:	1853      	adds	r3, r2, r1
    5d4e:	4429      	add	r1, r5
    5d50:	e001      	b.n	5d56 <__mdiff+0x26>
    5d52:	429a      	cmp	r2, r3
    5d54:	d25e      	bcs.n	5e14 <__mdiff+0xe4>
    5d56:	f853 6d04 	ldr.w	r6, [r3, #-4]!
    5d5a:	f851 4d04 	ldr.w	r4, [r1, #-4]!
    5d5e:	42a6      	cmp	r6, r4
    5d60:	d0f7      	beq.n	5d52 <__mdiff+0x22>
    5d62:	d260      	bcs.n	5e26 <__mdiff+0xf6>
    5d64:	463b      	mov	r3, r7
    5d66:	4614      	mov	r4, r2
    5d68:	4647      	mov	r7, r8
    5d6a:	f04f 0901 	mov.w	r9, #1
    5d6e:	4698      	mov	r8, r3
    5d70:	e006      	b.n	5d80 <__mdiff+0x50>
    5d72:	db5d      	blt.n	5e30 <__mdiff+0x100>
    5d74:	f107 0514 	add.w	r5, r7, #20
    5d78:	f102 0414 	add.w	r4, r2, #20
    5d7c:	f04f 0900 	mov.w	r9, #0
    5d80:	6879      	ldr	r1, [r7, #4]
    5d82:	f7ff fdad 	bl	58e0 <_Balloc>
    5d86:	f8d8 3010 	ldr.w	r3, [r8, #16]
    5d8a:	693e      	ldr	r6, [r7, #16]
    5d8c:	f8c0 900c 	str.w	r9, [r0, #12]
    5d90:	eb04 0c83 	add.w	ip, r4, r3, lsl #2
    5d94:	46a6      	mov	lr, r4
    5d96:	eb05 0786 	add.w	r7, r5, r6, lsl #2
    5d9a:	f100 0414 	add.w	r4, r0, #20
    5d9e:	2300      	movs	r3, #0
    5da0:	f85e 1b04 	ldr.w	r1, [lr], #4
    5da4:	f855 8b04 	ldr.w	r8, [r5], #4
    5da8:	b28a      	uxth	r2, r1
    5daa:	fa13 f388 	uxtah	r3, r3, r8
    5dae:	0c09      	lsrs	r1, r1, #16
    5db0:	1a9a      	subs	r2, r3, r2
    5db2:	ebc1 4318 	rsb	r3, r1, r8, lsr #16
    5db6:	eb03 4322 	add.w	r3, r3, r2, asr #16
    5dba:	b292      	uxth	r2, r2
    5dbc:	ea42 4203 	orr.w	r2, r2, r3, lsl #16
    5dc0:	45f4      	cmp	ip, lr
    5dc2:	f844 2b04 	str.w	r2, [r4], #4
    5dc6:	ea4f 4323 	mov.w	r3, r3, asr #16
    5dca:	d8e9      	bhi.n	5da0 <__mdiff+0x70>
    5dcc:	42af      	cmp	r7, r5
    5dce:	d917      	bls.n	5e00 <__mdiff+0xd0>
    5dd0:	46a4      	mov	ip, r4
    5dd2:	4629      	mov	r1, r5
    5dd4:	f851 eb04 	ldr.w	lr, [r1], #4
    5dd8:	fa13 f28e 	uxtah	r2, r3, lr
    5ddc:	1413      	asrs	r3, r2, #16
    5dde:	eb03 431e 	add.w	r3, r3, lr, lsr #16
    5de2:	b292      	uxth	r2, r2
    5de4:	ea42 4203 	orr.w	r2, r2, r3, lsl #16
    5de8:	428f      	cmp	r7, r1
    5dea:	f84c 2b04 	str.w	r2, [ip], #4
    5dee:	ea4f 4323 	mov.w	r3, r3, asr #16
    5df2:	d8ef      	bhi.n	5dd4 <__mdiff+0xa4>
    5df4:	43ed      	mvns	r5, r5
    5df6:	443d      	add	r5, r7
    5df8:	f025 0503 	bic.w	r5, r5, #3
    5dfc:	3504      	adds	r5, #4
    5dfe:	442c      	add	r4, r5
    5e00:	3c04      	subs	r4, #4
    5e02:	b922      	cbnz	r2, 5e0e <__mdiff+0xde>
    5e04:	f854 3d04 	ldr.w	r3, [r4, #-4]!
    5e08:	3e01      	subs	r6, #1
    5e0a:	2b00      	cmp	r3, #0
    5e0c:	d0fa      	beq.n	5e04 <__mdiff+0xd4>
    5e0e:	6106      	str	r6, [r0, #16]
    5e10:	e8bd 83f8 	ldmia.w	sp!, {r3, r4, r5, r6, r7, r8, r9, pc}
    5e14:	2100      	movs	r1, #0
    5e16:	f7ff fd63 	bl	58e0 <_Balloc>
    5e1a:	2201      	movs	r2, #1
    5e1c:	2300      	movs	r3, #0
    5e1e:	6102      	str	r2, [r0, #16]
    5e20:	6143      	str	r3, [r0, #20]
    5e22:	e8bd 83f8 	ldmia.w	sp!, {r3, r4, r5, r6, r7, r8, r9, pc}
    5e26:	462c      	mov	r4, r5
    5e28:	f04f 0900 	mov.w	r9, #0
    5e2c:	4615      	mov	r5, r2
    5e2e:	e7a7      	b.n	5d80 <__mdiff+0x50>
    5e30:	463b      	mov	r3, r7
    5e32:	f107 0414 	add.w	r4, r7, #20
    5e36:	f108 0514 	add.w	r5, r8, #20
    5e3a:	4647      	mov	r7, r8
    5e3c:	f04f 0901 	mov.w	r9, #1
    5e40:	4698      	mov	r8, r3
    5e42:	e79d      	b.n	5d80 <__mdiff+0x50>

00005e44 <__d2b>:
    5e44:	e92d 41f0 	stmdb	sp!, {r4, r5, r6, r7, r8, lr}
    5e48:	b082      	sub	sp, #8
    5e4a:	2101      	movs	r1, #1
    5e4c:	461c      	mov	r4, r3
    5e4e:	f3c3 570a 	ubfx	r7, r3, #20, #11
    5e52:	4615      	mov	r5, r2
    5e54:	9e08      	ldr	r6, [sp, #32]
    5e56:	f7ff fd43 	bl	58e0 <_Balloc>
    5e5a:	f3c4 0413 	ubfx	r4, r4, #0, #20
    5e5e:	4680      	mov	r8, r0
    5e60:	b10f      	cbz	r7, 5e66 <__d2b+0x22>
    5e62:	f444 1480 	orr.w	r4, r4, #1048576	; 0x100000
    5e66:	9401      	str	r4, [sp, #4]
    5e68:	b31d      	cbz	r5, 5eb2 <__d2b+0x6e>
    5e6a:	a802      	add	r0, sp, #8
    5e6c:	f840 5d08 	str.w	r5, [r0, #-8]!
    5e70:	f7ff fdc6 	bl	5a00 <__lo0bits>
    5e74:	2800      	cmp	r0, #0
    5e76:	d134      	bne.n	5ee2 <__d2b+0x9e>
    5e78:	e89d 000c 	ldmia.w	sp, {r2, r3}
    5e7c:	f8c8 2014 	str.w	r2, [r8, #20]
    5e80:	2b00      	cmp	r3, #0
    5e82:	bf0c      	ite	eq
    5e84:	2101      	moveq	r1, #1
    5e86:	2102      	movne	r1, #2
    5e88:	f8c8 3018 	str.w	r3, [r8, #24]
    5e8c:	f8c8 1010 	str.w	r1, [r8, #16]
    5e90:	b9df      	cbnz	r7, 5eca <__d2b+0x86>
    5e92:	eb08 0381 	add.w	r3, r8, r1, lsl #2
    5e96:	f2a0 4032 	subw	r0, r0, #1074	; 0x432
    5e9a:	6030      	str	r0, [r6, #0]
    5e9c:	6918      	ldr	r0, [r3, #16]
    5e9e:	f7ff fd8f 	bl	59c0 <__hi0bits>
    5ea2:	9b09      	ldr	r3, [sp, #36]	; 0x24
    5ea4:	ebc0 1041 	rsb	r0, r0, r1, lsl #5
    5ea8:	6018      	str	r0, [r3, #0]
    5eaa:	4640      	mov	r0, r8
    5eac:	b002      	add	sp, #8
    5eae:	e8bd 81f0 	ldmia.w	sp!, {r4, r5, r6, r7, r8, pc}
    5eb2:	a801      	add	r0, sp, #4
    5eb4:	f7ff fda4 	bl	5a00 <__lo0bits>
    5eb8:	9b01      	ldr	r3, [sp, #4]
    5eba:	f8c8 3014 	str.w	r3, [r8, #20]
    5ebe:	2101      	movs	r1, #1
    5ec0:	3020      	adds	r0, #32
    5ec2:	f8c8 1010 	str.w	r1, [r8, #16]
    5ec6:	2f00      	cmp	r7, #0
    5ec8:	d0e3      	beq.n	5e92 <__d2b+0x4e>
    5eca:	9b09      	ldr	r3, [sp, #36]	; 0x24
    5ecc:	f2a7 4733 	subw	r7, r7, #1075	; 0x433
    5ed0:	4407      	add	r7, r0
    5ed2:	f1c0 0035 	rsb	r0, r0, #53	; 0x35
    5ed6:	6037      	str	r7, [r6, #0]
    5ed8:	6018      	str	r0, [r3, #0]
    5eda:	4640      	mov	r0, r8
    5edc:	b002      	add	sp, #8
    5ede:	e8bd 81f0 	ldmia.w	sp!, {r4, r5, r6, r7, r8, pc}
    5ee2:	e89d 000c 	ldmia.w	sp, {r2, r3}
    5ee6:	f1c0 0120 	rsb	r1, r0, #32
    5eea:	fa03 f101 	lsl.w	r1, r3, r1
    5eee:	430a      	orrs	r2, r1
    5ef0:	40c3      	lsrs	r3, r0
    5ef2:	9301      	str	r3, [sp, #4]
    5ef4:	f8c8 2014 	str.w	r2, [r8, #20]
    5ef8:	e7c2      	b.n	5e80 <__d2b+0x3c>
    5efa:	bf00      	nop

00005efc <_vasnprintf_r>:
    5efc:	b570      	push	{r4, r5, r6, lr}
    5efe:	4615      	mov	r5, r2
    5f00:	b09a      	sub	sp, #104	; 0x68
    5f02:	6814      	ldr	r4, [r2, #0]
    5f04:	b109      	cbz	r1, 5f0a <_vasnprintf_r+0xe>
    5f06:	2c00      	cmp	r4, #0
    5f08:	d11a      	bne.n	5f40 <_vasnprintf_r+0x44>
    5f0a:	2400      	movs	r4, #0
    5f0c:	f44f 7222 	mov.w	r2, #648	; 0x288
    5f10:	f8ad 200c 	strh.w	r2, [sp, #12]
    5f14:	9400      	str	r4, [sp, #0]
    5f16:	9404      	str	r4, [sp, #16]
    5f18:	461a      	mov	r2, r3
    5f1a:	f64f 76ff 	movw	r6, #65535	; 0xffff
    5f1e:	9b1e      	ldr	r3, [sp, #120]	; 0x78
    5f20:	9402      	str	r4, [sp, #8]
    5f22:	4669      	mov	r1, sp
    5f24:	9405      	str	r4, [sp, #20]
    5f26:	f8ad 600e 	strh.w	r6, [sp, #14]
    5f2a:	f001 f809 	bl	6f40 <_svfprintf_r>
    5f2e:	2800      	cmp	r0, #0
    5f30:	db11      	blt.n	5f56 <_vasnprintf_r+0x5a>
    5f32:	9b00      	ldr	r3, [sp, #0]
    5f34:	6028      	str	r0, [r5, #0]
    5f36:	2200      	movs	r2, #0
    5f38:	701a      	strb	r2, [r3, #0]
    5f3a:	9804      	ldr	r0, [sp, #16]
    5f3c:	b01a      	add	sp, #104	; 0x68
    5f3e:	bd70      	pop	{r4, r5, r6, pc}
    5f40:	f44f 62c1 	mov.w	r2, #1544	; 0x608
    5f44:	9100      	str	r1, [sp, #0]
    5f46:	9104      	str	r1, [sp, #16]
    5f48:	f8ad 200c 	strh.w	r2, [sp, #12]
    5f4c:	dae4      	bge.n	5f18 <_vasnprintf_r+0x1c>
    5f4e:	238b      	movs	r3, #139	; 0x8b
    5f50:	6003      	str	r3, [r0, #0]
    5f52:	2000      	movs	r0, #0
    5f54:	e7f2      	b.n	5f3c <_vasnprintf_r+0x40>
    5f56:	2000      	movs	r0, #0
    5f58:	e7f0      	b.n	5f3c <_vasnprintf_r+0x40>
    5f5a:	bf00      	nop

00005f5c <_calloc_r>:
    5f5c:	b510      	push	{r4, lr}
    5f5e:	fb02 f101 	mul.w	r1, r2, r1
    5f62:	f7fe fc4b 	bl	47fc <_malloc_r>
    5f66:	4604      	mov	r4, r0
    5f68:	b1d8      	cbz	r0, 5fa2 <_calloc_r+0x46>
    5f6a:	f850 2c04 	ldr.w	r2, [r0, #-4]
    5f6e:	f022 0203 	bic.w	r2, r2, #3
    5f72:	3a04      	subs	r2, #4
    5f74:	2a24      	cmp	r2, #36	; 0x24
    5f76:	d818      	bhi.n	5faa <_calloc_r+0x4e>
    5f78:	2a13      	cmp	r2, #19
    5f7a:	d914      	bls.n	5fa6 <_calloc_r+0x4a>
    5f7c:	2300      	movs	r3, #0
    5f7e:	2a1b      	cmp	r2, #27
    5f80:	6003      	str	r3, [r0, #0]
    5f82:	6043      	str	r3, [r0, #4]
    5f84:	d916      	bls.n	5fb4 <_calloc_r+0x58>
    5f86:	2a24      	cmp	r2, #36	; 0x24
    5f88:	6083      	str	r3, [r0, #8]
    5f8a:	60c3      	str	r3, [r0, #12]
    5f8c:	bf11      	iteee	ne
    5f8e:	f100 0210 	addne.w	r2, r0, #16
    5f92:	6103      	streq	r3, [r0, #16]
    5f94:	6143      	streq	r3, [r0, #20]
    5f96:	f100 0218 	addeq.w	r2, r0, #24
    5f9a:	2300      	movs	r3, #0
    5f9c:	6013      	str	r3, [r2, #0]
    5f9e:	6053      	str	r3, [r2, #4]
    5fa0:	6093      	str	r3, [r2, #8]
    5fa2:	4620      	mov	r0, r4
    5fa4:	bd10      	pop	{r4, pc}
    5fa6:	4602      	mov	r2, r0
    5fa8:	e7f7      	b.n	5f9a <_calloc_r+0x3e>
    5faa:	2100      	movs	r1, #0
    5fac:	f7fe ff58 	bl	4e60 <memset>
    5fb0:	4620      	mov	r0, r4
    5fb2:	bd10      	pop	{r4, pc}
    5fb4:	f100 0208 	add.w	r2, r0, #8
    5fb8:	e7ef      	b.n	5f9a <_calloc_r+0x3e>
    5fba:	bf00      	nop

00005fbc <quorem>:
    5fbc:	6902      	ldr	r2, [r0, #16]
    5fbe:	690b      	ldr	r3, [r1, #16]
    5fc0:	4293      	cmp	r3, r2
    5fc2:	f300 808d 	bgt.w	60e0 <quorem+0x124>
    5fc6:	e92d 4ff0 	stmdb	sp!, {r4, r5, r6, r7, r8, r9, sl, fp, lr}
    5fca:	f103 38ff 	add.w	r8, r3, #4294967295	; 0xffffffff
    5fce:	f101 0714 	add.w	r7, r1, #20
    5fd2:	f100 0b14 	add.w	fp, r0, #20
    5fd6:	f857 2028 	ldr.w	r2, [r7, r8, lsl #2]
    5fda:	f85b 3028 	ldr.w	r3, [fp, r8, lsl #2]
    5fde:	ea4f 0488 	mov.w	r4, r8, lsl #2
    5fe2:	b083      	sub	sp, #12
    5fe4:	3201      	adds	r2, #1
    5fe6:	fbb3 f9f2 	udiv	r9, r3, r2
    5fea:	eb0b 0304 	add.w	r3, fp, r4
    5fee:	9400      	str	r4, [sp, #0]
    5ff0:	eb07 0a04 	add.w	sl, r7, r4
    5ff4:	9301      	str	r3, [sp, #4]
    5ff6:	f1b9 0f00 	cmp.w	r9, #0
    5ffa:	d039      	beq.n	6070 <quorem+0xb4>
    5ffc:	2500      	movs	r5, #0
    5ffe:	46bc      	mov	ip, r7
    6000:	46de      	mov	lr, fp
    6002:	462b      	mov	r3, r5
    6004:	f85c 6b04 	ldr.w	r6, [ip], #4
    6008:	f8de 2000 	ldr.w	r2, [lr]
    600c:	b2b4      	uxth	r4, r6
    600e:	fb09 5504 	mla	r5, r9, r4, r5
    6012:	0c36      	lsrs	r6, r6, #16
    6014:	0c2c      	lsrs	r4, r5, #16
    6016:	fb09 4406 	mla	r4, r9, r6, r4
    601a:	b2ad      	uxth	r5, r5
    601c:	1b5b      	subs	r3, r3, r5
    601e:	b2a6      	uxth	r6, r4
    6020:	fa13 f382 	uxtah	r3, r3, r2
    6024:	ebc6 4612 	rsb	r6, r6, r2, lsr #16
    6028:	eb06 4623 	add.w	r6, r6, r3, asr #16
    602c:	b29b      	uxth	r3, r3
    602e:	ea43 4306 	orr.w	r3, r3, r6, lsl #16
    6032:	45e2      	cmp	sl, ip
    6034:	f84e 3b04 	str.w	r3, [lr], #4
    6038:	ea4f 4514 	mov.w	r5, r4, lsr #16
    603c:	ea4f 4326 	mov.w	r3, r6, asr #16
    6040:	d2e0      	bcs.n	6004 <quorem+0x48>
    6042:	9b00      	ldr	r3, [sp, #0]
    6044:	f85b 3003 	ldr.w	r3, [fp, r3]
    6048:	b993      	cbnz	r3, 6070 <quorem+0xb4>
    604a:	9c01      	ldr	r4, [sp, #4]
    604c:	1f23      	subs	r3, r4, #4
    604e:	459b      	cmp	fp, r3
    6050:	d20c      	bcs.n	606c <quorem+0xb0>
    6052:	f854 3c04 	ldr.w	r3, [r4, #-4]
    6056:	b94b      	cbnz	r3, 606c <quorem+0xb0>
    6058:	f1a4 0308 	sub.w	r3, r4, #8
    605c:	e002      	b.n	6064 <quorem+0xa8>
    605e:	681a      	ldr	r2, [r3, #0]
    6060:	3b04      	subs	r3, #4
    6062:	b91a      	cbnz	r2, 606c <quorem+0xb0>
    6064:	459b      	cmp	fp, r3
    6066:	f108 38ff 	add.w	r8, r8, #4294967295	; 0xffffffff
    606a:	d3f8      	bcc.n	605e <quorem+0xa2>
    606c:	f8c0 8010 	str.w	r8, [r0, #16]
    6070:	4604      	mov	r4, r0
    6072:	f7ff fe3d 	bl	5cf0 <__mcmp>
    6076:	2800      	cmp	r0, #0
    6078:	db2e      	blt.n	60d8 <quorem+0x11c>
    607a:	f109 0901 	add.w	r9, r9, #1
    607e:	465d      	mov	r5, fp
    6080:	2300      	movs	r3, #0
    6082:	f857 1b04 	ldr.w	r1, [r7], #4
    6086:	6828      	ldr	r0, [r5, #0]
    6088:	b28a      	uxth	r2, r1
    608a:	1a9a      	subs	r2, r3, r2
    608c:	0c09      	lsrs	r1, r1, #16
    608e:	fa12 f280 	uxtah	r2, r2, r0
    6092:	ebc1 4310 	rsb	r3, r1, r0, lsr #16
    6096:	eb03 4322 	add.w	r3, r3, r2, asr #16
    609a:	b291      	uxth	r1, r2
    609c:	ea41 4103 	orr.w	r1, r1, r3, lsl #16
    60a0:	45ba      	cmp	sl, r7
    60a2:	f845 1b04 	str.w	r1, [r5], #4
    60a6:	ea4f 4323 	mov.w	r3, r3, asr #16
    60aa:	d2ea      	bcs.n	6082 <quorem+0xc6>
    60ac:	f85b 2028 	ldr.w	r2, [fp, r8, lsl #2]
    60b0:	eb0b 0388 	add.w	r3, fp, r8, lsl #2
    60b4:	b982      	cbnz	r2, 60d8 <quorem+0x11c>
    60b6:	1f1a      	subs	r2, r3, #4
    60b8:	4593      	cmp	fp, r2
    60ba:	d20b      	bcs.n	60d4 <quorem+0x118>
    60bc:	f853 2c04 	ldr.w	r2, [r3, #-4]
    60c0:	b942      	cbnz	r2, 60d4 <quorem+0x118>
    60c2:	3b08      	subs	r3, #8
    60c4:	e002      	b.n	60cc <quorem+0x110>
    60c6:	681a      	ldr	r2, [r3, #0]
    60c8:	3b04      	subs	r3, #4
    60ca:	b91a      	cbnz	r2, 60d4 <quorem+0x118>
    60cc:	459b      	cmp	fp, r3
    60ce:	f108 38ff 	add.w	r8, r8, #4294967295	; 0xffffffff
    60d2:	d3f8      	bcc.n	60c6 <quorem+0x10a>
    60d4:	f8c4 8010 	str.w	r8, [r4, #16]
    60d8:	4648      	mov	r0, r9
    60da:	b003      	add	sp, #12
    60dc:	e8bd 8ff0 	ldmia.w	sp!, {r4, r5, r6, r7, r8, r9, sl, fp, pc}
    60e0:	2000      	movs	r0, #0
    60e2:	4770      	bx	lr
    60e4:	ffff ffff 			; <UNDEFINED> instruction: 0xffffffff

000060e8 <_dtoa_r>:
    60e8:	e92d 4ff0 	stmdb	sp!, {r4, r5, r6, r7, r8, r9, sl, fp, lr}
    60ec:	6c01      	ldr	r1, [r0, #64]	; 0x40
    60ee:	b097      	sub	sp, #92	; 0x5c
    60f0:	4681      	mov	r9, r0
    60f2:	9c23      	ldr	r4, [sp, #140]	; 0x8c
    60f4:	4692      	mov	sl, r2
    60f6:	469b      	mov	fp, r3
    60f8:	b149      	cbz	r1, 610e <_dtoa_r+0x26>
    60fa:	6c42      	ldr	r2, [r0, #68]	; 0x44
    60fc:	604a      	str	r2, [r1, #4]
    60fe:	2301      	movs	r3, #1
    6100:	4093      	lsls	r3, r2
    6102:	608b      	str	r3, [r1, #8]
    6104:	f7ff fc12 	bl	592c <_Bfree>
    6108:	2300      	movs	r3, #0
    610a:	f8c9 3040 	str.w	r3, [r9, #64]	; 0x40
    610e:	f1bb 0f00 	cmp.w	fp, #0
    6112:	46d8      	mov	r8, fp
    6114:	db33      	blt.n	617e <_dtoa_r+0x96>
    6116:	2300      	movs	r3, #0
    6118:	6023      	str	r3, [r4, #0]
    611a:	4ba5      	ldr	r3, [pc, #660]	; (63b0 <_dtoa_r+0x2c8>)
    611c:	461a      	mov	r2, r3
    611e:	ea08 0303 	and.w	r3, r8, r3
    6122:	4293      	cmp	r3, r2
    6124:	d014      	beq.n	6150 <_dtoa_r+0x68>
    6126:	4650      	mov	r0, sl
    6128:	4659      	mov	r1, fp
    612a:	2200      	movs	r2, #0
    612c:	2300      	movs	r3, #0
    612e:	f7fe fad3 	bl	46d8 <__aeabi_dcmpeq>
    6132:	4605      	mov	r5, r0
    6134:	b348      	cbz	r0, 618a <_dtoa_r+0xa2>
    6136:	9a22      	ldr	r2, [sp, #136]	; 0x88
    6138:	2301      	movs	r3, #1
    613a:	6013      	str	r3, [r2, #0]
    613c:	9b24      	ldr	r3, [sp, #144]	; 0x90
    613e:	2b00      	cmp	r3, #0
    6140:	f000 80c5 	beq.w	62ce <_dtoa_r+0x1e6>
    6144:	489b      	ldr	r0, [pc, #620]	; (63b4 <_dtoa_r+0x2cc>)
    6146:	6018      	str	r0, [r3, #0]
    6148:	3801      	subs	r0, #1
    614a:	b017      	add	sp, #92	; 0x5c
    614c:	e8bd 8ff0 	ldmia.w	sp!, {r4, r5, r6, r7, r8, r9, sl, fp, pc}
    6150:	9a22      	ldr	r2, [sp, #136]	; 0x88
    6152:	f242 730f 	movw	r3, #9999	; 0x270f
    6156:	6013      	str	r3, [r2, #0]
    6158:	f1ba 0f00 	cmp.w	sl, #0
    615c:	f000 80a2 	beq.w	62a4 <_dtoa_r+0x1bc>
    6160:	4895      	ldr	r0, [pc, #596]	; (63b8 <_dtoa_r+0x2d0>)
    6162:	9b24      	ldr	r3, [sp, #144]	; 0x90
    6164:	2b00      	cmp	r3, #0
    6166:	d0f0      	beq.n	614a <_dtoa_r+0x62>
    6168:	78c3      	ldrb	r3, [r0, #3]
    616a:	2b00      	cmp	r3, #0
    616c:	f000 80b1 	beq.w	62d2 <_dtoa_r+0x1ea>
    6170:	f100 0308 	add.w	r3, r0, #8
    6174:	9a24      	ldr	r2, [sp, #144]	; 0x90
    6176:	6013      	str	r3, [r2, #0]
    6178:	b017      	add	sp, #92	; 0x5c
    617a:	e8bd 8ff0 	ldmia.w	sp!, {r4, r5, r6, r7, r8, r9, sl, fp, pc}
    617e:	2301      	movs	r3, #1
    6180:	f02b 4800 	bic.w	r8, fp, #2147483648	; 0x80000000
    6184:	6023      	str	r3, [r4, #0]
    6186:	46c3      	mov	fp, r8
    6188:	e7c7      	b.n	611a <_dtoa_r+0x32>
    618a:	aa14      	add	r2, sp, #80	; 0x50
    618c:	ab15      	add	r3, sp, #84	; 0x54
    618e:	9201      	str	r2, [sp, #4]
    6190:	9300      	str	r3, [sp, #0]
    6192:	4652      	mov	r2, sl
    6194:	465b      	mov	r3, fp
    6196:	4648      	mov	r0, r9
    6198:	f7ff fe54 	bl	5e44 <__d2b>
    619c:	ea5f 5418 	movs.w	r4, r8, lsr #20
    61a0:	9008      	str	r0, [sp, #32]
    61a2:	f040 8088 	bne.w	62b6 <_dtoa_r+0x1ce>
    61a6:	9d14      	ldr	r5, [sp, #80]	; 0x50
    61a8:	9c15      	ldr	r4, [sp, #84]	; 0x54
    61aa:	442c      	add	r4, r5
    61ac:	f204 4332 	addw	r3, r4, #1074	; 0x432
    61b0:	2b20      	cmp	r3, #32
    61b2:	f340 8291 	ble.w	66d8 <_dtoa_r+0x5f0>
    61b6:	f1c3 0340 	rsb	r3, r3, #64	; 0x40
    61ba:	f204 4012 	addw	r0, r4, #1042	; 0x412
    61be:	fa08 f803 	lsl.w	r8, r8, r3
    61c2:	fa2a f000 	lsr.w	r0, sl, r0
    61c6:	ea40 0008 	orr.w	r0, r0, r8
    61ca:	f7fd ffa7 	bl	411c <__aeabi_ui2d>
    61ce:	2301      	movs	r3, #1
    61d0:	3c01      	subs	r4, #1
    61d2:	f1a1 71f8 	sub.w	r1, r1, #32505856	; 0x1f00000
    61d6:	9310      	str	r3, [sp, #64]	; 0x40
    61d8:	2200      	movs	r2, #0
    61da:	4b78      	ldr	r3, [pc, #480]	; (63bc <_dtoa_r+0x2d4>)
    61dc:	f7fd fe60 	bl	3ea0 <__aeabi_dsub>
    61e0:	a36d      	add	r3, pc, #436	; (adr r3, 6398 <_dtoa_r+0x2b0>)
    61e2:	e9d3 2300 	ldrd	r2, r3, [r3]
    61e6:	f7fe f80f 	bl	4208 <__aeabi_dmul>
    61ea:	a36d      	add	r3, pc, #436	; (adr r3, 63a0 <_dtoa_r+0x2b8>)
    61ec:	e9d3 2300 	ldrd	r2, r3, [r3]
    61f0:	f7fd fe58 	bl	3ea4 <__adddf3>
    61f4:	4606      	mov	r6, r0
    61f6:	4620      	mov	r0, r4
    61f8:	460f      	mov	r7, r1
    61fa:	f7fd ff9f 	bl	413c <__aeabi_i2d>
    61fe:	a36a      	add	r3, pc, #424	; (adr r3, 63a8 <_dtoa_r+0x2c0>)
    6200:	e9d3 2300 	ldrd	r2, r3, [r3]
    6204:	f7fe f800 	bl	4208 <__aeabi_dmul>
    6208:	4602      	mov	r2, r0
    620a:	460b      	mov	r3, r1
    620c:	4630      	mov	r0, r6
    620e:	4639      	mov	r1, r7
    6210:	f7fd fe48 	bl	3ea4 <__adddf3>
    6214:	4606      	mov	r6, r0
    6216:	460f      	mov	r7, r1
    6218:	f002 fa6a 	bl	86f0 <__aeabi_d2iz>
    621c:	2200      	movs	r2, #0
    621e:	9004      	str	r0, [sp, #16]
    6220:	2300      	movs	r3, #0
    6222:	4630      	mov	r0, r6
    6224:	4639      	mov	r1, r7
    6226:	f7fe fa61 	bl	46ec <__aeabi_dcmplt>
    622a:	2800      	cmp	r0, #0
    622c:	f040 8230 	bne.w	6690 <_dtoa_r+0x5a8>
    6230:	9e04      	ldr	r6, [sp, #16]
    6232:	2e16      	cmp	r6, #22
    6234:	f200 8229 	bhi.w	668a <_dtoa_r+0x5a2>
    6238:	4b61      	ldr	r3, [pc, #388]	; (63c0 <_dtoa_r+0x2d8>)
    623a:	eb03 03c6 	add.w	r3, r3, r6, lsl #3
    623e:	e9d3 0100 	ldrd	r0, r1, [r3]
    6242:	4652      	mov	r2, sl
    6244:	465b      	mov	r3, fp
    6246:	f7fe fa6f 	bl	4728 <__aeabi_dcmpgt>
    624a:	2800      	cmp	r0, #0
    624c:	f000 8249 	beq.w	66e2 <_dtoa_r+0x5fa>
    6250:	1e73      	subs	r3, r6, #1
    6252:	9304      	str	r3, [sp, #16]
    6254:	2300      	movs	r3, #0
    6256:	930c      	str	r3, [sp, #48]	; 0x30
    6258:	1b2c      	subs	r4, r5, r4
    625a:	1e63      	subs	r3, r4, #1
    625c:	9302      	str	r3, [sp, #8]
    625e:	f100 8232 	bmi.w	66c6 <_dtoa_r+0x5de>
    6262:	2300      	movs	r3, #0
    6264:	9305      	str	r3, [sp, #20]
    6266:	9b04      	ldr	r3, [sp, #16]
    6268:	2b00      	cmp	r3, #0
    626a:	f2c0 8223 	blt.w	66b4 <_dtoa_r+0x5cc>
    626e:	9a02      	ldr	r2, [sp, #8]
    6270:	930b      	str	r3, [sp, #44]	; 0x2c
    6272:	4611      	mov	r1, r2
    6274:	4419      	add	r1, r3
    6276:	2300      	movs	r3, #0
    6278:	9102      	str	r1, [sp, #8]
    627a:	930a      	str	r3, [sp, #40]	; 0x28
    627c:	9b20      	ldr	r3, [sp, #128]	; 0x80
    627e:	2b09      	cmp	r3, #9
    6280:	d829      	bhi.n	62d6 <_dtoa_r+0x1ee>
    6282:	2b05      	cmp	r3, #5
    6284:	f340 8658 	ble.w	6f38 <_dtoa_r+0xe50>
    6288:	3b04      	subs	r3, #4
    628a:	9320      	str	r3, [sp, #128]	; 0x80
    628c:	2500      	movs	r5, #0
    628e:	9b20      	ldr	r3, [sp, #128]	; 0x80
    6290:	3b02      	subs	r3, #2
    6292:	2b03      	cmp	r3, #3
    6294:	f200 8635 	bhi.w	6f02 <_dtoa_r+0xe1a>
    6298:	e8df f013 	tbh	[pc, r3, lsl #1]
    629c:	0228032c 	.word	0x0228032c
    62a0:	04590337 	.word	0x04590337
    62a4:	4b44      	ldr	r3, [pc, #272]	; (63b8 <_dtoa_r+0x2d0>)
    62a6:	4a47      	ldr	r2, [pc, #284]	; (63c4 <_dtoa_r+0x2dc>)
    62a8:	f3c8 0013 	ubfx	r0, r8, #0, #20
    62ac:	2800      	cmp	r0, #0
    62ae:	bf14      	ite	ne
    62b0:	4618      	movne	r0, r3
    62b2:	4610      	moveq	r0, r2
    62b4:	e755      	b.n	6162 <_dtoa_r+0x7a>
    62b6:	f3cb 0313 	ubfx	r3, fp, #0, #20
    62ba:	f043 517f 	orr.w	r1, r3, #1069547520	; 0x3fc00000
    62be:	9510      	str	r5, [sp, #64]	; 0x40
    62c0:	4650      	mov	r0, sl
    62c2:	f2a4 34ff 	subw	r4, r4, #1023	; 0x3ff
    62c6:	f441 1140 	orr.w	r1, r1, #3145728	; 0x300000
    62ca:	9d14      	ldr	r5, [sp, #80]	; 0x50
    62cc:	e784      	b.n	61d8 <_dtoa_r+0xf0>
    62ce:	483e      	ldr	r0, [pc, #248]	; (63c8 <_dtoa_r+0x2e0>)
    62d0:	e73b      	b.n	614a <_dtoa_r+0x62>
    62d2:	1cc3      	adds	r3, r0, #3
    62d4:	e74e      	b.n	6174 <_dtoa_r+0x8c>
    62d6:	2100      	movs	r1, #0
    62d8:	f8c9 1044 	str.w	r1, [r9, #68]	; 0x44
    62dc:	4648      	mov	r0, r9
    62de:	9120      	str	r1, [sp, #128]	; 0x80
    62e0:	f7ff fafe 	bl	58e0 <_Balloc>
    62e4:	f04f 33ff 	mov.w	r3, #4294967295	; 0xffffffff
    62e8:	9306      	str	r3, [sp, #24]
    62ea:	9a20      	ldr	r2, [sp, #128]	; 0x80
    62ec:	930d      	str	r3, [sp, #52]	; 0x34
    62ee:	2301      	movs	r3, #1
    62f0:	9007      	str	r0, [sp, #28]
    62f2:	9221      	str	r2, [sp, #132]	; 0x84
    62f4:	f8c9 0040 	str.w	r0, [r9, #64]	; 0x40
    62f8:	9309      	str	r3, [sp, #36]	; 0x24
    62fa:	9b15      	ldr	r3, [sp, #84]	; 0x54
    62fc:	2b00      	cmp	r3, #0
    62fe:	f2c0 80d1 	blt.w	64a4 <_dtoa_r+0x3bc>
    6302:	9a04      	ldr	r2, [sp, #16]
    6304:	2a0e      	cmp	r2, #14
    6306:	f300 80cd 	bgt.w	64a4 <_dtoa_r+0x3bc>
    630a:	4b2d      	ldr	r3, [pc, #180]	; (63c0 <_dtoa_r+0x2d8>)
    630c:	eb03 03c2 	add.w	r3, r3, r2, lsl #3
    6310:	e9d3 3400 	ldrd	r3, r4, [r3]
    6314:	e9cd 3402 	strd	r3, r4, [sp, #8]
    6318:	9b21      	ldr	r3, [sp, #132]	; 0x84
    631a:	2b00      	cmp	r3, #0
    631c:	f2c0 8300 	blt.w	6920 <_dtoa_r+0x838>
    6320:	4656      	mov	r6, sl
    6322:	465f      	mov	r7, fp
    6324:	4650      	mov	r0, sl
    6326:	4659      	mov	r1, fp
    6328:	e9dd ab02 	ldrd	sl, fp, [sp, #8]
    632c:	4652      	mov	r2, sl
    632e:	465b      	mov	r3, fp
    6330:	f7fe f894 	bl	445c <__aeabi_ddiv>
    6334:	f002 f9dc 	bl	86f0 <__aeabi_d2iz>
    6338:	4604      	mov	r4, r0
    633a:	f7fd feff 	bl	413c <__aeabi_i2d>
    633e:	4652      	mov	r2, sl
    6340:	465b      	mov	r3, fp
    6342:	f7fd ff61 	bl	4208 <__aeabi_dmul>
    6346:	460b      	mov	r3, r1
    6348:	4602      	mov	r2, r0
    634a:	4639      	mov	r1, r7
    634c:	4630      	mov	r0, r6
    634e:	f7fd fda7 	bl	3ea0 <__aeabi_dsub>
    6352:	9d07      	ldr	r5, [sp, #28]
    6354:	f104 0330 	add.w	r3, r4, #48	; 0x30
    6358:	702b      	strb	r3, [r5, #0]
    635a:	9b06      	ldr	r3, [sp, #24]
    635c:	2b01      	cmp	r3, #1
    635e:	4606      	mov	r6, r0
    6360:	460f      	mov	r7, r1
    6362:	f105 0501 	add.w	r5, r5, #1
    6366:	d062      	beq.n	642e <_dtoa_r+0x346>
    6368:	2200      	movs	r2, #0
    636a:	4b18      	ldr	r3, [pc, #96]	; (63cc <_dtoa_r+0x2e4>)
    636c:	f7fd ff4c 	bl	4208 <__aeabi_dmul>
    6370:	2200      	movs	r2, #0
    6372:	2300      	movs	r3, #0
    6374:	4606      	mov	r6, r0
    6376:	460f      	mov	r7, r1
    6378:	f7fe f9ae 	bl	46d8 <__aeabi_dcmpeq>
    637c:	2800      	cmp	r0, #0
    637e:	d17e      	bne.n	647e <_dtoa_r+0x396>
    6380:	f8cd 9014 	str.w	r9, [sp, #20]
    6384:	f8dd a018 	ldr.w	sl, [sp, #24]
    6388:	f8dd b01c 	ldr.w	fp, [sp, #28]
    638c:	e9dd 8902 	ldrd	r8, r9, [sp, #8]
    6390:	e029      	b.n	63e6 <_dtoa_r+0x2fe>
    6392:	bf00      	nop
    6394:	f3af 8000 	nop.w
    6398:	636f4361 	.word	0x636f4361
    639c:	3fd287a7 	.word	0x3fd287a7
    63a0:	8b60c8b3 	.word	0x8b60c8b3
    63a4:	3fc68a28 	.word	0x3fc68a28
    63a8:	509f79fb 	.word	0x509f79fb
    63ac:	3fd34413 	.word	0x3fd34413
    63b0:	7ff00000 	.word	0x7ff00000
    63b4:	000091e9 	.word	0x000091e9
    63b8:	000091e4 	.word	0x000091e4
    63bc:	3ff80000 	.word	0x3ff80000
    63c0:	000090d8 	.word	0x000090d8
    63c4:	000091d8 	.word	0x000091d8
    63c8:	000091e8 	.word	0x000091e8
    63cc:	40240000 	.word	0x40240000
    63d0:	f7fd ff1a 	bl	4208 <__aeabi_dmul>
    63d4:	2200      	movs	r2, #0
    63d6:	2300      	movs	r3, #0
    63d8:	4606      	mov	r6, r0
    63da:	460f      	mov	r7, r1
    63dc:	f7fe f97c 	bl	46d8 <__aeabi_dcmpeq>
    63e0:	2800      	cmp	r0, #0
    63e2:	f040 83b7 	bne.w	6b54 <_dtoa_r+0xa6c>
    63e6:	4642      	mov	r2, r8
    63e8:	464b      	mov	r3, r9
    63ea:	4630      	mov	r0, r6
    63ec:	4639      	mov	r1, r7
    63ee:	f7fe f835 	bl	445c <__aeabi_ddiv>
    63f2:	f002 f97d 	bl	86f0 <__aeabi_d2iz>
    63f6:	4604      	mov	r4, r0
    63f8:	f7fd fea0 	bl	413c <__aeabi_i2d>
    63fc:	4642      	mov	r2, r8
    63fe:	464b      	mov	r3, r9
    6400:	f7fd ff02 	bl	4208 <__aeabi_dmul>
    6404:	4602      	mov	r2, r0
    6406:	460b      	mov	r3, r1
    6408:	4630      	mov	r0, r6
    640a:	4639      	mov	r1, r7
    640c:	f7fd fd48 	bl	3ea0 <__aeabi_dsub>
    6410:	f104 0e30 	add.w	lr, r4, #48	; 0x30
    6414:	f805 eb01 	strb.w	lr, [r5], #1
    6418:	ebcb 0e05 	rsb	lr, fp, r5
    641c:	45d6      	cmp	lr, sl
    641e:	4606      	mov	r6, r0
    6420:	460f      	mov	r7, r1
    6422:	f04f 0200 	mov.w	r2, #0
    6426:	4bb0      	ldr	r3, [pc, #704]	; (66e8 <_dtoa_r+0x600>)
    6428:	d1d2      	bne.n	63d0 <_dtoa_r+0x2e8>
    642a:	f8dd 9014 	ldr.w	r9, [sp, #20]
    642e:	4632      	mov	r2, r6
    6430:	463b      	mov	r3, r7
    6432:	4630      	mov	r0, r6
    6434:	4639      	mov	r1, r7
    6436:	f7fd fd35 	bl	3ea4 <__adddf3>
    643a:	4606      	mov	r6, r0
    643c:	460f      	mov	r7, r1
    643e:	4602      	mov	r2, r0
    6440:	460b      	mov	r3, r1
    6442:	e9dd 0102 	ldrd	r0, r1, [sp, #8]
    6446:	f7fe f951 	bl	46ec <__aeabi_dcmplt>
    644a:	b940      	cbnz	r0, 645e <_dtoa_r+0x376>
    644c:	4632      	mov	r2, r6
    644e:	463b      	mov	r3, r7
    6450:	e9dd 0102 	ldrd	r0, r1, [sp, #8]
    6454:	f7fe f940 	bl	46d8 <__aeabi_dcmpeq>
    6458:	b188      	cbz	r0, 647e <_dtoa_r+0x396>
    645a:	07e3      	lsls	r3, r4, #31
    645c:	d50f      	bpl.n	647e <_dtoa_r+0x396>
    645e:	f815 4c01 	ldrb.w	r4, [r5, #-1]
    6462:	9a07      	ldr	r2, [sp, #28]
    6464:	1e6b      	subs	r3, r5, #1
    6466:	e004      	b.n	6472 <_dtoa_r+0x38a>
    6468:	429a      	cmp	r2, r3
    646a:	f000 842c 	beq.w	6cc6 <_dtoa_r+0xbde>
    646e:	f813 4d01 	ldrb.w	r4, [r3, #-1]!
    6472:	2c39      	cmp	r4, #57	; 0x39
    6474:	f103 0501 	add.w	r5, r3, #1
    6478:	d0f6      	beq.n	6468 <_dtoa_r+0x380>
    647a:	3401      	adds	r4, #1
    647c:	701c      	strb	r4, [r3, #0]
    647e:	9908      	ldr	r1, [sp, #32]
    6480:	4648      	mov	r0, r9
    6482:	f7ff fa53 	bl	592c <_Bfree>
    6486:	2200      	movs	r2, #0
    6488:	9b04      	ldr	r3, [sp, #16]
    648a:	702a      	strb	r2, [r5, #0]
    648c:	9a22      	ldr	r2, [sp, #136]	; 0x88
    648e:	3301      	adds	r3, #1
    6490:	6013      	str	r3, [r2, #0]
    6492:	9b24      	ldr	r3, [sp, #144]	; 0x90
    6494:	2b00      	cmp	r3, #0
    6496:	f000 83a7 	beq.w	6be8 <_dtoa_r+0xb00>
    649a:	9807      	ldr	r0, [sp, #28]
    649c:	601d      	str	r5, [r3, #0]
    649e:	b017      	add	sp, #92	; 0x5c
    64a0:	e8bd 8ff0 	ldmia.w	sp!, {r4, r5, r6, r7, r8, r9, sl, fp, pc}
    64a4:	9a09      	ldr	r2, [sp, #36]	; 0x24
    64a6:	2a00      	cmp	r2, #0
    64a8:	f000 8112 	beq.w	66d0 <_dtoa_r+0x5e8>
    64ac:	9a20      	ldr	r2, [sp, #128]	; 0x80
    64ae:	2a01      	cmp	r2, #1
    64b0:	f340 8258 	ble.w	6964 <_dtoa_r+0x87c>
    64b4:	9b06      	ldr	r3, [sp, #24]
    64b6:	9a0a      	ldr	r2, [sp, #40]	; 0x28
    64b8:	1e5f      	subs	r7, r3, #1
    64ba:	42ba      	cmp	r2, r7
    64bc:	f2c0 8397 	blt.w	6bee <_dtoa_r+0xb06>
    64c0:	1bd7      	subs	r7, r2, r7
    64c2:	9b06      	ldr	r3, [sp, #24]
    64c4:	2b00      	cmp	r3, #0
    64c6:	f2c0 848a 	blt.w	6dde <_dtoa_r+0xcf6>
    64ca:	9d05      	ldr	r5, [sp, #20]
    64cc:	9b06      	ldr	r3, [sp, #24]
    64ce:	9a05      	ldr	r2, [sp, #20]
    64d0:	441a      	add	r2, r3
    64d2:	9205      	str	r2, [sp, #20]
    64d4:	9a02      	ldr	r2, [sp, #8]
    64d6:	2101      	movs	r1, #1
    64d8:	441a      	add	r2, r3
    64da:	4648      	mov	r0, r9
    64dc:	9202      	str	r2, [sp, #8]
    64de:	f7ff fabd 	bl	5a5c <__i2b>
    64e2:	4606      	mov	r6, r0
    64e4:	b165      	cbz	r5, 6500 <_dtoa_r+0x418>
    64e6:	9902      	ldr	r1, [sp, #8]
    64e8:	2900      	cmp	r1, #0
    64ea:	460b      	mov	r3, r1
    64ec:	dd08      	ble.n	6500 <_dtoa_r+0x418>
    64ee:	42a9      	cmp	r1, r5
    64f0:	9a05      	ldr	r2, [sp, #20]
    64f2:	bfa8      	it	ge
    64f4:	462b      	movge	r3, r5
    64f6:	1ad2      	subs	r2, r2, r3
    64f8:	1aed      	subs	r5, r5, r3
    64fa:	1acb      	subs	r3, r1, r3
    64fc:	9205      	str	r2, [sp, #20]
    64fe:	9302      	str	r3, [sp, #8]
    6500:	9b0a      	ldr	r3, [sp, #40]	; 0x28
    6502:	2b00      	cmp	r3, #0
    6504:	f340 82fc 	ble.w	6b00 <_dtoa_r+0xa18>
    6508:	9a09      	ldr	r2, [sp, #36]	; 0x24
    650a:	2a00      	cmp	r2, #0
    650c:	f000 8201 	beq.w	6912 <_dtoa_r+0x82a>
    6510:	2f00      	cmp	r7, #0
    6512:	f000 81fe 	beq.w	6912 <_dtoa_r+0x82a>
    6516:	4631      	mov	r1, r6
    6518:	463a      	mov	r2, r7
    651a:	4648      	mov	r0, r9
    651c:	f7ff fb40 	bl	5ba0 <__pow5mult>
    6520:	f8dd 8020 	ldr.w	r8, [sp, #32]
    6524:	4601      	mov	r1, r0
    6526:	4642      	mov	r2, r8
    6528:	4606      	mov	r6, r0
    652a:	4648      	mov	r0, r9
    652c:	f7ff faa0 	bl	5a70 <__multiply>
    6530:	4641      	mov	r1, r8
    6532:	4604      	mov	r4, r0
    6534:	4648      	mov	r0, r9
    6536:	f7ff f9f9 	bl	592c <_Bfree>
    653a:	9b0a      	ldr	r3, [sp, #40]	; 0x28
    653c:	1bdb      	subs	r3, r3, r7
    653e:	930a      	str	r3, [sp, #40]	; 0x28
    6540:	f040 81e6 	bne.w	6910 <_dtoa_r+0x828>
    6544:	2101      	movs	r1, #1
    6546:	4648      	mov	r0, r9
    6548:	f7ff fa88 	bl	5a5c <__i2b>
    654c:	9b0b      	ldr	r3, [sp, #44]	; 0x2c
    654e:	4680      	mov	r8, r0
    6550:	2b00      	cmp	r3, #0
    6552:	f000 8219 	beq.w	6988 <_dtoa_r+0x8a0>
    6556:	4601      	mov	r1, r0
    6558:	461a      	mov	r2, r3
    655a:	4648      	mov	r0, r9
    655c:	f7ff fb20 	bl	5ba0 <__pow5mult>
    6560:	9b20      	ldr	r3, [sp, #128]	; 0x80
    6562:	2b01      	cmp	r3, #1
    6564:	4680      	mov	r8, r0
    6566:	f340 82f8 	ble.w	6b5a <_dtoa_r+0xa72>
    656a:	2700      	movs	r7, #0
    656c:	f8d8 3010 	ldr.w	r3, [r8, #16]
    6570:	eb08 0383 	add.w	r3, r8, r3, lsl #2
    6574:	6918      	ldr	r0, [r3, #16]
    6576:	f7ff fa23 	bl	59c0 <__hi0bits>
    657a:	f1c0 0020 	rsb	r0, r0, #32
    657e:	9a02      	ldr	r2, [sp, #8]
    6580:	4410      	add	r0, r2
    6582:	f010 001f 	ands.w	r0, r0, #31
    6586:	f000 81f6 	beq.w	6976 <_dtoa_r+0x88e>
    658a:	f1c0 0320 	rsb	r3, r0, #32
    658e:	2b04      	cmp	r3, #4
    6590:	f340 84ca 	ble.w	6f28 <_dtoa_r+0xe40>
    6594:	9b05      	ldr	r3, [sp, #20]
    6596:	f1c0 001c 	rsb	r0, r0, #28
    659a:	4403      	add	r3, r0
    659c:	9305      	str	r3, [sp, #20]
    659e:	4613      	mov	r3, r2
    65a0:	4403      	add	r3, r0
    65a2:	4405      	add	r5, r0
    65a4:	9302      	str	r3, [sp, #8]
    65a6:	9b05      	ldr	r3, [sp, #20]
    65a8:	2b00      	cmp	r3, #0
    65aa:	dd05      	ble.n	65b8 <_dtoa_r+0x4d0>
    65ac:	4621      	mov	r1, r4
    65ae:	461a      	mov	r2, r3
    65b0:	4648      	mov	r0, r9
    65b2:	f7ff fb45 	bl	5c40 <__lshift>
    65b6:	4604      	mov	r4, r0
    65b8:	9b02      	ldr	r3, [sp, #8]
    65ba:	2b00      	cmp	r3, #0
    65bc:	dd05      	ble.n	65ca <_dtoa_r+0x4e2>
    65be:	4641      	mov	r1, r8
    65c0:	461a      	mov	r2, r3
    65c2:	4648      	mov	r0, r9
    65c4:	f7ff fb3c 	bl	5c40 <__lshift>
    65c8:	4680      	mov	r8, r0
    65ca:	9b0c      	ldr	r3, [sp, #48]	; 0x30
    65cc:	2b00      	cmp	r3, #0
    65ce:	f040 827c 	bne.w	6aca <_dtoa_r+0x9e2>
    65d2:	9b06      	ldr	r3, [sp, #24]
    65d4:	2b00      	cmp	r3, #0
    65d6:	f340 8295 	ble.w	6b04 <_dtoa_r+0xa1c>
    65da:	9b09      	ldr	r3, [sp, #36]	; 0x24
    65dc:	2b00      	cmp	r3, #0
    65de:	f040 81f5 	bne.w	69cc <_dtoa_r+0x8e4>
    65e2:	f8dd b01c 	ldr.w	fp, [sp, #28]
    65e6:	9f06      	ldr	r7, [sp, #24]
    65e8:	465d      	mov	r5, fp
    65ea:	e002      	b.n	65f2 <_dtoa_r+0x50a>
    65ec:	f7ff f9a8 	bl	5940 <__multadd>
    65f0:	4604      	mov	r4, r0
    65f2:	4641      	mov	r1, r8
    65f4:	4620      	mov	r0, r4
    65f6:	f7ff fce1 	bl	5fbc <quorem>
    65fa:	f100 0a30 	add.w	sl, r0, #48	; 0x30
    65fe:	f805 ab01 	strb.w	sl, [r5], #1
    6602:	ebcb 0305 	rsb	r3, fp, r5
    6606:	42bb      	cmp	r3, r7
    6608:	f04f 020a 	mov.w	r2, #10
    660c:	f04f 0300 	mov.w	r3, #0
    6610:	4621      	mov	r1, r4
    6612:	4648      	mov	r0, r9
    6614:	dbea      	blt.n	65ec <_dtoa_r+0x504>
    6616:	9b07      	ldr	r3, [sp, #28]
    6618:	9a06      	ldr	r2, [sp, #24]
    661a:	2a01      	cmp	r2, #1
    661c:	bfac      	ite	ge
    661e:	189b      	addge	r3, r3, r2
    6620:	3301      	addlt	r3, #1
    6622:	461d      	mov	r5, r3
    6624:	f04f 0b00 	mov.w	fp, #0
    6628:	4621      	mov	r1, r4
    662a:	2201      	movs	r2, #1
    662c:	4648      	mov	r0, r9
    662e:	f7ff fb07 	bl	5c40 <__lshift>
    6632:	4641      	mov	r1, r8
    6634:	9008      	str	r0, [sp, #32]
    6636:	f7ff fb5b 	bl	5cf0 <__mcmp>
    663a:	2800      	cmp	r0, #0
    663c:	f340 830d 	ble.w	6c5a <_dtoa_r+0xb72>
    6640:	f815 2c01 	ldrb.w	r2, [r5, #-1]
    6644:	9907      	ldr	r1, [sp, #28]
    6646:	1e6b      	subs	r3, r5, #1
    6648:	e004      	b.n	6654 <_dtoa_r+0x56c>
    664a:	428b      	cmp	r3, r1
    664c:	f000 8278 	beq.w	6b40 <_dtoa_r+0xa58>
    6650:	f813 2d01 	ldrb.w	r2, [r3, #-1]!
    6654:	2a39      	cmp	r2, #57	; 0x39
    6656:	f103 0501 	add.w	r5, r3, #1
    665a:	d0f6      	beq.n	664a <_dtoa_r+0x562>
    665c:	3201      	adds	r2, #1
    665e:	701a      	strb	r2, [r3, #0]
    6660:	4641      	mov	r1, r8
    6662:	4648      	mov	r0, r9
    6664:	f7ff f962 	bl	592c <_Bfree>
    6668:	2e00      	cmp	r6, #0
    666a:	f43f af08 	beq.w	647e <_dtoa_r+0x396>
    666e:	f1bb 0f00 	cmp.w	fp, #0
    6672:	d005      	beq.n	6680 <_dtoa_r+0x598>
    6674:	45b3      	cmp	fp, r6
    6676:	d003      	beq.n	6680 <_dtoa_r+0x598>
    6678:	4659      	mov	r1, fp
    667a:	4648      	mov	r0, r9
    667c:	f7ff f956 	bl	592c <_Bfree>
    6680:	4631      	mov	r1, r6
    6682:	4648      	mov	r0, r9
    6684:	f7ff f952 	bl	592c <_Bfree>
    6688:	e6f9      	b.n	647e <_dtoa_r+0x396>
    668a:	2301      	movs	r3, #1
    668c:	930c      	str	r3, [sp, #48]	; 0x30
    668e:	e5e3      	b.n	6258 <_dtoa_r+0x170>
    6690:	f8dd 8010 	ldr.w	r8, [sp, #16]
    6694:	4640      	mov	r0, r8
    6696:	f7fd fd51 	bl	413c <__aeabi_i2d>
    669a:	4602      	mov	r2, r0
    669c:	460b      	mov	r3, r1
    669e:	4630      	mov	r0, r6
    66a0:	4639      	mov	r1, r7
    66a2:	f7fe f819 	bl	46d8 <__aeabi_dcmpeq>
    66a6:	2800      	cmp	r0, #0
    66a8:	f47f adc2 	bne.w	6230 <_dtoa_r+0x148>
    66ac:	f108 33ff 	add.w	r3, r8, #4294967295	; 0xffffffff
    66b0:	9304      	str	r3, [sp, #16]
    66b2:	e5bd      	b.n	6230 <_dtoa_r+0x148>
    66b4:	9a05      	ldr	r2, [sp, #20]
    66b6:	9b04      	ldr	r3, [sp, #16]
    66b8:	1ad2      	subs	r2, r2, r3
    66ba:	425b      	negs	r3, r3
    66bc:	930a      	str	r3, [sp, #40]	; 0x28
    66be:	2300      	movs	r3, #0
    66c0:	9205      	str	r2, [sp, #20]
    66c2:	930b      	str	r3, [sp, #44]	; 0x2c
    66c4:	e5da      	b.n	627c <_dtoa_r+0x194>
    66c6:	425b      	negs	r3, r3
    66c8:	9305      	str	r3, [sp, #20]
    66ca:	2300      	movs	r3, #0
    66cc:	9302      	str	r3, [sp, #8]
    66ce:	e5ca      	b.n	6266 <_dtoa_r+0x17e>
    66d0:	9f0a      	ldr	r7, [sp, #40]	; 0x28
    66d2:	9d05      	ldr	r5, [sp, #20]
    66d4:	9e09      	ldr	r6, [sp, #36]	; 0x24
    66d6:	e705      	b.n	64e4 <_dtoa_r+0x3fc>
    66d8:	f1c3 0820 	rsb	r8, r3, #32
    66dc:	fa0a f008 	lsl.w	r0, sl, r8
    66e0:	e573      	b.n	61ca <_dtoa_r+0xe2>
    66e2:	900c      	str	r0, [sp, #48]	; 0x30
    66e4:	e5b8      	b.n	6258 <_dtoa_r+0x170>
    66e6:	bf00      	nop
    66e8:	40240000 	.word	0x40240000
    66ec:	2300      	movs	r3, #0
    66ee:	9309      	str	r3, [sp, #36]	; 0x24
    66f0:	9b04      	ldr	r3, [sp, #16]
    66f2:	9a21      	ldr	r2, [sp, #132]	; 0x84
    66f4:	4413      	add	r3, r2
    66f6:	930d      	str	r3, [sp, #52]	; 0x34
    66f8:	3301      	adds	r3, #1
    66fa:	2b00      	cmp	r3, #0
    66fc:	9306      	str	r3, [sp, #24]
    66fe:	f340 8283 	ble.w	6c08 <_dtoa_r+0xb20>
    6702:	9c06      	ldr	r4, [sp, #24]
    6704:	4626      	mov	r6, r4
    6706:	2100      	movs	r1, #0
    6708:	2e17      	cmp	r6, #23
    670a:	f8c9 1044 	str.w	r1, [r9, #68]	; 0x44
    670e:	d90b      	bls.n	6728 <_dtoa_r+0x640>
    6710:	2201      	movs	r2, #1
    6712:	2304      	movs	r3, #4
    6714:	005b      	lsls	r3, r3, #1
    6716:	f103 0014 	add.w	r0, r3, #20
    671a:	42b0      	cmp	r0, r6
    671c:	4611      	mov	r1, r2
    671e:	f102 0201 	add.w	r2, r2, #1
    6722:	d9f7      	bls.n	6714 <_dtoa_r+0x62c>
    6724:	f8c9 1044 	str.w	r1, [r9, #68]	; 0x44
    6728:	4648      	mov	r0, r9
    672a:	f7ff f8d9 	bl	58e0 <_Balloc>
    672e:	2c0e      	cmp	r4, #14
    6730:	9007      	str	r0, [sp, #28]
    6732:	f8c9 0040 	str.w	r0, [r9, #64]	; 0x40
    6736:	f63f ade0 	bhi.w	62fa <_dtoa_r+0x212>
    673a:	2d00      	cmp	r5, #0
    673c:	f43f addd 	beq.w	62fa <_dtoa_r+0x212>
    6740:	9904      	ldr	r1, [sp, #16]
    6742:	4657      	mov	r7, sl
    6744:	46d8      	mov	r8, fp
    6746:	2900      	cmp	r1, #0
    6748:	e9cd 780e 	strd	r7, r8, [sp, #56]	; 0x38
    674c:	f340 8292 	ble.w	6c74 <_dtoa_r+0xb8c>
    6750:	4b91      	ldr	r3, [pc, #580]	; (6998 <_dtoa_r+0x8b0>)
    6752:	f001 020f 	and.w	r2, r1, #15
    6756:	110e      	asrs	r6, r1, #4
    6758:	eb03 03c2 	add.w	r3, r3, r2, lsl #3
    675c:	06f0      	lsls	r0, r6, #27
    675e:	e9d3 4500 	ldrd	r4, r5, [r3]
    6762:	f140 824c 	bpl.w	6bfe <_dtoa_r+0xb16>
    6766:	4b8d      	ldr	r3, [pc, #564]	; (699c <_dtoa_r+0x8b4>)
    6768:	4650      	mov	r0, sl
    676a:	4659      	mov	r1, fp
    676c:	e9d3 2308 	ldrd	r2, r3, [r3, #32]
    6770:	f7fd fe74 	bl	445c <__aeabi_ddiv>
    6774:	f006 060f 	and.w	r6, r6, #15
    6778:	4682      	mov	sl, r0
    677a:	468b      	mov	fp, r1
    677c:	f04f 0803 	mov.w	r8, #3
    6780:	b186      	cbz	r6, 67a4 <_dtoa_r+0x6bc>
    6782:	4f86      	ldr	r7, [pc, #536]	; (699c <_dtoa_r+0x8b4>)
    6784:	07f1      	lsls	r1, r6, #31
    6786:	d509      	bpl.n	679c <_dtoa_r+0x6b4>
    6788:	4620      	mov	r0, r4
    678a:	4629      	mov	r1, r5
    678c:	e9d7 2300 	ldrd	r2, r3, [r7]
    6790:	f7fd fd3a 	bl	4208 <__aeabi_dmul>
    6794:	f108 0801 	add.w	r8, r8, #1
    6798:	4604      	mov	r4, r0
    679a:	460d      	mov	r5, r1
    679c:	1076      	asrs	r6, r6, #1
    679e:	f107 0708 	add.w	r7, r7, #8
    67a2:	d1ef      	bne.n	6784 <_dtoa_r+0x69c>
    67a4:	4622      	mov	r2, r4
    67a6:	462b      	mov	r3, r5
    67a8:	4650      	mov	r0, sl
    67aa:	4659      	mov	r1, fp
    67ac:	f7fd fe56 	bl	445c <__aeabi_ddiv>
    67b0:	4606      	mov	r6, r0
    67b2:	460f      	mov	r7, r1
    67b4:	9b0c      	ldr	r3, [sp, #48]	; 0x30
    67b6:	b143      	cbz	r3, 67ca <_dtoa_r+0x6e2>
    67b8:	2200      	movs	r2, #0
    67ba:	4b79      	ldr	r3, [pc, #484]	; (69a0 <_dtoa_r+0x8b8>)
    67bc:	4630      	mov	r0, r6
    67be:	4639      	mov	r1, r7
    67c0:	f7fd ff94 	bl	46ec <__aeabi_dcmplt>
    67c4:	2800      	cmp	r0, #0
    67c6:	f040 8320 	bne.w	6e0a <_dtoa_r+0xd22>
    67ca:	4640      	mov	r0, r8
    67cc:	f7fd fcb6 	bl	413c <__aeabi_i2d>
    67d0:	4632      	mov	r2, r6
    67d2:	463b      	mov	r3, r7
    67d4:	f7fd fd18 	bl	4208 <__aeabi_dmul>
    67d8:	4b72      	ldr	r3, [pc, #456]	; (69a4 <_dtoa_r+0x8bc>)
    67da:	2200      	movs	r2, #0
    67dc:	f7fd fb62 	bl	3ea4 <__adddf3>
    67e0:	9b06      	ldr	r3, [sp, #24]
    67e2:	4604      	mov	r4, r0
    67e4:	f1a1 7550 	sub.w	r5, r1, #54525952	; 0x3400000
    67e8:	2b00      	cmp	r3, #0
    67ea:	f000 81df 	beq.w	6bac <_dtoa_r+0xac4>
    67ee:	9b04      	ldr	r3, [sp, #16]
    67f0:	f8dd 8018 	ldr.w	r8, [sp, #24]
    67f4:	9311      	str	r3, [sp, #68]	; 0x44
    67f6:	9b09      	ldr	r3, [sp, #36]	; 0x24
    67f8:	2b00      	cmp	r3, #0
    67fa:	f000 8297 	beq.w	6d2c <_dtoa_r+0xc44>
    67fe:	4b66      	ldr	r3, [pc, #408]	; (6998 <_dtoa_r+0x8b0>)
    6800:	4969      	ldr	r1, [pc, #420]	; (69a8 <_dtoa_r+0x8c0>)
    6802:	eb03 03c8 	add.w	r3, r3, r8, lsl #3
    6806:	e953 2302 	ldrd	r2, r3, [r3, #-8]
    680a:	2000      	movs	r0, #0
    680c:	f7fd fe26 	bl	445c <__aeabi_ddiv>
    6810:	4622      	mov	r2, r4
    6812:	462b      	mov	r3, r5
    6814:	f7fd fb44 	bl	3ea0 <__aeabi_dsub>
    6818:	4682      	mov	sl, r0
    681a:	468b      	mov	fp, r1
    681c:	4630      	mov	r0, r6
    681e:	4639      	mov	r1, r7
    6820:	f001 ff66 	bl	86f0 <__aeabi_d2iz>
    6824:	4604      	mov	r4, r0
    6826:	f7fd fc89 	bl	413c <__aeabi_i2d>
    682a:	4602      	mov	r2, r0
    682c:	460b      	mov	r3, r1
    682e:	4630      	mov	r0, r6
    6830:	4639      	mov	r1, r7
    6832:	f7fd fb35 	bl	3ea0 <__aeabi_dsub>
    6836:	3430      	adds	r4, #48	; 0x30
    6838:	9d07      	ldr	r5, [sp, #28]
    683a:	b2e4      	uxtb	r4, r4
    683c:	4606      	mov	r6, r0
    683e:	460f      	mov	r7, r1
    6840:	702c      	strb	r4, [r5, #0]
    6842:	4602      	mov	r2, r0
    6844:	460b      	mov	r3, r1
    6846:	4650      	mov	r0, sl
    6848:	4659      	mov	r1, fp
    684a:	3501      	adds	r5, #1
    684c:	f7fd ff6c 	bl	4728 <__aeabi_dcmpgt>
    6850:	2800      	cmp	r0, #0
    6852:	d14c      	bne.n	68ee <_dtoa_r+0x806>
    6854:	4632      	mov	r2, r6
    6856:	463b      	mov	r3, r7
    6858:	2000      	movs	r0, #0
    685a:	4951      	ldr	r1, [pc, #324]	; (69a0 <_dtoa_r+0x8b8>)
    685c:	f7fd fb20 	bl	3ea0 <__aeabi_dsub>
    6860:	4602      	mov	r2, r0
    6862:	460b      	mov	r3, r1
    6864:	4650      	mov	r0, sl
    6866:	4659      	mov	r1, fp
    6868:	f7fd ff5e 	bl	4728 <__aeabi_dcmpgt>
    686c:	2800      	cmp	r0, #0
    686e:	f040 830d 	bne.w	6e8c <_dtoa_r+0xda4>
    6872:	f1b8 0f01 	cmp.w	r8, #1
    6876:	f340 81b3 	ble.w	6be0 <_dtoa_r+0xaf8>
    687a:	9b07      	ldr	r3, [sp, #28]
    687c:	4498      	add	r8, r3
    687e:	e00d      	b.n	689c <_dtoa_r+0x7b4>
    6880:	2000      	movs	r0, #0
    6882:	4947      	ldr	r1, [pc, #284]	; (69a0 <_dtoa_r+0x8b8>)
    6884:	f7fd fb0c 	bl	3ea0 <__aeabi_dsub>
    6888:	4652      	mov	r2, sl
    688a:	465b      	mov	r3, fp
    688c:	f7fd ff2e 	bl	46ec <__aeabi_dcmplt>
    6890:	2800      	cmp	r0, #0
    6892:	f040 82fb 	bne.w	6e8c <_dtoa_r+0xda4>
    6896:	4545      	cmp	r5, r8
    6898:	f000 81a2 	beq.w	6be0 <_dtoa_r+0xaf8>
    689c:	4650      	mov	r0, sl
    689e:	4659      	mov	r1, fp
    68a0:	2200      	movs	r2, #0
    68a2:	4b42      	ldr	r3, [pc, #264]	; (69ac <_dtoa_r+0x8c4>)
    68a4:	f7fd fcb0 	bl	4208 <__aeabi_dmul>
    68a8:	2200      	movs	r2, #0
    68aa:	4b40      	ldr	r3, [pc, #256]	; (69ac <_dtoa_r+0x8c4>)
    68ac:	4682      	mov	sl, r0
    68ae:	468b      	mov	fp, r1
    68b0:	4630      	mov	r0, r6
    68b2:	4639      	mov	r1, r7
    68b4:	f7fd fca8 	bl	4208 <__aeabi_dmul>
    68b8:	460f      	mov	r7, r1
    68ba:	4606      	mov	r6, r0
    68bc:	f001 ff18 	bl	86f0 <__aeabi_d2iz>
    68c0:	4604      	mov	r4, r0
    68c2:	f7fd fc3b 	bl	413c <__aeabi_i2d>
    68c6:	4602      	mov	r2, r0
    68c8:	460b      	mov	r3, r1
    68ca:	4630      	mov	r0, r6
    68cc:	4639      	mov	r1, r7
    68ce:	f7fd fae7 	bl	3ea0 <__aeabi_dsub>
    68d2:	3430      	adds	r4, #48	; 0x30
    68d4:	b2e4      	uxtb	r4, r4
    68d6:	4652      	mov	r2, sl
    68d8:	465b      	mov	r3, fp
    68da:	f805 4b01 	strb.w	r4, [r5], #1
    68de:	4606      	mov	r6, r0
    68e0:	460f      	mov	r7, r1
    68e2:	f7fd ff03 	bl	46ec <__aeabi_dcmplt>
    68e6:	4632      	mov	r2, r6
    68e8:	463b      	mov	r3, r7
    68ea:	2800      	cmp	r0, #0
    68ec:	d0c8      	beq.n	6880 <_dtoa_r+0x798>
    68ee:	9b11      	ldr	r3, [sp, #68]	; 0x44
    68f0:	9304      	str	r3, [sp, #16]
    68f2:	e5c4      	b.n	647e <_dtoa_r+0x396>
    68f4:	2300      	movs	r3, #0
    68f6:	9309      	str	r3, [sp, #36]	; 0x24
    68f8:	9b21      	ldr	r3, [sp, #132]	; 0x84
    68fa:	2b00      	cmp	r3, #0
    68fc:	f340 8189 	ble.w	6c12 <_dtoa_r+0xb2a>
    6900:	461e      	mov	r6, r3
    6902:	461c      	mov	r4, r3
    6904:	930d      	str	r3, [sp, #52]	; 0x34
    6906:	9306      	str	r3, [sp, #24]
    6908:	e6fd      	b.n	6706 <_dtoa_r+0x61e>
    690a:	2301      	movs	r3, #1
    690c:	9309      	str	r3, [sp, #36]	; 0x24
    690e:	e7f3      	b.n	68f8 <_dtoa_r+0x810>
    6910:	9408      	str	r4, [sp, #32]
    6912:	9a0a      	ldr	r2, [sp, #40]	; 0x28
    6914:	9908      	ldr	r1, [sp, #32]
    6916:	4648      	mov	r0, r9
    6918:	f7ff f942 	bl	5ba0 <__pow5mult>
    691c:	4604      	mov	r4, r0
    691e:	e611      	b.n	6544 <_dtoa_r+0x45c>
    6920:	9b06      	ldr	r3, [sp, #24]
    6922:	2b00      	cmp	r3, #0
    6924:	f73f acfc 	bgt.w	6320 <_dtoa_r+0x238>
    6928:	f040 82da 	bne.w	6ee0 <_dtoa_r+0xdf8>
    692c:	2200      	movs	r2, #0
    692e:	4b20      	ldr	r3, [pc, #128]	; (69b0 <_dtoa_r+0x8c8>)
    6930:	e9dd 0102 	ldrd	r0, r1, [sp, #8]
    6934:	f7fd fc68 	bl	4208 <__aeabi_dmul>
    6938:	4652      	mov	r2, sl
    693a:	465b      	mov	r3, fp
    693c:	f7fd feea 	bl	4714 <__aeabi_dcmpge>
    6940:	f8dd 8018 	ldr.w	r8, [sp, #24]
    6944:	4646      	mov	r6, r8
    6946:	2800      	cmp	r0, #0
    6948:	f000 80f2 	beq.w	6b30 <_dtoa_r+0xa48>
    694c:	9b21      	ldr	r3, [sp, #132]	; 0x84
    694e:	9d07      	ldr	r5, [sp, #28]
    6950:	43db      	mvns	r3, r3
    6952:	9304      	str	r3, [sp, #16]
    6954:	4641      	mov	r1, r8
    6956:	4648      	mov	r0, r9
    6958:	f7fe ffe8 	bl	592c <_Bfree>
    695c:	2e00      	cmp	r6, #0
    695e:	f43f ad8e 	beq.w	647e <_dtoa_r+0x396>
    6962:	e68d      	b.n	6680 <_dtoa_r+0x598>
    6964:	9a10      	ldr	r2, [sp, #64]	; 0x40
    6966:	2a00      	cmp	r2, #0
    6968:	f000 8241 	beq.w	6dee <_dtoa_r+0xd06>
    696c:	f203 4333 	addw	r3, r3, #1075	; 0x433
    6970:	9f0a      	ldr	r7, [sp, #40]	; 0x28
    6972:	9d05      	ldr	r5, [sp, #20]
    6974:	e5ab      	b.n	64ce <_dtoa_r+0x3e6>
    6976:	201c      	movs	r0, #28
    6978:	9b05      	ldr	r3, [sp, #20]
    697a:	4403      	add	r3, r0
    697c:	9305      	str	r3, [sp, #20]
    697e:	9b02      	ldr	r3, [sp, #8]
    6980:	4403      	add	r3, r0
    6982:	4405      	add	r5, r0
    6984:	9302      	str	r3, [sp, #8]
    6986:	e60e      	b.n	65a6 <_dtoa_r+0x4be>
    6988:	9b20      	ldr	r3, [sp, #128]	; 0x80
    698a:	2b01      	cmp	r3, #1
    698c:	f340 8282 	ble.w	6e94 <_dtoa_r+0xdac>
    6990:	9f0b      	ldr	r7, [sp, #44]	; 0x2c
    6992:	2001      	movs	r0, #1
    6994:	e5f3      	b.n	657e <_dtoa_r+0x496>
    6996:	bf00      	nop
    6998:	000090d8 	.word	0x000090d8
    699c:	000091b0 	.word	0x000091b0
    69a0:	3ff00000 	.word	0x3ff00000
    69a4:	401c0000 	.word	0x401c0000
    69a8:	3fe00000 	.word	0x3fe00000
    69ac:	40240000 	.word	0x40240000
    69b0:	40140000 	.word	0x40140000
    69b4:	4631      	mov	r1, r6
    69b6:	2300      	movs	r3, #0
    69b8:	220a      	movs	r2, #10
    69ba:	4648      	mov	r0, r9
    69bc:	f7fe ffc0 	bl	5940 <__multadd>
    69c0:	9b0d      	ldr	r3, [sp, #52]	; 0x34
    69c2:	2b00      	cmp	r3, #0
    69c4:	4606      	mov	r6, r0
    69c6:	f340 8297 	ble.w	6ef8 <_dtoa_r+0xe10>
    69ca:	9306      	str	r3, [sp, #24]
    69cc:	2d00      	cmp	r5, #0
    69ce:	dd05      	ble.n	69dc <_dtoa_r+0x8f4>
    69d0:	4631      	mov	r1, r6
    69d2:	462a      	mov	r2, r5
    69d4:	4648      	mov	r0, r9
    69d6:	f7ff f933 	bl	5c40 <__lshift>
    69da:	4606      	mov	r6, r0
    69dc:	2f00      	cmp	r7, #0
    69de:	f040 817c 	bne.w	6cda <_dtoa_r+0xbf2>
    69e2:	9605      	str	r6, [sp, #20]
    69e4:	9b06      	ldr	r3, [sp, #24]
    69e6:	9a07      	ldr	r2, [sp, #28]
    69e8:	f8dd b014 	ldr.w	fp, [sp, #20]
    69ec:	3b01      	subs	r3, #1
    69ee:	18d3      	adds	r3, r2, r3
    69f0:	9308      	str	r3, [sp, #32]
    69f2:	f00a 0301 	and.w	r3, sl, #1
    69f6:	9309      	str	r3, [sp, #36]	; 0x24
    69f8:	4617      	mov	r7, r2
    69fa:	46c2      	mov	sl, r8
    69fc:	4651      	mov	r1, sl
    69fe:	4620      	mov	r0, r4
    6a00:	f7ff fadc 	bl	5fbc <quorem>
    6a04:	4631      	mov	r1, r6
    6a06:	4605      	mov	r5, r0
    6a08:	4620      	mov	r0, r4
    6a0a:	f7ff f971 	bl	5cf0 <__mcmp>
    6a0e:	465a      	mov	r2, fp
    6a10:	9002      	str	r0, [sp, #8]
    6a12:	4651      	mov	r1, sl
    6a14:	4648      	mov	r0, r9
    6a16:	f7ff f98b 	bl	5d30 <__mdiff>
    6a1a:	68c2      	ldr	r2, [r0, #12]
    6a1c:	4680      	mov	r8, r0
    6a1e:	f105 0330 	add.w	r3, r5, #48	; 0x30
    6a22:	2a00      	cmp	r2, #0
    6a24:	d149      	bne.n	6aba <_dtoa_r+0x9d2>
    6a26:	4601      	mov	r1, r0
    6a28:	4620      	mov	r0, r4
    6a2a:	9306      	str	r3, [sp, #24]
    6a2c:	f7ff f960 	bl	5cf0 <__mcmp>
    6a30:	4641      	mov	r1, r8
    6a32:	9005      	str	r0, [sp, #20]
    6a34:	4648      	mov	r0, r9
    6a36:	f7fe ff79 	bl	592c <_Bfree>
    6a3a:	9a05      	ldr	r2, [sp, #20]
    6a3c:	9b06      	ldr	r3, [sp, #24]
    6a3e:	b92a      	cbnz	r2, 6a4c <_dtoa_r+0x964>
    6a40:	9920      	ldr	r1, [sp, #128]	; 0x80
    6a42:	b919      	cbnz	r1, 6a4c <_dtoa_r+0x964>
    6a44:	9909      	ldr	r1, [sp, #36]	; 0x24
    6a46:	2900      	cmp	r1, #0
    6a48:	f000 8236 	beq.w	6eb8 <_dtoa_r+0xdd0>
    6a4c:	9902      	ldr	r1, [sp, #8]
    6a4e:	2900      	cmp	r1, #0
    6a50:	f2c0 80e4 	blt.w	6c1c <_dtoa_r+0xb34>
    6a54:	d105      	bne.n	6a62 <_dtoa_r+0x97a>
    6a56:	9920      	ldr	r1, [sp, #128]	; 0x80
    6a58:	b919      	cbnz	r1, 6a62 <_dtoa_r+0x97a>
    6a5a:	9909      	ldr	r1, [sp, #36]	; 0x24
    6a5c:	2900      	cmp	r1, #0
    6a5e:	f000 80dd 	beq.w	6c1c <_dtoa_r+0xb34>
    6a62:	2a00      	cmp	r2, #0
    6a64:	f300 814d 	bgt.w	6d02 <_dtoa_r+0xc1a>
    6a68:	9a08      	ldr	r2, [sp, #32]
    6a6a:	703b      	strb	r3, [r7, #0]
    6a6c:	f107 0801 	add.w	r8, r7, #1
    6a70:	4297      	cmp	r7, r2
    6a72:	4645      	mov	r5, r8
    6a74:	f000 8154 	beq.w	6d20 <_dtoa_r+0xc38>
    6a78:	4621      	mov	r1, r4
    6a7a:	2300      	movs	r3, #0
    6a7c:	220a      	movs	r2, #10
    6a7e:	4648      	mov	r0, r9
    6a80:	f7fe ff5e 	bl	5940 <__multadd>
    6a84:	455e      	cmp	r6, fp
    6a86:	4604      	mov	r4, r0
    6a88:	4631      	mov	r1, r6
    6a8a:	f04f 0300 	mov.w	r3, #0
    6a8e:	f04f 020a 	mov.w	r2, #10
    6a92:	4648      	mov	r0, r9
    6a94:	d00b      	beq.n	6aae <_dtoa_r+0x9c6>
    6a96:	f7fe ff53 	bl	5940 <__multadd>
    6a9a:	4659      	mov	r1, fp
    6a9c:	4606      	mov	r6, r0
    6a9e:	2300      	movs	r3, #0
    6aa0:	220a      	movs	r2, #10
    6aa2:	4648      	mov	r0, r9
    6aa4:	f7fe ff4c 	bl	5940 <__multadd>
    6aa8:	4647      	mov	r7, r8
    6aaa:	4683      	mov	fp, r0
    6aac:	e7a6      	b.n	69fc <_dtoa_r+0x914>
    6aae:	f7fe ff47 	bl	5940 <__multadd>
    6ab2:	4647      	mov	r7, r8
    6ab4:	4606      	mov	r6, r0
    6ab6:	4683      	mov	fp, r0
    6ab8:	e7a0      	b.n	69fc <_dtoa_r+0x914>
    6aba:	4601      	mov	r1, r0
    6abc:	4648      	mov	r0, r9
    6abe:	9305      	str	r3, [sp, #20]
    6ac0:	f7fe ff34 	bl	592c <_Bfree>
    6ac4:	2201      	movs	r2, #1
    6ac6:	9b05      	ldr	r3, [sp, #20]
    6ac8:	e7c0      	b.n	6a4c <_dtoa_r+0x964>
    6aca:	4641      	mov	r1, r8
    6acc:	4620      	mov	r0, r4
    6ace:	f7ff f90f 	bl	5cf0 <__mcmp>
    6ad2:	2800      	cmp	r0, #0
    6ad4:	f6bf ad7d 	bge.w	65d2 <_dtoa_r+0x4ea>
    6ad8:	4621      	mov	r1, r4
    6ada:	9c04      	ldr	r4, [sp, #16]
    6adc:	2300      	movs	r3, #0
    6ade:	3c01      	subs	r4, #1
    6ae0:	220a      	movs	r2, #10
    6ae2:	4648      	mov	r0, r9
    6ae4:	9404      	str	r4, [sp, #16]
    6ae6:	f7fe ff2b 	bl	5940 <__multadd>
    6aea:	9b09      	ldr	r3, [sp, #36]	; 0x24
    6aec:	4604      	mov	r4, r0
    6aee:	2b00      	cmp	r3, #0
    6af0:	f47f af60 	bne.w	69b4 <_dtoa_r+0x8cc>
    6af4:	9b0d      	ldr	r3, [sp, #52]	; 0x34
    6af6:	2b00      	cmp	r3, #0
    6af8:	f340 81f6 	ble.w	6ee8 <_dtoa_r+0xe00>
    6afc:	9306      	str	r3, [sp, #24]
    6afe:	e570      	b.n	65e2 <_dtoa_r+0x4fa>
    6b00:	9c08      	ldr	r4, [sp, #32]
    6b02:	e51f      	b.n	6544 <_dtoa_r+0x45c>
    6b04:	9b20      	ldr	r3, [sp, #128]	; 0x80
    6b06:	2b02      	cmp	r3, #2
    6b08:	f77f ad67 	ble.w	65da <_dtoa_r+0x4f2>
    6b0c:	9b06      	ldr	r3, [sp, #24]
    6b0e:	2b00      	cmp	r3, #0
    6b10:	f040 8179 	bne.w	6e06 <_dtoa_r+0xd1e>
    6b14:	4641      	mov	r1, r8
    6b16:	2205      	movs	r2, #5
    6b18:	4648      	mov	r0, r9
    6b1a:	f7fe ff11 	bl	5940 <__multadd>
    6b1e:	4601      	mov	r1, r0
    6b20:	4680      	mov	r8, r0
    6b22:	4620      	mov	r0, r4
    6b24:	f7ff f8e4 	bl	5cf0 <__mcmp>
    6b28:	2800      	cmp	r0, #0
    6b2a:	9408      	str	r4, [sp, #32]
    6b2c:	f77f af0e 	ble.w	694c <_dtoa_r+0x864>
    6b30:	9a04      	ldr	r2, [sp, #16]
    6b32:	9907      	ldr	r1, [sp, #28]
    6b34:	2331      	movs	r3, #49	; 0x31
    6b36:	3201      	adds	r2, #1
    6b38:	9204      	str	r2, [sp, #16]
    6b3a:	700b      	strb	r3, [r1, #0]
    6b3c:	1c4d      	adds	r5, r1, #1
    6b3e:	e709      	b.n	6954 <_dtoa_r+0x86c>
    6b40:	9a04      	ldr	r2, [sp, #16]
    6b42:	3201      	adds	r2, #1
    6b44:	9204      	str	r2, [sp, #16]
    6b46:	9a07      	ldr	r2, [sp, #28]
    6b48:	2331      	movs	r3, #49	; 0x31
    6b4a:	7013      	strb	r3, [r2, #0]
    6b4c:	e588      	b.n	6660 <_dtoa_r+0x578>
    6b4e:	2301      	movs	r3, #1
    6b50:	9309      	str	r3, [sp, #36]	; 0x24
    6b52:	e5cd      	b.n	66f0 <_dtoa_r+0x608>
    6b54:	f8dd 9014 	ldr.w	r9, [sp, #20]
    6b58:	e491      	b.n	647e <_dtoa_r+0x396>
    6b5a:	f1ba 0f00 	cmp.w	sl, #0
    6b5e:	f47f ad04 	bne.w	656a <_dtoa_r+0x482>
    6b62:	f3cb 0313 	ubfx	r3, fp, #0, #20
    6b66:	2b00      	cmp	r3, #0
    6b68:	f040 813f 	bne.w	6dea <_dtoa_r+0xd02>
    6b6c:	f02b 4700 	bic.w	r7, fp, #2147483648	; 0x80000000
    6b70:	0d3f      	lsrs	r7, r7, #20
    6b72:	053f      	lsls	r7, r7, #20
    6b74:	b137      	cbz	r7, 6b84 <_dtoa_r+0xa9c>
    6b76:	9b05      	ldr	r3, [sp, #20]
    6b78:	3301      	adds	r3, #1
    6b7a:	9305      	str	r3, [sp, #20]
    6b7c:	9b02      	ldr	r3, [sp, #8]
    6b7e:	3301      	adds	r3, #1
    6b80:	9302      	str	r3, [sp, #8]
    6b82:	2701      	movs	r7, #1
    6b84:	9b0b      	ldr	r3, [sp, #44]	; 0x2c
    6b86:	2001      	movs	r0, #1
    6b88:	2b00      	cmp	r3, #0
    6b8a:	f43f acf8 	beq.w	657e <_dtoa_r+0x496>
    6b8e:	e4ed      	b.n	656c <_dtoa_r+0x484>
    6b90:	4640      	mov	r0, r8
    6b92:	f7fd fad3 	bl	413c <__aeabi_i2d>
    6b96:	4632      	mov	r2, r6
    6b98:	463b      	mov	r3, r7
    6b9a:	f7fd fb35 	bl	4208 <__aeabi_dmul>
    6b9e:	2200      	movs	r2, #0
    6ba0:	4bbf      	ldr	r3, [pc, #764]	; (6ea0 <_dtoa_r+0xdb8>)
    6ba2:	f7fd f97f 	bl	3ea4 <__adddf3>
    6ba6:	4604      	mov	r4, r0
    6ba8:	f1a1 7550 	sub.w	r5, r1, #54525952	; 0x3400000
    6bac:	4630      	mov	r0, r6
    6bae:	4639      	mov	r1, r7
    6bb0:	2200      	movs	r2, #0
    6bb2:	4bbc      	ldr	r3, [pc, #752]	; (6ea4 <_dtoa_r+0xdbc>)
    6bb4:	f7fd f974 	bl	3ea0 <__aeabi_dsub>
    6bb8:	4622      	mov	r2, r4
    6bba:	462b      	mov	r3, r5
    6bbc:	4606      	mov	r6, r0
    6bbe:	460f      	mov	r7, r1
    6bc0:	f7fd fdb2 	bl	4728 <__aeabi_dcmpgt>
    6bc4:	4680      	mov	r8, r0
    6bc6:	2800      	cmp	r0, #0
    6bc8:	f040 8105 	bne.w	6dd6 <_dtoa_r+0xcee>
    6bcc:	4622      	mov	r2, r4
    6bce:	f105 4300 	add.w	r3, r5, #2147483648	; 0x80000000
    6bd2:	4630      	mov	r0, r6
    6bd4:	4639      	mov	r1, r7
    6bd6:	f7fd fd89 	bl	46ec <__aeabi_dcmplt>
    6bda:	b108      	cbz	r0, 6be0 <_dtoa_r+0xaf8>
    6bdc:	4646      	mov	r6, r8
    6bde:	e6b5      	b.n	694c <_dtoa_r+0x864>
    6be0:	e9dd ab0e 	ldrd	sl, fp, [sp, #56]	; 0x38
    6be4:	f7ff bb89 	b.w	62fa <_dtoa_r+0x212>
    6be8:	9807      	ldr	r0, [sp, #28]
    6bea:	f7ff baae 	b.w	614a <_dtoa_r+0x62>
    6bee:	9b0a      	ldr	r3, [sp, #40]	; 0x28
    6bf0:	9a0b      	ldr	r2, [sp, #44]	; 0x2c
    6bf2:	970a      	str	r7, [sp, #40]	; 0x28
    6bf4:	1afb      	subs	r3, r7, r3
    6bf6:	441a      	add	r2, r3
    6bf8:	920b      	str	r2, [sp, #44]	; 0x2c
    6bfa:	2700      	movs	r7, #0
    6bfc:	e461      	b.n	64c2 <_dtoa_r+0x3da>
    6bfe:	e9dd ab0e 	ldrd	sl, fp, [sp, #56]	; 0x38
    6c02:	f04f 0802 	mov.w	r8, #2
    6c06:	e5bb      	b.n	6780 <_dtoa_r+0x698>
    6c08:	461c      	mov	r4, r3
    6c0a:	2100      	movs	r1, #0
    6c0c:	f8c9 1044 	str.w	r1, [r9, #68]	; 0x44
    6c10:	e58a      	b.n	6728 <_dtoa_r+0x640>
    6c12:	2401      	movs	r4, #1
    6c14:	9421      	str	r4, [sp, #132]	; 0x84
    6c16:	940d      	str	r4, [sp, #52]	; 0x34
    6c18:	9406      	str	r4, [sp, #24]
    6c1a:	e7f6      	b.n	6c0a <_dtoa_r+0xb22>
    6c1c:	2a00      	cmp	r2, #0
    6c1e:	46d0      	mov	r8, sl
    6c20:	f8cd b014 	str.w	fp, [sp, #20]
    6c24:	469a      	mov	sl, r3
    6c26:	dd11      	ble.n	6c4c <_dtoa_r+0xb64>
    6c28:	4621      	mov	r1, r4
    6c2a:	2201      	movs	r2, #1
    6c2c:	4648      	mov	r0, r9
    6c2e:	f7ff f807 	bl	5c40 <__lshift>
    6c32:	4641      	mov	r1, r8
    6c34:	4604      	mov	r4, r0
    6c36:	f7ff f85b 	bl	5cf0 <__mcmp>
    6c3a:	2800      	cmp	r0, #0
    6c3c:	f340 8149 	ble.w	6ed2 <_dtoa_r+0xdea>
    6c40:	f1ba 0f39 	cmp.w	sl, #57	; 0x39
    6c44:	f000 8106 	beq.w	6e54 <_dtoa_r+0xd6c>
    6c48:	f105 0a31 	add.w	sl, r5, #49	; 0x31
    6c4c:	46b3      	mov	fp, r6
    6c4e:	f887 a000 	strb.w	sl, [r7]
    6c52:	1c7d      	adds	r5, r7, #1
    6c54:	9e05      	ldr	r6, [sp, #20]
    6c56:	9408      	str	r4, [sp, #32]
    6c58:	e502      	b.n	6660 <_dtoa_r+0x578>
    6c5a:	d104      	bne.n	6c66 <_dtoa_r+0xb7e>
    6c5c:	f01a 0f01 	tst.w	sl, #1
    6c60:	d001      	beq.n	6c66 <_dtoa_r+0xb7e>
    6c62:	e4ed      	b.n	6640 <_dtoa_r+0x558>
    6c64:	4615      	mov	r5, r2
    6c66:	f815 3c01 	ldrb.w	r3, [r5, #-1]
    6c6a:	2b30      	cmp	r3, #48	; 0x30
    6c6c:	f105 32ff 	add.w	r2, r5, #4294967295	; 0xffffffff
    6c70:	d0f8      	beq.n	6c64 <_dtoa_r+0xb7c>
    6c72:	e4f5      	b.n	6660 <_dtoa_r+0x578>
    6c74:	9b04      	ldr	r3, [sp, #16]
    6c76:	425c      	negs	r4, r3
    6c78:	2c00      	cmp	r4, #0
    6c7a:	f000 80bf 	beq.w	6dfc <_dtoa_r+0xd14>
    6c7e:	4b8a      	ldr	r3, [pc, #552]	; (6ea8 <_dtoa_r+0xdc0>)
    6c80:	f004 020f 	and.w	r2, r4, #15
    6c84:	eb03 03c2 	add.w	r3, r3, r2, lsl #3
    6c88:	e9d3 2300 	ldrd	r2, r3, [r3]
    6c8c:	e9dd 010e 	ldrd	r0, r1, [sp, #56]	; 0x38
    6c90:	f7fd faba 	bl	4208 <__aeabi_dmul>
    6c94:	1124      	asrs	r4, r4, #4
    6c96:	4606      	mov	r6, r0
    6c98:	460f      	mov	r7, r1
    6c9a:	f000 812a 	beq.w	6ef2 <_dtoa_r+0xe0a>
    6c9e:	4d83      	ldr	r5, [pc, #524]	; (6eac <_dtoa_r+0xdc4>)
    6ca0:	f04f 0802 	mov.w	r8, #2
    6ca4:	07e2      	lsls	r2, r4, #31
    6ca6:	d509      	bpl.n	6cbc <_dtoa_r+0xbd4>
    6ca8:	4630      	mov	r0, r6
    6caa:	4639      	mov	r1, r7
    6cac:	e9d5 2300 	ldrd	r2, r3, [r5]
    6cb0:	f7fd faaa 	bl	4208 <__aeabi_dmul>
    6cb4:	f108 0801 	add.w	r8, r8, #1
    6cb8:	4606      	mov	r6, r0
    6cba:	460f      	mov	r7, r1
    6cbc:	1064      	asrs	r4, r4, #1
    6cbe:	f105 0508 	add.w	r5, r5, #8
    6cc2:	d1ef      	bne.n	6ca4 <_dtoa_r+0xbbc>
    6cc4:	e576      	b.n	67b4 <_dtoa_r+0x6cc>
    6cc6:	9907      	ldr	r1, [sp, #28]
    6cc8:	2230      	movs	r2, #48	; 0x30
    6cca:	700a      	strb	r2, [r1, #0]
    6ccc:	9a04      	ldr	r2, [sp, #16]
    6cce:	f815 4c01 	ldrb.w	r4, [r5, #-1]
    6cd2:	3201      	adds	r2, #1
    6cd4:	9204      	str	r2, [sp, #16]
    6cd6:	f7ff bbd0 	b.w	647a <_dtoa_r+0x392>
    6cda:	6871      	ldr	r1, [r6, #4]
    6cdc:	4648      	mov	r0, r9
    6cde:	f7fe fdff 	bl	58e0 <_Balloc>
    6ce2:	6933      	ldr	r3, [r6, #16]
    6ce4:	1c9a      	adds	r2, r3, #2
    6ce6:	4605      	mov	r5, r0
    6ce8:	0092      	lsls	r2, r2, #2
    6cea:	f106 010c 	add.w	r1, r6, #12
    6cee:	300c      	adds	r0, #12
    6cf0:	f7fc fcce 	bl	3690 <memcpy>
    6cf4:	4629      	mov	r1, r5
    6cf6:	2201      	movs	r2, #1
    6cf8:	4648      	mov	r0, r9
    6cfa:	f7fe ffa1 	bl	5c40 <__lshift>
    6cfe:	9005      	str	r0, [sp, #20]
    6d00:	e670      	b.n	69e4 <_dtoa_r+0x8fc>
    6d02:	2b39      	cmp	r3, #57	; 0x39
    6d04:	f8cd b014 	str.w	fp, [sp, #20]
    6d08:	46d0      	mov	r8, sl
    6d0a:	f000 80a3 	beq.w	6e54 <_dtoa_r+0xd6c>
    6d0e:	f103 0a01 	add.w	sl, r3, #1
    6d12:	46b3      	mov	fp, r6
    6d14:	f887 a000 	strb.w	sl, [r7]
    6d18:	1c7d      	adds	r5, r7, #1
    6d1a:	9e05      	ldr	r6, [sp, #20]
    6d1c:	9408      	str	r4, [sp, #32]
    6d1e:	e49f      	b.n	6660 <_dtoa_r+0x578>
    6d20:	465a      	mov	r2, fp
    6d22:	46d0      	mov	r8, sl
    6d24:	46b3      	mov	fp, r6
    6d26:	469a      	mov	sl, r3
    6d28:	4616      	mov	r6, r2
    6d2a:	e47d      	b.n	6628 <_dtoa_r+0x540>
    6d2c:	495e      	ldr	r1, [pc, #376]	; (6ea8 <_dtoa_r+0xdc0>)
    6d2e:	f108 3aff 	add.w	sl, r8, #4294967295	; 0xffffffff
    6d32:	eb01 01ca 	add.w	r1, r1, sl, lsl #3
    6d36:	4622      	mov	r2, r4
    6d38:	462b      	mov	r3, r5
    6d3a:	e9d1 0100 	ldrd	r0, r1, [r1]
    6d3e:	f7fd fa63 	bl	4208 <__aeabi_dmul>
    6d42:	e9cd 0112 	strd	r0, r1, [sp, #72]	; 0x48
    6d46:	4639      	mov	r1, r7
    6d48:	4630      	mov	r0, r6
    6d4a:	f001 fcd1 	bl	86f0 <__aeabi_d2iz>
    6d4e:	4604      	mov	r4, r0
    6d50:	f7fd f9f4 	bl	413c <__aeabi_i2d>
    6d54:	4602      	mov	r2, r0
    6d56:	460b      	mov	r3, r1
    6d58:	4630      	mov	r0, r6
    6d5a:	4639      	mov	r1, r7
    6d5c:	f7fd f8a0 	bl	3ea0 <__aeabi_dsub>
    6d60:	9a07      	ldr	r2, [sp, #28]
    6d62:	3430      	adds	r4, #48	; 0x30
    6d64:	f1b8 0f01 	cmp.w	r8, #1
    6d68:	4606      	mov	r6, r0
    6d6a:	460f      	mov	r7, r1
    6d6c:	7014      	strb	r4, [r2, #0]
    6d6e:	f102 0501 	add.w	r5, r2, #1
    6d72:	d01e      	beq.n	6db2 <_dtoa_r+0xcca>
    6d74:	9b07      	ldr	r3, [sp, #28]
    6d76:	eb03 0b08 	add.w	fp, r3, r8
    6d7a:	46a8      	mov	r8, r5
    6d7c:	2200      	movs	r2, #0
    6d7e:	4b4c      	ldr	r3, [pc, #304]	; (6eb0 <_dtoa_r+0xdc8>)
    6d80:	4630      	mov	r0, r6
    6d82:	4639      	mov	r1, r7
    6d84:	f7fd fa40 	bl	4208 <__aeabi_dmul>
    6d88:	460f      	mov	r7, r1
    6d8a:	4606      	mov	r6, r0
    6d8c:	f001 fcb0 	bl	86f0 <__aeabi_d2iz>
    6d90:	4604      	mov	r4, r0
    6d92:	f7fd f9d3 	bl	413c <__aeabi_i2d>
    6d96:	3430      	adds	r4, #48	; 0x30
    6d98:	4602      	mov	r2, r0
    6d9a:	460b      	mov	r3, r1
    6d9c:	4630      	mov	r0, r6
    6d9e:	4639      	mov	r1, r7
    6da0:	f7fd f87e 	bl	3ea0 <__aeabi_dsub>
    6da4:	f808 4b01 	strb.w	r4, [r8], #1
    6da8:	45c3      	cmp	fp, r8
    6daa:	4606      	mov	r6, r0
    6dac:	460f      	mov	r7, r1
    6dae:	d1e5      	bne.n	6d7c <_dtoa_r+0xc94>
    6db0:	4455      	add	r5, sl
    6db2:	2200      	movs	r2, #0
    6db4:	4b3f      	ldr	r3, [pc, #252]	; (6eb4 <_dtoa_r+0xdcc>)
    6db6:	e9dd 0112 	ldrd	r0, r1, [sp, #72]	; 0x48
    6dba:	f7fd f873 	bl	3ea4 <__adddf3>
    6dbe:	4632      	mov	r2, r6
    6dc0:	463b      	mov	r3, r7
    6dc2:	f7fd fc93 	bl	46ec <__aeabi_dcmplt>
    6dc6:	2800      	cmp	r0, #0
    6dc8:	d04c      	beq.n	6e64 <_dtoa_r+0xd7c>
    6dca:	9b11      	ldr	r3, [sp, #68]	; 0x44
    6dcc:	9304      	str	r3, [sp, #16]
    6dce:	f815 4c01 	ldrb.w	r4, [r5, #-1]
    6dd2:	f7ff bb46 	b.w	6462 <_dtoa_r+0x37a>
    6dd6:	f04f 0800 	mov.w	r8, #0
    6dda:	4646      	mov	r6, r8
    6ddc:	e6a8      	b.n	6b30 <_dtoa_r+0xa48>
    6dde:	9b05      	ldr	r3, [sp, #20]
    6de0:	9a06      	ldr	r2, [sp, #24]
    6de2:	1a9d      	subs	r5, r3, r2
    6de4:	2300      	movs	r3, #0
    6de6:	f7ff bb72 	b.w	64ce <_dtoa_r+0x3e6>
    6dea:	2700      	movs	r7, #0
    6dec:	e6ca      	b.n	6b84 <_dtoa_r+0xa9c>
    6dee:	9b14      	ldr	r3, [sp, #80]	; 0x50
    6df0:	9f0a      	ldr	r7, [sp, #40]	; 0x28
    6df2:	9d05      	ldr	r5, [sp, #20]
    6df4:	f1c3 0336 	rsb	r3, r3, #54	; 0x36
    6df8:	f7ff bb69 	b.w	64ce <_dtoa_r+0x3e6>
    6dfc:	e9dd 670e 	ldrd	r6, r7, [sp, #56]	; 0x38
    6e00:	f04f 0802 	mov.w	r8, #2
    6e04:	e4d6      	b.n	67b4 <_dtoa_r+0x6cc>
    6e06:	9408      	str	r4, [sp, #32]
    6e08:	e5a0      	b.n	694c <_dtoa_r+0x864>
    6e0a:	9b06      	ldr	r3, [sp, #24]
    6e0c:	2b00      	cmp	r3, #0
    6e0e:	f43f aebf 	beq.w	6b90 <_dtoa_r+0xaa8>
    6e12:	9b0d      	ldr	r3, [sp, #52]	; 0x34
    6e14:	2b00      	cmp	r3, #0
    6e16:	f77f aee3 	ble.w	6be0 <_dtoa_r+0xaf8>
    6e1a:	2200      	movs	r2, #0
    6e1c:	4b24      	ldr	r3, [pc, #144]	; (6eb0 <_dtoa_r+0xdc8>)
    6e1e:	4630      	mov	r0, r6
    6e20:	4639      	mov	r1, r7
    6e22:	f7fd f9f1 	bl	4208 <__aeabi_dmul>
    6e26:	4606      	mov	r6, r0
    6e28:	460f      	mov	r7, r1
    6e2a:	f108 0001 	add.w	r0, r8, #1
    6e2e:	f7fd f985 	bl	413c <__aeabi_i2d>
    6e32:	4632      	mov	r2, r6
    6e34:	463b      	mov	r3, r7
    6e36:	f7fd f9e7 	bl	4208 <__aeabi_dmul>
    6e3a:	2200      	movs	r2, #0
    6e3c:	4b18      	ldr	r3, [pc, #96]	; (6ea0 <_dtoa_r+0xdb8>)
    6e3e:	f7fd f831 	bl	3ea4 <__adddf3>
    6e42:	9a04      	ldr	r2, [sp, #16]
    6e44:	f8dd 8034 	ldr.w	r8, [sp, #52]	; 0x34
    6e48:	3a01      	subs	r2, #1
    6e4a:	4604      	mov	r4, r0
    6e4c:	f1a1 7550 	sub.w	r5, r1, #54525952	; 0x3400000
    6e50:	9211      	str	r2, [sp, #68]	; 0x44
    6e52:	e4d0      	b.n	67f6 <_dtoa_r+0x70e>
    6e54:	2239      	movs	r2, #57	; 0x39
    6e56:	46b3      	mov	fp, r6
    6e58:	9408      	str	r4, [sp, #32]
    6e5a:	9e05      	ldr	r6, [sp, #20]
    6e5c:	703a      	strb	r2, [r7, #0]
    6e5e:	1c7d      	adds	r5, r7, #1
    6e60:	f7ff bbf0 	b.w	6644 <_dtoa_r+0x55c>
    6e64:	e9dd 2312 	ldrd	r2, r3, [sp, #72]	; 0x48
    6e68:	2000      	movs	r0, #0
    6e6a:	4912      	ldr	r1, [pc, #72]	; (6eb4 <_dtoa_r+0xdcc>)
    6e6c:	f7fd f818 	bl	3ea0 <__aeabi_dsub>
    6e70:	4632      	mov	r2, r6
    6e72:	463b      	mov	r3, r7
    6e74:	f7fd fc58 	bl	4728 <__aeabi_dcmpgt>
    6e78:	b908      	cbnz	r0, 6e7e <_dtoa_r+0xd96>
    6e7a:	e6b1      	b.n	6be0 <_dtoa_r+0xaf8>
    6e7c:	4615      	mov	r5, r2
    6e7e:	f815 3c01 	ldrb.w	r3, [r5, #-1]
    6e82:	2b30      	cmp	r3, #48	; 0x30
    6e84:	f105 32ff 	add.w	r2, r5, #4294967295	; 0xffffffff
    6e88:	d0f8      	beq.n	6e7c <_dtoa_r+0xd94>
    6e8a:	e530      	b.n	68ee <_dtoa_r+0x806>
    6e8c:	9b11      	ldr	r3, [sp, #68]	; 0x44
    6e8e:	9304      	str	r3, [sp, #16]
    6e90:	f7ff bae7 	b.w	6462 <_dtoa_r+0x37a>
    6e94:	f1ba 0f00 	cmp.w	sl, #0
    6e98:	f47f ad7a 	bne.w	6990 <_dtoa_r+0x8a8>
    6e9c:	e661      	b.n	6b62 <_dtoa_r+0xa7a>
    6e9e:	bf00      	nop
    6ea0:	401c0000 	.word	0x401c0000
    6ea4:	40140000 	.word	0x40140000
    6ea8:	000090d8 	.word	0x000090d8
    6eac:	000091b0 	.word	0x000091b0
    6eb0:	40240000 	.word	0x40240000
    6eb4:	3fe00000 	.word	0x3fe00000
    6eb8:	2b39      	cmp	r3, #57	; 0x39
    6eba:	f8cd b014 	str.w	fp, [sp, #20]
    6ebe:	46d0      	mov	r8, sl
    6ec0:	f8dd b008 	ldr.w	fp, [sp, #8]
    6ec4:	469a      	mov	sl, r3
    6ec6:	d0c5      	beq.n	6e54 <_dtoa_r+0xd6c>
    6ec8:	f1bb 0f00 	cmp.w	fp, #0
    6ecc:	f73f aebc 	bgt.w	6c48 <_dtoa_r+0xb60>
    6ed0:	e6bc      	b.n	6c4c <_dtoa_r+0xb64>
    6ed2:	f47f aebb 	bne.w	6c4c <_dtoa_r+0xb64>
    6ed6:	f01a 0f01 	tst.w	sl, #1
    6eda:	f43f aeb7 	beq.w	6c4c <_dtoa_r+0xb64>
    6ede:	e6af      	b.n	6c40 <_dtoa_r+0xb58>
    6ee0:	f04f 0800 	mov.w	r8, #0
    6ee4:	4646      	mov	r6, r8
    6ee6:	e531      	b.n	694c <_dtoa_r+0x864>
    6ee8:	9b20      	ldr	r3, [sp, #128]	; 0x80
    6eea:	2b02      	cmp	r3, #2
    6eec:	dc21      	bgt.n	6f32 <_dtoa_r+0xe4a>
    6eee:	9b0d      	ldr	r3, [sp, #52]	; 0x34
    6ef0:	e604      	b.n	6afc <_dtoa_r+0xa14>
    6ef2:	f04f 0802 	mov.w	r8, #2
    6ef6:	e45d      	b.n	67b4 <_dtoa_r+0x6cc>
    6ef8:	9b20      	ldr	r3, [sp, #128]	; 0x80
    6efa:	2b02      	cmp	r3, #2
    6efc:	dc19      	bgt.n	6f32 <_dtoa_r+0xe4a>
    6efe:	9b0d      	ldr	r3, [sp, #52]	; 0x34
    6f00:	e563      	b.n	69ca <_dtoa_r+0x8e2>
    6f02:	2400      	movs	r4, #0
    6f04:	f8c9 4044 	str.w	r4, [r9, #68]	; 0x44
    6f08:	4621      	mov	r1, r4
    6f0a:	4648      	mov	r0, r9
    6f0c:	f7fe fce8 	bl	58e0 <_Balloc>
    6f10:	f04f 33ff 	mov.w	r3, #4294967295	; 0xffffffff
    6f14:	9306      	str	r3, [sp, #24]
    6f16:	930d      	str	r3, [sp, #52]	; 0x34
    6f18:	2301      	movs	r3, #1
    6f1a:	9007      	str	r0, [sp, #28]
    6f1c:	9421      	str	r4, [sp, #132]	; 0x84
    6f1e:	f8c9 0040 	str.w	r0, [r9, #64]	; 0x40
    6f22:	9309      	str	r3, [sp, #36]	; 0x24
    6f24:	f7ff b9e9 	b.w	62fa <_dtoa_r+0x212>
    6f28:	f43f ab3d 	beq.w	65a6 <_dtoa_r+0x4be>
    6f2c:	f1c0 003c 	rsb	r0, r0, #60	; 0x3c
    6f30:	e522      	b.n	6978 <_dtoa_r+0x890>
    6f32:	9b0d      	ldr	r3, [sp, #52]	; 0x34
    6f34:	9306      	str	r3, [sp, #24]
    6f36:	e5e9      	b.n	6b0c <_dtoa_r+0xa24>
    6f38:	2501      	movs	r5, #1
    6f3a:	f7ff b9a8 	b.w	628e <_dtoa_r+0x1a6>
    6f3e:	bf00      	nop

00006f40 <_svfprintf_r>:
    6f40:	e92d 4ff0 	stmdb	sp!, {r4, r5, r6, r7, r8, r9, sl, fp, lr}
    6f44:	b0c1      	sub	sp, #260	; 0x104
    6f46:	460c      	mov	r4, r1
    6f48:	9109      	str	r1, [sp, #36]	; 0x24
    6f4a:	4615      	mov	r5, r2
    6f4c:	930e      	str	r3, [sp, #56]	; 0x38
    6f4e:	900a      	str	r0, [sp, #40]	; 0x28
    6f50:	f7fe fc66 	bl	5820 <_localeconv_r>
    6f54:	6803      	ldr	r3, [r0, #0]
    6f56:	9317      	str	r3, [sp, #92]	; 0x5c
    6f58:	4618      	mov	r0, r3
    6f5a:	f7fe f9f1 	bl	5340 <strlen>
    6f5e:	89a3      	ldrh	r3, [r4, #12]
    6f60:	9016      	str	r0, [sp, #88]	; 0x58
    6f62:	061e      	lsls	r6, r3, #24
    6f64:	d503      	bpl.n	6f6e <_svfprintf_r+0x2e>
    6f66:	6923      	ldr	r3, [r4, #16]
    6f68:	2b00      	cmp	r3, #0
    6f6a:	f001 811a 	beq.w	81a2 <_svfprintf_r+0x1262>
    6f6e:	2300      	movs	r3, #0
    6f70:	461a      	mov	r2, r3
    6f72:	9312      	str	r3, [sp, #72]	; 0x48
    6f74:	9325      	str	r3, [sp, #148]	; 0x94
    6f76:	9324      	str	r3, [sp, #144]	; 0x90
    6f78:	9319      	str	r3, [sp, #100]	; 0x64
    6f7a:	930b      	str	r3, [sp, #44]	; 0x2c
    6f7c:	f8df a464 	ldr.w	sl, [pc, #1124]	; 73e4 <_svfprintf_r+0x4a4>
    6f80:	9214      	str	r2, [sp, #80]	; 0x50
    6f82:	ab30      	add	r3, sp, #192	; 0xc0
    6f84:	9323      	str	r3, [sp, #140]	; 0x8c
    6f86:	4699      	mov	r9, r3
    6f88:	9215      	str	r2, [sp, #84]	; 0x54
    6f8a:	46a8      	mov	r8, r5
    6f8c:	f898 3000 	ldrb.w	r3, [r8]
    6f90:	4644      	mov	r4, r8
    6f92:	b1eb      	cbz	r3, 6fd0 <_svfprintf_r+0x90>
    6f94:	2b25      	cmp	r3, #37	; 0x25
    6f96:	d102      	bne.n	6f9e <_svfprintf_r+0x5e>
    6f98:	e01a      	b.n	6fd0 <_svfprintf_r+0x90>
    6f9a:	2b25      	cmp	r3, #37	; 0x25
    6f9c:	d003      	beq.n	6fa6 <_svfprintf_r+0x66>
    6f9e:	f814 3f01 	ldrb.w	r3, [r4, #1]!
    6fa2:	2b00      	cmp	r3, #0
    6fa4:	d1f9      	bne.n	6f9a <_svfprintf_r+0x5a>
    6fa6:	ebc8 0504 	rsb	r5, r8, r4
    6faa:	b18d      	cbz	r5, 6fd0 <_svfprintf_r+0x90>
    6fac:	9b24      	ldr	r3, [sp, #144]	; 0x90
    6fae:	9a25      	ldr	r2, [sp, #148]	; 0x94
    6fb0:	f8c9 8000 	str.w	r8, [r9]
    6fb4:	3301      	adds	r3, #1
    6fb6:	442a      	add	r2, r5
    6fb8:	2b07      	cmp	r3, #7
    6fba:	f8c9 5004 	str.w	r5, [r9, #4]
    6fbe:	9225      	str	r2, [sp, #148]	; 0x94
    6fc0:	9324      	str	r3, [sp, #144]	; 0x90
    6fc2:	f300 80a6 	bgt.w	7112 <_svfprintf_r+0x1d2>
    6fc6:	f109 0908 	add.w	r9, r9, #8
    6fca:	9b0b      	ldr	r3, [sp, #44]	; 0x2c
    6fcc:	442b      	add	r3, r5
    6fce:	930b      	str	r3, [sp, #44]	; 0x2c
    6fd0:	7823      	ldrb	r3, [r4, #0]
    6fd2:	2b00      	cmp	r3, #0
    6fd4:	f000 80a6 	beq.w	7124 <_svfprintf_r+0x1e4>
    6fd8:	2300      	movs	r3, #0
    6fda:	461a      	mov	r2, r3
    6fdc:	f88d 306f 	strb.w	r3, [sp, #111]	; 0x6f
    6fe0:	4619      	mov	r1, r3
    6fe2:	930c      	str	r3, [sp, #48]	; 0x30
    6fe4:	9307      	str	r3, [sp, #28]
    6fe6:	f04f 3bff 	mov.w	fp, #4294967295	; 0xffffffff
    6fea:	7863      	ldrb	r3, [r4, #1]
    6fec:	f104 0801 	add.w	r8, r4, #1
    6ff0:	465d      	mov	r5, fp
    6ff2:	f108 0801 	add.w	r8, r8, #1
    6ff6:	f1a3 0020 	sub.w	r0, r3, #32
    6ffa:	2858      	cmp	r0, #88	; 0x58
    6ffc:	f200 8425 	bhi.w	784a <_svfprintf_r+0x90a>
    7000:	e8df f010 	tbh	[pc, r0, lsl #1]
    7004:	04230388 	.word	0x04230388
    7008:	03900423 	.word	0x03900423
    700c:	04230423 	.word	0x04230423
    7010:	04230423 	.word	0x04230423
    7014:	04230423 	.word	0x04230423
    7018:	03a50397 	.word	0x03a50397
    701c:	005d0423 	.word	0x005d0423
    7020:	042300e2 	.word	0x042300e2
    7024:	010500fe 	.word	0x010500fe
    7028:	01050105 	.word	0x01050105
    702c:	01050105 	.word	0x01050105
    7030:	01050105 	.word	0x01050105
    7034:	01050105 	.word	0x01050105
    7038:	04230423 	.word	0x04230423
    703c:	04230423 	.word	0x04230423
    7040:	04230423 	.word	0x04230423
    7044:	04230423 	.word	0x04230423
    7048:	04230423 	.word	0x04230423
    704c:	02810115 	.word	0x02810115
    7050:	02810423 	.word	0x02810423
    7054:	04230423 	.word	0x04230423
    7058:	04230423 	.word	0x04230423
    705c:	042302c6 	.word	0x042302c6
    7060:	02cd0423 	.word	0x02cd0423
    7064:	04230423 	.word	0x04230423
    7068:	04230423 	.word	0x04230423
    706c:	02f70423 	.word	0x02f70423
    7070:	04230423 	.word	0x04230423
    7074:	04230325 	.word	0x04230325
    7078:	04230423 	.word	0x04230423
    707c:	04230423 	.word	0x04230423
    7080:	04230423 	.word	0x04230423
    7084:	04230423 	.word	0x04230423
    7088:	03660423 	.word	0x03660423
    708c:	02810379 	.word	0x02810379
    7090:	02810281 	.word	0x02810281
    7094:	03790381 	.word	0x03790381
    7098:	04230423 	.word	0x04230423
    709c:	042303d1 	.word	0x042303d1
    70a0:	00a303db 	.word	0x00a303db
    70a4:	03ee0064 	.word	0x03ee0064
    70a8:	03f50423 	.word	0x03f50423
    70ac:	03aa0423 	.word	0x03aa0423
    70b0:	04230423 	.word	0x04230423
    70b4:	03bc      	.short	0x03bc
    70b6:	980c      	ldr	r0, [sp, #48]	; 0x30
    70b8:	930e      	str	r3, [sp, #56]	; 0x38
    70ba:	4240      	negs	r0, r0
    70bc:	900c      	str	r0, [sp, #48]	; 0x30
    70be:	9b07      	ldr	r3, [sp, #28]
    70c0:	f043 0304 	orr.w	r3, r3, #4
    70c4:	9307      	str	r3, [sp, #28]
    70c6:	f898 3000 	ldrb.w	r3, [r8]
    70ca:	e792      	b.n	6ff2 <_svfprintf_r+0xb2>
    70cc:	980e      	ldr	r0, [sp, #56]	; 0x38
    70ce:	46ab      	mov	fp, r5
    70d0:	2100      	movs	r1, #0
    70d2:	6804      	ldr	r4, [r0, #0]
    70d4:	f88d 106f 	strb.w	r1, [sp, #111]	; 0x6f
    70d8:	1d07      	adds	r7, r0, #4
    70da:	9807      	ldr	r0, [sp, #28]
    70dc:	2330      	movs	r3, #48	; 0x30
    70de:	2278      	movs	r2, #120	; 0x78
    70e0:	458b      	cmp	fp, r1
    70e2:	f88d 3070 	strb.w	r3, [sp, #112]	; 0x70
    70e6:	f04f 0500 	mov.w	r5, #0
    70ea:	f88d 2071 	strb.w	r2, [sp, #113]	; 0x71
    70ee:	f040 0302 	orr.w	r3, r0, #2
    70f2:	f2c0 83c7 	blt.w	7884 <_svfprintf_r+0x944>
    70f6:	f020 0380 	bic.w	r3, r0, #128	; 0x80
    70fa:	f043 0302 	orr.w	r3, r3, #2
    70fe:	9307      	str	r3, [sp, #28]
    7100:	ea54 0305 	orrs.w	r3, r4, r5
    7104:	970e      	str	r7, [sp, #56]	; 0x38
    7106:	f000 8393 	beq.w	7830 <_svfprintf_r+0x8f0>
    710a:	460f      	mov	r7, r1
    710c:	9211      	str	r2, [sp, #68]	; 0x44
    710e:	48b3      	ldr	r0, [pc, #716]	; (73dc <_svfprintf_r+0x49c>)
    7110:	e2ce      	b.n	76b0 <_svfprintf_r+0x770>
    7112:	aa23      	add	r2, sp, #140	; 0x8c
    7114:	9909      	ldr	r1, [sp, #36]	; 0x24
    7116:	980a      	ldr	r0, [sp, #40]	; 0x28
    7118:	f001 fa6a 	bl	85f0 <__ssprint_r>
    711c:	b948      	cbnz	r0, 7132 <_svfprintf_r+0x1f2>
    711e:	f10d 09c0 	add.w	r9, sp, #192	; 0xc0
    7122:	e752      	b.n	6fca <_svfprintf_r+0x8a>
    7124:	9b25      	ldr	r3, [sp, #148]	; 0x94
    7126:	b123      	cbz	r3, 7132 <_svfprintf_r+0x1f2>
    7128:	980a      	ldr	r0, [sp, #40]	; 0x28
    712a:	9909      	ldr	r1, [sp, #36]	; 0x24
    712c:	aa23      	add	r2, sp, #140	; 0x8c
    712e:	f001 fa5f 	bl	85f0 <__ssprint_r>
    7132:	9b09      	ldr	r3, [sp, #36]	; 0x24
    7134:	899b      	ldrh	r3, [r3, #12]
    7136:	f013 0f40 	tst.w	r3, #64	; 0x40
    713a:	9b0b      	ldr	r3, [sp, #44]	; 0x2c
    713c:	bf18      	it	ne
    713e:	f04f 33ff 	movne.w	r3, #4294967295	; 0xffffffff
    7142:	4618      	mov	r0, r3
    7144:	b041      	add	sp, #260	; 0x104
    7146:	e8bd 8ff0 	ldmia.w	sp!, {r4, r5, r6, r7, r8, r9, sl, fp, pc}
    714a:	9311      	str	r3, [sp, #68]	; 0x44
    714c:	46ab      	mov	fp, r5
    714e:	2a00      	cmp	r2, #0
    7150:	f041 8233 	bne.w	85ba <_svfprintf_r+0x167a>
    7154:	9a07      	ldr	r2, [sp, #28]
    7156:	f012 0320 	ands.w	r3, r2, #32
    715a:	f000 822e 	beq.w	75ba <_svfprintf_r+0x67a>
    715e:	9f0e      	ldr	r7, [sp, #56]	; 0x38
    7160:	3707      	adds	r7, #7
    7162:	f027 0307 	bic.w	r3, r7, #7
    7166:	2700      	movs	r7, #0
    7168:	f103 0108 	add.w	r1, r3, #8
    716c:	45bb      	cmp	fp, r7
    716e:	910e      	str	r1, [sp, #56]	; 0x38
    7170:	e9d3 4500 	ldrd	r4, r5, [r3]
    7174:	f88d 706f 	strb.w	r7, [sp, #111]	; 0x6f
    7178:	f2c0 8779 	blt.w	806e <_svfprintf_r+0x112e>
    717c:	f022 0380 	bic.w	r3, r2, #128	; 0x80
    7180:	9307      	str	r3, [sp, #28]
    7182:	ea54 0305 	orrs.w	r3, r4, r5
    7186:	f000 8375 	beq.w	7874 <_svfprintf_r+0x934>
    718a:	ae30      	add	r6, sp, #192	; 0xc0
    718c:	08e2      	lsrs	r2, r4, #3
    718e:	ea42 7245 	orr.w	r2, r2, r5, lsl #29
    7192:	08e9      	lsrs	r1, r5, #3
    7194:	f004 0307 	and.w	r3, r4, #7
    7198:	460d      	mov	r5, r1
    719a:	4614      	mov	r4, r2
    719c:	3330      	adds	r3, #48	; 0x30
    719e:	ea54 0205 	orrs.w	r2, r4, r5
    71a2:	f806 3d01 	strb.w	r3, [r6, #-1]!
    71a6:	d1f1      	bne.n	718c <_svfprintf_r+0x24c>
    71a8:	9a07      	ldr	r2, [sp, #28]
    71aa:	07d1      	lsls	r1, r2, #31
    71ac:	f140 8084 	bpl.w	72b8 <_svfprintf_r+0x378>
    71b0:	2b30      	cmp	r3, #48	; 0x30
    71b2:	f000 8081 	beq.w	72b8 <_svfprintf_r+0x378>
    71b6:	2230      	movs	r2, #48	; 0x30
    71b8:	1e73      	subs	r3, r6, #1
    71ba:	f806 2c01 	strb.w	r2, [r6, #-1]
    71be:	aa30      	add	r2, sp, #192	; 0xc0
    71c0:	1ad2      	subs	r2, r2, r3
    71c2:	920d      	str	r2, [sp, #52]	; 0x34
    71c4:	461e      	mov	r6, r3
    71c6:	e07a      	b.n	72be <_svfprintf_r+0x37e>
    71c8:	f898 3000 	ldrb.w	r3, [r8]
    71cc:	2b2a      	cmp	r3, #42	; 0x2a
    71ce:	f108 0401 	add.w	r4, r8, #1
    71d2:	f001 81b9 	beq.w	8548 <_svfprintf_r+0x1608>
    71d6:	f1a3 0030 	sub.w	r0, r3, #48	; 0x30
    71da:	2809      	cmp	r0, #9
    71dc:	bf98      	it	ls
    71de:	2500      	movls	r5, #0
    71e0:	f201 816c 	bhi.w	84bc <_svfprintf_r+0x157c>
    71e4:	f814 3b01 	ldrb.w	r3, [r4], #1
    71e8:	eb05 0585 	add.w	r5, r5, r5, lsl #2
    71ec:	eb00 0545 	add.w	r5, r0, r5, lsl #1
    71f0:	f1a3 0030 	sub.w	r0, r3, #48	; 0x30
    71f4:	2809      	cmp	r0, #9
    71f6:	d9f5      	bls.n	71e4 <_svfprintf_r+0x2a4>
    71f8:	ea45 75e5 	orr.w	r5, r5, r5, asr #31
    71fc:	46a0      	mov	r8, r4
    71fe:	e6fa      	b.n	6ff6 <_svfprintf_r+0xb6>
    7200:	9b07      	ldr	r3, [sp, #28]
    7202:	f043 0380 	orr.w	r3, r3, #128	; 0x80
    7206:	9307      	str	r3, [sp, #28]
    7208:	f898 3000 	ldrb.w	r3, [r8]
    720c:	e6f1      	b.n	6ff2 <_svfprintf_r+0xb2>
    720e:	f1a3 0030 	sub.w	r0, r3, #48	; 0x30
    7212:	2300      	movs	r3, #0
    7214:	461c      	mov	r4, r3
    7216:	f818 3b01 	ldrb.w	r3, [r8], #1
    721a:	eb04 0484 	add.w	r4, r4, r4, lsl #2
    721e:	eb00 0444 	add.w	r4, r0, r4, lsl #1
    7222:	f1a3 0030 	sub.w	r0, r3, #48	; 0x30
    7226:	2809      	cmp	r0, #9
    7228:	d9f5      	bls.n	7216 <_svfprintf_r+0x2d6>
    722a:	940c      	str	r4, [sp, #48]	; 0x30
    722c:	e6e3      	b.n	6ff6 <_svfprintf_r+0xb6>
    722e:	9311      	str	r3, [sp, #68]	; 0x44
    7230:	46ab      	mov	fp, r5
    7232:	2a00      	cmp	r2, #0
    7234:	f041 81ab 	bne.w	858e <_svfprintf_r+0x164e>
    7238:	9b07      	ldr	r3, [sp, #28]
    723a:	f043 0310 	orr.w	r3, r3, #16
    723e:	9307      	str	r3, [sp, #28]
    7240:	9b07      	ldr	r3, [sp, #28]
    7242:	0698      	lsls	r0, r3, #26
    7244:	f140 8530 	bpl.w	7ca8 <_svfprintf_r+0xd68>
    7248:	9f0e      	ldr	r7, [sp, #56]	; 0x38
    724a:	3707      	adds	r7, #7
    724c:	f027 0707 	bic.w	r7, r7, #7
    7250:	e9d7 2300 	ldrd	r2, r3, [r7]
    7254:	f107 0108 	add.w	r1, r7, #8
    7258:	910e      	str	r1, [sp, #56]	; 0x38
    725a:	4614      	mov	r4, r2
    725c:	461d      	mov	r5, r3
    725e:	2a00      	cmp	r2, #0
    7260:	f173 0300 	sbcs.w	r3, r3, #0
    7264:	f2c0 855b 	blt.w	7d1e <_svfprintf_r+0xdde>
    7268:	f1bb 0f00 	cmp.w	fp, #0
    726c:	f89d 706f 	ldrb.w	r7, [sp, #111]	; 0x6f
    7270:	f2c0 8538 	blt.w	7ce4 <_svfprintf_r+0xda4>
    7274:	9b07      	ldr	r3, [sp, #28]
    7276:	f023 0380 	bic.w	r3, r3, #128	; 0x80
    727a:	9307      	str	r3, [sp, #28]
    727c:	ea54 0305 	orrs.w	r3, r4, r5
    7280:	f000 81db 	beq.w	763a <_svfprintf_r+0x6fa>
    7284:	2d00      	cmp	r5, #0
    7286:	bf08      	it	eq
    7288:	2c0a      	cmpeq	r4, #10
    728a:	f0c0 81db 	bcc.w	7644 <_svfprintf_r+0x704>
    728e:	ae30      	add	r6, sp, #192	; 0xc0
    7290:	4620      	mov	r0, r4
    7292:	4629      	mov	r1, r5
    7294:	220a      	movs	r2, #10
    7296:	2300      	movs	r3, #0
    7298:	f001 fa52 	bl	8740 <__aeabi_uldivmod>
    729c:	3230      	adds	r2, #48	; 0x30
    729e:	f806 2d01 	strb.w	r2, [r6, #-1]!
    72a2:	4620      	mov	r0, r4
    72a4:	4629      	mov	r1, r5
    72a6:	2300      	movs	r3, #0
    72a8:	220a      	movs	r2, #10
    72aa:	f001 fa49 	bl	8740 <__aeabi_uldivmod>
    72ae:	4604      	mov	r4, r0
    72b0:	460d      	mov	r5, r1
    72b2:	ea54 0305 	orrs.w	r3, r4, r5
    72b6:	d1eb      	bne.n	7290 <_svfprintf_r+0x350>
    72b8:	ab30      	add	r3, sp, #192	; 0xc0
    72ba:	1b9b      	subs	r3, r3, r6
    72bc:	930d      	str	r3, [sp, #52]	; 0x34
    72be:	9b0d      	ldr	r3, [sp, #52]	; 0x34
    72c0:	455b      	cmp	r3, fp
    72c2:	bfb8      	it	lt
    72c4:	465b      	movlt	r3, fp
    72c6:	9308      	str	r3, [sp, #32]
    72c8:	2300      	movs	r3, #0
    72ca:	9313      	str	r3, [sp, #76]	; 0x4c
    72cc:	b117      	cbz	r7, 72d4 <_svfprintf_r+0x394>
    72ce:	9b08      	ldr	r3, [sp, #32]
    72d0:	3301      	adds	r3, #1
    72d2:	9308      	str	r3, [sp, #32]
    72d4:	9b07      	ldr	r3, [sp, #28]
    72d6:	f013 0302 	ands.w	r3, r3, #2
    72da:	930f      	str	r3, [sp, #60]	; 0x3c
    72dc:	d002      	beq.n	72e4 <_svfprintf_r+0x3a4>
    72de:	9b08      	ldr	r3, [sp, #32]
    72e0:	3302      	adds	r3, #2
    72e2:	9308      	str	r3, [sp, #32]
    72e4:	9b07      	ldr	r3, [sp, #28]
    72e6:	f013 0384 	ands.w	r3, r3, #132	; 0x84
    72ea:	9310      	str	r3, [sp, #64]	; 0x40
    72ec:	f040 82d7 	bne.w	789e <_svfprintf_r+0x95e>
    72f0:	9b0c      	ldr	r3, [sp, #48]	; 0x30
    72f2:	9a08      	ldr	r2, [sp, #32]
    72f4:	1a9d      	subs	r5, r3, r2
    72f6:	2d00      	cmp	r5, #0
    72f8:	f340 82d1 	ble.w	789e <_svfprintf_r+0x95e>
    72fc:	2d10      	cmp	r5, #16
    72fe:	9925      	ldr	r1, [sp, #148]	; 0x94
    7300:	9a24      	ldr	r2, [sp, #144]	; 0x90
    7302:	4f37      	ldr	r7, [pc, #220]	; (73e0 <_svfprintf_r+0x4a0>)
    7304:	dd27      	ble.n	7356 <_svfprintf_r+0x416>
    7306:	9618      	str	r6, [sp, #96]	; 0x60
    7308:	4648      	mov	r0, r9
    730a:	2410      	movs	r4, #16
    730c:	46b9      	mov	r9, r7
    730e:	9e09      	ldr	r6, [sp, #36]	; 0x24
    7310:	462f      	mov	r7, r5
    7312:	9d0a      	ldr	r5, [sp, #40]	; 0x28
    7314:	e004      	b.n	7320 <_svfprintf_r+0x3e0>
    7316:	3f10      	subs	r7, #16
    7318:	2f10      	cmp	r7, #16
    731a:	f100 0008 	add.w	r0, r0, #8
    731e:	dd16      	ble.n	734e <_svfprintf_r+0x40e>
    7320:	3201      	adds	r2, #1
    7322:	4b2f      	ldr	r3, [pc, #188]	; (73e0 <_svfprintf_r+0x4a0>)
    7324:	9224      	str	r2, [sp, #144]	; 0x90
    7326:	3110      	adds	r1, #16
    7328:	2a07      	cmp	r2, #7
    732a:	9125      	str	r1, [sp, #148]	; 0x94
    732c:	e880 0018 	stmia.w	r0, {r3, r4}
    7330:	ddf1      	ble.n	7316 <_svfprintf_r+0x3d6>
    7332:	aa23      	add	r2, sp, #140	; 0x8c
    7334:	4631      	mov	r1, r6
    7336:	4628      	mov	r0, r5
    7338:	f001 f95a 	bl	85f0 <__ssprint_r>
    733c:	2800      	cmp	r0, #0
    733e:	f47f aef8 	bne.w	7132 <_svfprintf_r+0x1f2>
    7342:	3f10      	subs	r7, #16
    7344:	2f10      	cmp	r7, #16
    7346:	9925      	ldr	r1, [sp, #148]	; 0x94
    7348:	9a24      	ldr	r2, [sp, #144]	; 0x90
    734a:	a830      	add	r0, sp, #192	; 0xc0
    734c:	dce8      	bgt.n	7320 <_svfprintf_r+0x3e0>
    734e:	9e18      	ldr	r6, [sp, #96]	; 0x60
    7350:	463d      	mov	r5, r7
    7352:	464f      	mov	r7, r9
    7354:	4681      	mov	r9, r0
    7356:	3201      	adds	r2, #1
    7358:	186c      	adds	r4, r5, r1
    735a:	2a07      	cmp	r2, #7
    735c:	9425      	str	r4, [sp, #148]	; 0x94
    735e:	9224      	str	r2, [sp, #144]	; 0x90
    7360:	f8c9 7000 	str.w	r7, [r9]
    7364:	f8c9 5004 	str.w	r5, [r9, #4]
    7368:	f300 8428 	bgt.w	7bbc <_svfprintf_r+0xc7c>
    736c:	f89d 706f 	ldrb.w	r7, [sp, #111]	; 0x6f
    7370:	f109 0908 	add.w	r9, r9, #8
    7374:	b177      	cbz	r7, 7394 <_svfprintf_r+0x454>
    7376:	9b24      	ldr	r3, [sp, #144]	; 0x90
    7378:	3301      	adds	r3, #1
    737a:	3401      	adds	r4, #1
    737c:	f10d 016f 	add.w	r1, sp, #111	; 0x6f
    7380:	2201      	movs	r2, #1
    7382:	2b07      	cmp	r3, #7
    7384:	9425      	str	r4, [sp, #148]	; 0x94
    7386:	9324      	str	r3, [sp, #144]	; 0x90
    7388:	e889 0006 	stmia.w	r9, {r1, r2}
    738c:	f300 83a0 	bgt.w	7ad0 <_svfprintf_r+0xb90>
    7390:	f109 0908 	add.w	r9, r9, #8
    7394:	9b0f      	ldr	r3, [sp, #60]	; 0x3c
    7396:	b16b      	cbz	r3, 73b4 <_svfprintf_r+0x474>
    7398:	9b24      	ldr	r3, [sp, #144]	; 0x90
    739a:	3301      	adds	r3, #1
    739c:	3402      	adds	r4, #2
    739e:	a91c      	add	r1, sp, #112	; 0x70
    73a0:	2202      	movs	r2, #2
    73a2:	2b07      	cmp	r3, #7
    73a4:	9425      	str	r4, [sp, #148]	; 0x94
    73a6:	9324      	str	r3, [sp, #144]	; 0x90
    73a8:	e889 0006 	stmia.w	r9, {r1, r2}
    73ac:	f300 839c 	bgt.w	7ae8 <_svfprintf_r+0xba8>
    73b0:	f109 0908 	add.w	r9, r9, #8
    73b4:	9b10      	ldr	r3, [sp, #64]	; 0x40
    73b6:	2b80      	cmp	r3, #128	; 0x80
    73b8:	f000 82d5 	beq.w	7966 <_svfprintf_r+0xa26>
    73bc:	9b0d      	ldr	r3, [sp, #52]	; 0x34
    73be:	ebc3 070b 	rsb	r7, r3, fp
    73c2:	2f00      	cmp	r7, #0
    73c4:	dd39      	ble.n	743a <_svfprintf_r+0x4fa>
    73c6:	4a07      	ldr	r2, [pc, #28]	; (73e4 <_svfprintf_r+0x4a4>)
    73c8:	9b24      	ldr	r3, [sp, #144]	; 0x90
    73ca:	920f      	str	r2, [sp, #60]	; 0x3c
    73cc:	2f10      	cmp	r7, #16
    73ce:	dd28      	ble.n	7422 <_svfprintf_r+0x4e2>
    73d0:	4622      	mov	r2, r4
    73d2:	f04f 0b10 	mov.w	fp, #16
    73d6:	9d0a      	ldr	r5, [sp, #40]	; 0x28
    73d8:	9c09      	ldr	r4, [sp, #36]	; 0x24
    73da:	e00a      	b.n	73f2 <_svfprintf_r+0x4b2>
    73dc:	00009220 	.word	0x00009220
    73e0:	0000923c 	.word	0x0000923c
    73e4:	000091ec 	.word	0x000091ec
    73e8:	3f10      	subs	r7, #16
    73ea:	2f10      	cmp	r7, #16
    73ec:	f109 0908 	add.w	r9, r9, #8
    73f0:	dd16      	ble.n	7420 <_svfprintf_r+0x4e0>
    73f2:	3301      	adds	r3, #1
    73f4:	3210      	adds	r2, #16
    73f6:	2b07      	cmp	r3, #7
    73f8:	9225      	str	r2, [sp, #148]	; 0x94
    73fa:	9324      	str	r3, [sp, #144]	; 0x90
    73fc:	e889 0c00 	stmia.w	r9, {sl, fp}
    7400:	ddf2      	ble.n	73e8 <_svfprintf_r+0x4a8>
    7402:	aa23      	add	r2, sp, #140	; 0x8c
    7404:	4621      	mov	r1, r4
    7406:	4628      	mov	r0, r5
    7408:	f001 f8f2 	bl	85f0 <__ssprint_r>
    740c:	2800      	cmp	r0, #0
    740e:	f47f ae90 	bne.w	7132 <_svfprintf_r+0x1f2>
    7412:	3f10      	subs	r7, #16
    7414:	2f10      	cmp	r7, #16
    7416:	9a25      	ldr	r2, [sp, #148]	; 0x94
    7418:	9b24      	ldr	r3, [sp, #144]	; 0x90
    741a:	f10d 09c0 	add.w	r9, sp, #192	; 0xc0
    741e:	dce8      	bgt.n	73f2 <_svfprintf_r+0x4b2>
    7420:	4614      	mov	r4, r2
    7422:	3301      	adds	r3, #1
    7424:	9a0f      	ldr	r2, [sp, #60]	; 0x3c
    7426:	9324      	str	r3, [sp, #144]	; 0x90
    7428:	443c      	add	r4, r7
    742a:	2b07      	cmp	r3, #7
    742c:	9425      	str	r4, [sp, #148]	; 0x94
    742e:	e889 0084 	stmia.w	r9, {r2, r7}
    7432:	f300 8341 	bgt.w	7ab8 <_svfprintf_r+0xb78>
    7436:	f109 0908 	add.w	r9, r9, #8
    743a:	9b07      	ldr	r3, [sp, #28]
    743c:	05da      	lsls	r2, r3, #23
    743e:	f100 8230 	bmi.w	78a2 <_svfprintf_r+0x962>
    7442:	9b24      	ldr	r3, [sp, #144]	; 0x90
    7444:	990d      	ldr	r1, [sp, #52]	; 0x34
    7446:	f8c9 6000 	str.w	r6, [r9]
    744a:	3301      	adds	r3, #1
    744c:	440c      	add	r4, r1
    744e:	2b07      	cmp	r3, #7
    7450:	9425      	str	r4, [sp, #148]	; 0x94
    7452:	f8c9 1004 	str.w	r1, [r9, #4]
    7456:	9324      	str	r3, [sp, #144]	; 0x90
    7458:	f300 8318 	bgt.w	7a8c <_svfprintf_r+0xb4c>
    745c:	f109 0908 	add.w	r9, r9, #8
    7460:	9b07      	ldr	r3, [sp, #28]
    7462:	0759      	lsls	r1, r3, #29
    7464:	d53f      	bpl.n	74e6 <_svfprintf_r+0x5a6>
    7466:	9b0c      	ldr	r3, [sp, #48]	; 0x30
    7468:	9a08      	ldr	r2, [sp, #32]
    746a:	1a9d      	subs	r5, r3, r2
    746c:	2d00      	cmp	r5, #0
    746e:	dd3a      	ble.n	74e6 <_svfprintf_r+0x5a6>
    7470:	2d10      	cmp	r5, #16
    7472:	9b24      	ldr	r3, [sp, #144]	; 0x90
    7474:	4fbc      	ldr	r7, [pc, #752]	; (7768 <_svfprintf_r+0x828>)
    7476:	dd23      	ble.n	74c0 <_svfprintf_r+0x580>
    7478:	4622      	mov	r2, r4
    747a:	2610      	movs	r6, #16
    747c:	f8dd b028 	ldr.w	fp, [sp, #40]	; 0x28
    7480:	9c09      	ldr	r4, [sp, #36]	; 0x24
    7482:	e004      	b.n	748e <_svfprintf_r+0x54e>
    7484:	3d10      	subs	r5, #16
    7486:	2d10      	cmp	r5, #16
    7488:	f109 0908 	add.w	r9, r9, #8
    748c:	dd17      	ble.n	74be <_svfprintf_r+0x57e>
    748e:	3301      	adds	r3, #1
    7490:	49b5      	ldr	r1, [pc, #724]	; (7768 <_svfprintf_r+0x828>)
    7492:	9324      	str	r3, [sp, #144]	; 0x90
    7494:	3210      	adds	r2, #16
    7496:	2b07      	cmp	r3, #7
    7498:	9225      	str	r2, [sp, #148]	; 0x94
    749a:	e889 0042 	stmia.w	r9, {r1, r6}
    749e:	ddf1      	ble.n	7484 <_svfprintf_r+0x544>
    74a0:	aa23      	add	r2, sp, #140	; 0x8c
    74a2:	4621      	mov	r1, r4
    74a4:	4658      	mov	r0, fp
    74a6:	f001 f8a3 	bl	85f0 <__ssprint_r>
    74aa:	2800      	cmp	r0, #0
    74ac:	f47f ae41 	bne.w	7132 <_svfprintf_r+0x1f2>
    74b0:	3d10      	subs	r5, #16
    74b2:	2d10      	cmp	r5, #16
    74b4:	9a25      	ldr	r2, [sp, #148]	; 0x94
    74b6:	9b24      	ldr	r3, [sp, #144]	; 0x90
    74b8:	f10d 09c0 	add.w	r9, sp, #192	; 0xc0
    74bc:	dce7      	bgt.n	748e <_svfprintf_r+0x54e>
    74be:	4614      	mov	r4, r2
    74c0:	3301      	adds	r3, #1
    74c2:	442c      	add	r4, r5
    74c4:	2b07      	cmp	r3, #7
    74c6:	9425      	str	r4, [sp, #148]	; 0x94
    74c8:	9324      	str	r3, [sp, #144]	; 0x90
    74ca:	f8c9 7000 	str.w	r7, [r9]
    74ce:	f8c9 5004 	str.w	r5, [r9, #4]
    74d2:	dd08      	ble.n	74e6 <_svfprintf_r+0x5a6>
    74d4:	aa23      	add	r2, sp, #140	; 0x8c
    74d6:	9909      	ldr	r1, [sp, #36]	; 0x24
    74d8:	980a      	ldr	r0, [sp, #40]	; 0x28
    74da:	f001 f889 	bl	85f0 <__ssprint_r>
    74de:	2800      	cmp	r0, #0
    74e0:	f47f ae27 	bne.w	7132 <_svfprintf_r+0x1f2>
    74e4:	9c25      	ldr	r4, [sp, #148]	; 0x94
    74e6:	9b0b      	ldr	r3, [sp, #44]	; 0x2c
    74e8:	9a0c      	ldr	r2, [sp, #48]	; 0x30
    74ea:	9908      	ldr	r1, [sp, #32]
    74ec:	428a      	cmp	r2, r1
    74ee:	bfac      	ite	ge
    74f0:	189b      	addge	r3, r3, r2
    74f2:	185b      	addlt	r3, r3, r1
    74f4:	930b      	str	r3, [sp, #44]	; 0x2c
    74f6:	2c00      	cmp	r4, #0
    74f8:	f040 82d4 	bne.w	7aa4 <_svfprintf_r+0xb64>
    74fc:	2300      	movs	r3, #0
    74fe:	9324      	str	r3, [sp, #144]	; 0x90
    7500:	f10d 09c0 	add.w	r9, sp, #192	; 0xc0
    7504:	e542      	b.n	6f8c <_svfprintf_r+0x4c>
    7506:	9311      	str	r3, [sp, #68]	; 0x44
    7508:	46ab      	mov	fp, r5
    750a:	2a00      	cmp	r2, #0
    750c:	f041 8051 	bne.w	85b2 <_svfprintf_r+0x1672>
    7510:	9f0e      	ldr	r7, [sp, #56]	; 0x38
    7512:	3707      	adds	r7, #7
    7514:	f027 0307 	bic.w	r3, r7, #7
    7518:	f103 0208 	add.w	r2, r3, #8
    751c:	920e      	str	r2, [sp, #56]	; 0x38
    751e:	681a      	ldr	r2, [r3, #0]
    7520:	9214      	str	r2, [sp, #80]	; 0x50
    7522:	685b      	ldr	r3, [r3, #4]
    7524:	9315      	str	r3, [sp, #84]	; 0x54
    7526:	9b15      	ldr	r3, [sp, #84]	; 0x54
    7528:	9d14      	ldr	r5, [sp, #80]	; 0x50
    752a:	f023 4400 	bic.w	r4, r3, #2147483648	; 0x80000000
    752e:	4628      	mov	r0, r5
    7530:	4621      	mov	r1, r4
    7532:	f04f 32ff 	mov.w	r2, #4294967295	; 0xffffffff
    7536:	4b8d      	ldr	r3, [pc, #564]	; (776c <_svfprintf_r+0x82c>)
    7538:	f7fd f900 	bl	473c <__aeabi_dcmpun>
    753c:	2800      	cmp	r0, #0
    753e:	f040 84c2 	bne.w	7ec6 <_svfprintf_r+0xf86>
    7542:	4628      	mov	r0, r5
    7544:	4621      	mov	r1, r4
    7546:	f04f 32ff 	mov.w	r2, #4294967295	; 0xffffffff
    754a:	4b88      	ldr	r3, [pc, #544]	; (776c <_svfprintf_r+0x82c>)
    754c:	f7fd f8d8 	bl	4700 <__aeabi_dcmple>
    7550:	2800      	cmp	r0, #0
    7552:	f040 84b8 	bne.w	7ec6 <_svfprintf_r+0xf86>
    7556:	9814      	ldr	r0, [sp, #80]	; 0x50
    7558:	9915      	ldr	r1, [sp, #84]	; 0x54
    755a:	2200      	movs	r2, #0
    755c:	2300      	movs	r3, #0
    755e:	f7fd f8c5 	bl	46ec <__aeabi_dcmplt>
    7562:	2800      	cmp	r0, #0
    7564:	f040 874f 	bne.w	8406 <_svfprintf_r+0x14c6>
    7568:	f89d 706f 	ldrb.w	r7, [sp, #111]	; 0x6f
    756c:	4e80      	ldr	r6, [pc, #512]	; (7770 <_svfprintf_r+0x830>)
    756e:	4b81      	ldr	r3, [pc, #516]	; (7774 <_svfprintf_r+0x834>)
    7570:	9907      	ldr	r1, [sp, #28]
    7572:	f021 0180 	bic.w	r1, r1, #128	; 0x80
    7576:	9107      	str	r1, [sp, #28]
    7578:	9911      	ldr	r1, [sp, #68]	; 0x44
    757a:	2203      	movs	r2, #3
    757c:	f04f 0b00 	mov.w	fp, #0
    7580:	9208      	str	r2, [sp, #32]
    7582:	2947      	cmp	r1, #71	; 0x47
    7584:	bfd8      	it	le
    7586:	461e      	movle	r6, r3
    7588:	920d      	str	r2, [sp, #52]	; 0x34
    758a:	f8cd b04c 	str.w	fp, [sp, #76]	; 0x4c
    758e:	e69d      	b.n	72cc <_svfprintf_r+0x38c>
    7590:	9b07      	ldr	r3, [sp, #28]
    7592:	f043 0308 	orr.w	r3, r3, #8
    7596:	9307      	str	r3, [sp, #28]
    7598:	f898 3000 	ldrb.w	r3, [r8]
    759c:	e529      	b.n	6ff2 <_svfprintf_r+0xb2>
    759e:	9311      	str	r3, [sp, #68]	; 0x44
    75a0:	46ab      	mov	fp, r5
    75a2:	2a00      	cmp	r2, #0
    75a4:	f041 8011 	bne.w	85ca <_svfprintf_r+0x168a>
    75a8:	9b07      	ldr	r3, [sp, #28]
    75aa:	f043 0310 	orr.w	r3, r3, #16
    75ae:	9307      	str	r3, [sp, #28]
    75b0:	9a07      	ldr	r2, [sp, #28]
    75b2:	f012 0320 	ands.w	r3, r2, #32
    75b6:	f47f add2 	bne.w	715e <_svfprintf_r+0x21e>
    75ba:	9907      	ldr	r1, [sp, #28]
    75bc:	f011 0210 	ands.w	r2, r1, #16
    75c0:	f000 852c 	beq.w	801c <_svfprintf_r+0x10dc>
    75c4:	980e      	ldr	r0, [sp, #56]	; 0x38
    75c6:	f88d 306f 	strb.w	r3, [sp, #111]	; 0x6f
    75ca:	f1bb 0f00 	cmp.w	fp, #0
    75ce:	6804      	ldr	r4, [r0, #0]
    75d0:	f100 0704 	add.w	r7, r0, #4
    75d4:	f04f 0500 	mov.w	r5, #0
    75d8:	f2c0 8548 	blt.w	806c <_svfprintf_r+0x112c>
    75dc:	460a      	mov	r2, r1
    75de:	f022 0280 	bic.w	r2, r2, #128	; 0x80
    75e2:	9207      	str	r2, [sp, #28]
    75e4:	ea54 0205 	orrs.w	r2, r4, r5
    75e8:	970e      	str	r7, [sp, #56]	; 0x38
    75ea:	f000 8143 	beq.w	7874 <_svfprintf_r+0x934>
    75ee:	461f      	mov	r7, r3
    75f0:	e5cb      	b.n	718a <_svfprintf_r+0x24a>
    75f2:	9311      	str	r3, [sp, #68]	; 0x44
    75f4:	46ab      	mov	fp, r5
    75f6:	2a00      	cmp	r2, #0
    75f8:	f040 87e3 	bne.w	85c2 <_svfprintf_r+0x1682>
    75fc:	9b07      	ldr	r3, [sp, #28]
    75fe:	f043 0310 	orr.w	r3, r3, #16
    7602:	9307      	str	r3, [sp, #28]
    7604:	9a07      	ldr	r2, [sp, #28]
    7606:	f012 0320 	ands.w	r3, r2, #32
    760a:	f000 8332 	beq.w	7c72 <_svfprintf_r+0xd32>
    760e:	9f0e      	ldr	r7, [sp, #56]	; 0x38
    7610:	3707      	adds	r7, #7
    7612:	f027 0307 	bic.w	r3, r7, #7
    7616:	2700      	movs	r7, #0
    7618:	f103 0108 	add.w	r1, r3, #8
    761c:	45bb      	cmp	fp, r7
    761e:	910e      	str	r1, [sp, #56]	; 0x38
    7620:	e9d3 4500 	ldrd	r4, r5, [r3]
    7624:	f88d 706f 	strb.w	r7, [sp, #111]	; 0x6f
    7628:	f2c0 835c 	blt.w	7ce4 <_svfprintf_r+0xda4>
    762c:	f022 0380 	bic.w	r3, r2, #128	; 0x80
    7630:	9307      	str	r3, [sp, #28]
    7632:	ea54 0305 	orrs.w	r3, r4, r5
    7636:	f47f ae25 	bne.w	7284 <_svfprintf_r+0x344>
    763a:	f1bb 0f00 	cmp.w	fp, #0
    763e:	f000 80fe 	beq.w	783e <_svfprintf_r+0x8fe>
    7642:	2400      	movs	r4, #0
    7644:	ae40      	add	r6, sp, #256	; 0x100
    7646:	3430      	adds	r4, #48	; 0x30
    7648:	f806 4d41 	strb.w	r4, [r6, #-65]!
    764c:	e634      	b.n	72b8 <_svfprintf_r+0x378>
    764e:	9311      	str	r3, [sp, #68]	; 0x44
    7650:	46ab      	mov	fp, r5
    7652:	2a00      	cmp	r2, #0
    7654:	f040 8797 	bne.w	8586 <_svfprintf_r+0x1646>
    7658:	9b07      	ldr	r3, [sp, #28]
    765a:	4847      	ldr	r0, [pc, #284]	; (7778 <_svfprintf_r+0x838>)
    765c:	069d      	lsls	r5, r3, #26
    765e:	f140 8097 	bpl.w	7790 <_svfprintf_r+0x850>
    7662:	9f0e      	ldr	r7, [sp, #56]	; 0x38
    7664:	3707      	adds	r7, #7
    7666:	f027 0307 	bic.w	r3, r7, #7
    766a:	e9d3 4500 	ldrd	r4, r5, [r3]
    766e:	f103 0208 	add.w	r2, r3, #8
    7672:	920e      	str	r2, [sp, #56]	; 0x38
    7674:	9a07      	ldr	r2, [sp, #28]
    7676:	f012 0701 	ands.w	r7, r2, #1
    767a:	f000 8241 	beq.w	7b00 <_svfprintf_r+0xbc0>
    767e:	ea54 0305 	orrs.w	r3, r4, r5
    7682:	f000 8505 	beq.w	8090 <_svfprintf_r+0x1150>
    7686:	f89d 2044 	ldrb.w	r2, [sp, #68]	; 0x44
    768a:	f88d 2071 	strb.w	r2, [sp, #113]	; 0x71
    768e:	2700      	movs	r7, #0
    7690:	9a07      	ldr	r2, [sp, #28]
    7692:	f88d 706f 	strb.w	r7, [sp, #111]	; 0x6f
    7696:	2330      	movs	r3, #48	; 0x30
    7698:	45bb      	cmp	fp, r7
    769a:	f88d 3070 	strb.w	r3, [sp, #112]	; 0x70
    769e:	f042 0302 	orr.w	r3, r2, #2
    76a2:	f2c0 86b5 	blt.w	8410 <_svfprintf_r+0x14d0>
    76a6:	f022 0380 	bic.w	r3, r2, #128	; 0x80
    76aa:	f043 0302 	orr.w	r3, r3, #2
    76ae:	9307      	str	r3, [sp, #28]
    76b0:	ae30      	add	r6, sp, #192	; 0xc0
    76b2:	0923      	lsrs	r3, r4, #4
    76b4:	f004 010f 	and.w	r1, r4, #15
    76b8:	ea43 7305 	orr.w	r3, r3, r5, lsl #28
    76bc:	092a      	lsrs	r2, r5, #4
    76be:	461c      	mov	r4, r3
    76c0:	4615      	mov	r5, r2
    76c2:	5c43      	ldrb	r3, [r0, r1]
    76c4:	f806 3d01 	strb.w	r3, [r6, #-1]!
    76c8:	ea54 0305 	orrs.w	r3, r4, r5
    76cc:	d1f1      	bne.n	76b2 <_svfprintf_r+0x772>
    76ce:	e5f3      	b.n	72b8 <_svfprintf_r+0x378>
    76d0:	990e      	ldr	r1, [sp, #56]	; 0x38
    76d2:	9311      	str	r3, [sp, #68]	; 0x44
    76d4:	680a      	ldr	r2, [r1, #0]
    76d6:	f88d 2098 	strb.w	r2, [sp, #152]	; 0x98
    76da:	2300      	movs	r3, #0
    76dc:	460a      	mov	r2, r1
    76de:	461f      	mov	r7, r3
    76e0:	f88d 306f 	strb.w	r3, [sp, #111]	; 0x6f
    76e4:	3204      	adds	r2, #4
    76e6:	2301      	movs	r3, #1
    76e8:	9308      	str	r3, [sp, #32]
    76ea:	46bb      	mov	fp, r7
    76ec:	9713      	str	r7, [sp, #76]	; 0x4c
    76ee:	920e      	str	r2, [sp, #56]	; 0x38
    76f0:	930d      	str	r3, [sp, #52]	; 0x34
    76f2:	ae26      	add	r6, sp, #152	; 0x98
    76f4:	e5ee      	b.n	72d4 <_svfprintf_r+0x394>
    76f6:	9311      	str	r3, [sp, #68]	; 0x44
    76f8:	46ab      	mov	fp, r5
    76fa:	2a00      	cmp	r2, #0
    76fc:	f43f ada0 	beq.w	7240 <_svfprintf_r+0x300>
    7700:	f88d 106f 	strb.w	r1, [sp, #111]	; 0x6f
    7704:	e59c      	b.n	7240 <_svfprintf_r+0x300>
    7706:	9b07      	ldr	r3, [sp, #28]
    7708:	f043 0340 	orr.w	r3, r3, #64	; 0x40
    770c:	9307      	str	r3, [sp, #28]
    770e:	f898 3000 	ldrb.w	r3, [r8]
    7712:	e46e      	b.n	6ff2 <_svfprintf_r+0xb2>
    7714:	f898 3000 	ldrb.w	r3, [r8]
    7718:	2900      	cmp	r1, #0
    771a:	f47f ac6a 	bne.w	6ff2 <_svfprintf_r+0xb2>
    771e:	2201      	movs	r2, #1
    7720:	2120      	movs	r1, #32
    7722:	e466      	b.n	6ff2 <_svfprintf_r+0xb2>
    7724:	9b07      	ldr	r3, [sp, #28]
    7726:	f043 0301 	orr.w	r3, r3, #1
    772a:	9307      	str	r3, [sp, #28]
    772c:	f898 3000 	ldrb.w	r3, [r8]
    7730:	e45f      	b.n	6ff2 <_svfprintf_r+0xb2>
    7732:	9c0e      	ldr	r4, [sp, #56]	; 0x38
    7734:	6823      	ldr	r3, [r4, #0]
    7736:	930c      	str	r3, [sp, #48]	; 0x30
    7738:	4618      	mov	r0, r3
    773a:	2800      	cmp	r0, #0
    773c:	4623      	mov	r3, r4
    773e:	f103 0304 	add.w	r3, r3, #4
    7742:	f6ff acb8 	blt.w	70b6 <_svfprintf_r+0x176>
    7746:	930e      	str	r3, [sp, #56]	; 0x38
    7748:	f898 3000 	ldrb.w	r3, [r8]
    774c:	e451      	b.n	6ff2 <_svfprintf_r+0xb2>
    774e:	f898 3000 	ldrb.w	r3, [r8]
    7752:	2201      	movs	r2, #1
    7754:	212b      	movs	r1, #43	; 0x2b
    7756:	e44c      	b.n	6ff2 <_svfprintf_r+0xb2>
    7758:	9311      	str	r3, [sp, #68]	; 0x44
    775a:	46ab      	mov	fp, r5
    775c:	2a00      	cmp	r2, #0
    775e:	f43f af51 	beq.w	7604 <_svfprintf_r+0x6c4>
    7762:	f88d 106f 	strb.w	r1, [sp, #111]	; 0x6f
    7766:	e74d      	b.n	7604 <_svfprintf_r+0x6c4>
    7768:	0000923c 	.word	0x0000923c
    776c:	7fefffff 	.word	0x7fefffff
    7770:	00009200 	.word	0x00009200
    7774:	000091fc 	.word	0x000091fc
    7778:	0000920c 	.word	0x0000920c
    777c:	9311      	str	r3, [sp, #68]	; 0x44
    777e:	46ab      	mov	fp, r5
    7780:	2a00      	cmp	r2, #0
    7782:	f040 872a 	bne.w	85da <_svfprintf_r+0x169a>
    7786:	9b07      	ldr	r3, [sp, #28]
    7788:	4899      	ldr	r0, [pc, #612]	; (79f0 <_svfprintf_r+0xab0>)
    778a:	069d      	lsls	r5, r3, #26
    778c:	f53f af69 	bmi.w	7662 <_svfprintf_r+0x722>
    7790:	9b07      	ldr	r3, [sp, #28]
    7792:	06dc      	lsls	r4, r3, #27
    7794:	f140 8435 	bpl.w	8002 <_svfprintf_r+0x10c2>
    7798:	9a0e      	ldr	r2, [sp, #56]	; 0x38
    779a:	4613      	mov	r3, r2
    779c:	3304      	adds	r3, #4
    779e:	6814      	ldr	r4, [r2, #0]
    77a0:	930e      	str	r3, [sp, #56]	; 0x38
    77a2:	2500      	movs	r5, #0
    77a4:	e766      	b.n	7674 <_svfprintf_r+0x734>
    77a6:	f898 3000 	ldrb.w	r3, [r8]
    77aa:	2b6c      	cmp	r3, #108	; 0x6c
    77ac:	f000 84e2 	beq.w	8174 <_svfprintf_r+0x1234>
    77b0:	9807      	ldr	r0, [sp, #28]
    77b2:	f040 0010 	orr.w	r0, r0, #16
    77b6:	9007      	str	r0, [sp, #28]
    77b8:	e41b      	b.n	6ff2 <_svfprintf_r+0xb2>
    77ba:	2a00      	cmp	r2, #0
    77bc:	f040 8709 	bne.w	85d2 <_svfprintf_r+0x1692>
    77c0:	9b07      	ldr	r3, [sp, #28]
    77c2:	069b      	lsls	r3, r3, #26
    77c4:	f140 8406 	bpl.w	7fd4 <_svfprintf_r+0x1094>
    77c8:	9a0e      	ldr	r2, [sp, #56]	; 0x38
    77ca:	990b      	ldr	r1, [sp, #44]	; 0x2c
    77cc:	6813      	ldr	r3, [r2, #0]
    77ce:	17cd      	asrs	r5, r1, #31
    77d0:	4608      	mov	r0, r1
    77d2:	3204      	adds	r2, #4
    77d4:	4629      	mov	r1, r5
    77d6:	920e      	str	r2, [sp, #56]	; 0x38
    77d8:	e9c3 0100 	strd	r0, r1, [r3]
    77dc:	f7ff bbd6 	b.w	6f8c <_svfprintf_r+0x4c>
    77e0:	9b07      	ldr	r3, [sp, #28]
    77e2:	f043 0320 	orr.w	r3, r3, #32
    77e6:	9307      	str	r3, [sp, #28]
    77e8:	f898 3000 	ldrb.w	r3, [r8]
    77ec:	e401      	b.n	6ff2 <_svfprintf_r+0xb2>
    77ee:	9a0e      	ldr	r2, [sp, #56]	; 0x38
    77f0:	9311      	str	r3, [sp, #68]	; 0x44
    77f2:	6816      	ldr	r6, [r2, #0]
    77f4:	2400      	movs	r4, #0
    77f6:	f88d 406f 	strb.w	r4, [sp, #111]	; 0x6f
    77fa:	1d17      	adds	r7, r2, #4
    77fc:	2e00      	cmp	r6, #0
    77fe:	f000 85cd 	beq.w	839c <_svfprintf_r+0x145c>
    7802:	2d00      	cmp	r5, #0
    7804:	f2c0 8518 	blt.w	8238 <_svfprintf_r+0x12f8>
    7808:	462a      	mov	r2, r5
    780a:	4621      	mov	r1, r4
    780c:	4630      	mov	r0, r6
    780e:	f7fe f817 	bl	5840 <memchr>
    7812:	2800      	cmp	r0, #0
    7814:	f000 862a 	beq.w	846c <_svfprintf_r+0x152c>
    7818:	1b83      	subs	r3, r0, r6
    781a:	930d      	str	r3, [sp, #52]	; 0x34
    781c:	46a3      	mov	fp, r4
    781e:	ea23 73e3 	bic.w	r3, r3, r3, asr #31
    7822:	970e      	str	r7, [sp, #56]	; 0x38
    7824:	9308      	str	r3, [sp, #32]
    7826:	f8cd b04c 	str.w	fp, [sp, #76]	; 0x4c
    782a:	f89d 706f 	ldrb.w	r7, [sp, #111]	; 0x6f
    782e:	e54d      	b.n	72cc <_svfprintf_r+0x38c>
    7830:	486f      	ldr	r0, [pc, #444]	; (79f0 <_svfprintf_r+0xab0>)
    7832:	9211      	str	r2, [sp, #68]	; 0x44
    7834:	f1bb 0f00 	cmp.w	fp, #0
    7838:	f040 8173 	bne.w	7b22 <_svfprintf_r+0xbe2>
    783c:	465f      	mov	r7, fp
    783e:	f04f 0b00 	mov.w	fp, #0
    7842:	f8cd b034 	str.w	fp, [sp, #52]	; 0x34
    7846:	ae30      	add	r6, sp, #192	; 0xc0
    7848:	e539      	b.n	72be <_svfprintf_r+0x37e>
    784a:	9311      	str	r3, [sp, #68]	; 0x44
    784c:	2a00      	cmp	r2, #0
    784e:	f040 86ac 	bne.w	85aa <_svfprintf_r+0x166a>
    7852:	9a11      	ldr	r2, [sp, #68]	; 0x44
    7854:	2a00      	cmp	r2, #0
    7856:	f43f ac65 	beq.w	7124 <_svfprintf_r+0x1e4>
    785a:	2300      	movs	r3, #0
    785c:	2101      	movs	r1, #1
    785e:	461f      	mov	r7, r3
    7860:	9108      	str	r1, [sp, #32]
    7862:	f88d 2098 	strb.w	r2, [sp, #152]	; 0x98
    7866:	f88d 306f 	strb.w	r3, [sp, #111]	; 0x6f
    786a:	469b      	mov	fp, r3
    786c:	9313      	str	r3, [sp, #76]	; 0x4c
    786e:	910d      	str	r1, [sp, #52]	; 0x34
    7870:	ae26      	add	r6, sp, #152	; 0x98
    7872:	e52f      	b.n	72d4 <_svfprintf_r+0x394>
    7874:	f1bb 0f00 	cmp.w	fp, #0
    7878:	f000 8603 	beq.w	8482 <_svfprintf_r+0x1542>
    787c:	2700      	movs	r7, #0
    787e:	2400      	movs	r4, #0
    7880:	2500      	movs	r5, #0
    7882:	e482      	b.n	718a <_svfprintf_r+0x24a>
    7884:	485a      	ldr	r0, [pc, #360]	; (79f0 <_svfprintf_r+0xab0>)
    7886:	9307      	str	r3, [sp, #28]
    7888:	9211      	str	r2, [sp, #68]	; 0x44
    788a:	ea54 0305 	orrs.w	r3, r4, r5
    788e:	970e      	str	r7, [sp, #56]	; 0x38
    7890:	f04f 0700 	mov.w	r7, #0
    7894:	f47f af0c 	bne.w	76b0 <_svfprintf_r+0x770>
    7898:	2400      	movs	r4, #0
    789a:	2500      	movs	r5, #0
    789c:	e708      	b.n	76b0 <_svfprintf_r+0x770>
    789e:	9c25      	ldr	r4, [sp, #148]	; 0x94
    78a0:	e568      	b.n	7374 <_svfprintf_r+0x434>
    78a2:	9b11      	ldr	r3, [sp, #68]	; 0x44
    78a4:	2b65      	cmp	r3, #101	; 0x65
    78a6:	f340 80a9 	ble.w	79fc <_svfprintf_r+0xabc>
    78aa:	9814      	ldr	r0, [sp, #80]	; 0x50
    78ac:	9915      	ldr	r1, [sp, #84]	; 0x54
    78ae:	2200      	movs	r2, #0
    78b0:	2300      	movs	r3, #0
    78b2:	f7fc ff11 	bl	46d8 <__aeabi_dcmpeq>
    78b6:	2800      	cmp	r0, #0
    78b8:	f000 8135 	beq.w	7b26 <_svfprintf_r+0xbe6>
    78bc:	9b24      	ldr	r3, [sp, #144]	; 0x90
    78be:	4a4d      	ldr	r2, [pc, #308]	; (79f4 <_svfprintf_r+0xab4>)
    78c0:	f8c9 2000 	str.w	r2, [r9]
    78c4:	3301      	adds	r3, #1
    78c6:	3401      	adds	r4, #1
    78c8:	2201      	movs	r2, #1
    78ca:	2b07      	cmp	r3, #7
    78cc:	9425      	str	r4, [sp, #148]	; 0x94
    78ce:	9324      	str	r3, [sp, #144]	; 0x90
    78d0:	f8c9 2004 	str.w	r2, [r9, #4]
    78d4:	f300 83e8 	bgt.w	80a8 <_svfprintf_r+0x1168>
    78d8:	f109 0908 	add.w	r9, r9, #8
    78dc:	9b1d      	ldr	r3, [sp, #116]	; 0x74
    78de:	9a12      	ldr	r2, [sp, #72]	; 0x48
    78e0:	4293      	cmp	r3, r2
    78e2:	db03      	blt.n	78ec <_svfprintf_r+0x9ac>
    78e4:	9b07      	ldr	r3, [sp, #28]
    78e6:	07db      	lsls	r3, r3, #31
    78e8:	f57f adba 	bpl.w	7460 <_svfprintf_r+0x520>
    78ec:	9b24      	ldr	r3, [sp, #144]	; 0x90
    78ee:	9916      	ldr	r1, [sp, #88]	; 0x58
    78f0:	9a17      	ldr	r2, [sp, #92]	; 0x5c
    78f2:	f8c9 2000 	str.w	r2, [r9]
    78f6:	3301      	adds	r3, #1
    78f8:	440c      	add	r4, r1
    78fa:	2b07      	cmp	r3, #7
    78fc:	9425      	str	r4, [sp, #148]	; 0x94
    78fe:	f8c9 1004 	str.w	r1, [r9, #4]
    7902:	9324      	str	r3, [sp, #144]	; 0x90
    7904:	f300 8440 	bgt.w	8188 <_svfprintf_r+0x1248>
    7908:	f109 0908 	add.w	r9, r9, #8
    790c:	9b12      	ldr	r3, [sp, #72]	; 0x48
    790e:	1e5d      	subs	r5, r3, #1
    7910:	2d00      	cmp	r5, #0
    7912:	f77f ada5 	ble.w	7460 <_svfprintf_r+0x520>
    7916:	4a38      	ldr	r2, [pc, #224]	; (79f8 <_svfprintf_r+0xab8>)
    7918:	9b24      	ldr	r3, [sp, #144]	; 0x90
    791a:	920f      	str	r2, [sp, #60]	; 0x3c
    791c:	2d10      	cmp	r5, #16
    791e:	f340 81e6 	ble.w	7cee <_svfprintf_r+0xdae>
    7922:	2610      	movs	r6, #16
    7924:	9f0a      	ldr	r7, [sp, #40]	; 0x28
    7926:	f8dd b024 	ldr.w	fp, [sp, #36]	; 0x24
    792a:	e005      	b.n	7938 <_svfprintf_r+0x9f8>
    792c:	f109 0908 	add.w	r9, r9, #8
    7930:	3d10      	subs	r5, #16
    7932:	2d10      	cmp	r5, #16
    7934:	f340 81db 	ble.w	7cee <_svfprintf_r+0xdae>
    7938:	3301      	adds	r3, #1
    793a:	3410      	adds	r4, #16
    793c:	2b07      	cmp	r3, #7
    793e:	9425      	str	r4, [sp, #148]	; 0x94
    7940:	9324      	str	r3, [sp, #144]	; 0x90
    7942:	f8c9 a000 	str.w	sl, [r9]
    7946:	f8c9 6004 	str.w	r6, [r9, #4]
    794a:	ddef      	ble.n	792c <_svfprintf_r+0x9ec>
    794c:	aa23      	add	r2, sp, #140	; 0x8c
    794e:	4659      	mov	r1, fp
    7950:	4638      	mov	r0, r7
    7952:	f000 fe4d 	bl	85f0 <__ssprint_r>
    7956:	2800      	cmp	r0, #0
    7958:	f47f abeb 	bne.w	7132 <_svfprintf_r+0x1f2>
    795c:	9c25      	ldr	r4, [sp, #148]	; 0x94
    795e:	9b24      	ldr	r3, [sp, #144]	; 0x90
    7960:	f10d 09c0 	add.w	r9, sp, #192	; 0xc0
    7964:	e7e4      	b.n	7930 <_svfprintf_r+0x9f0>
    7966:	9b0c      	ldr	r3, [sp, #48]	; 0x30
    7968:	9a08      	ldr	r2, [sp, #32]
    796a:	1a9f      	subs	r7, r3, r2
    796c:	2f00      	cmp	r7, #0
    796e:	f77f ad25 	ble.w	73bc <_svfprintf_r+0x47c>
    7972:	4a21      	ldr	r2, [pc, #132]	; (79f8 <_svfprintf_r+0xab8>)
    7974:	9b24      	ldr	r3, [sp, #144]	; 0x90
    7976:	920f      	str	r2, [sp, #60]	; 0x3c
    7978:	2f10      	cmp	r7, #16
    797a:	dd2b      	ble.n	79d4 <_svfprintf_r+0xa94>
    797c:	464a      	mov	r2, r9
    797e:	4621      	mov	r1, r4
    7980:	46b9      	mov	r9, r7
    7982:	2510      	movs	r5, #16
    7984:	4637      	mov	r7, r6
    7986:	9c0a      	ldr	r4, [sp, #40]	; 0x28
    7988:	9e09      	ldr	r6, [sp, #36]	; 0x24
    798a:	e006      	b.n	799a <_svfprintf_r+0xa5a>
    798c:	f1a9 0910 	sub.w	r9, r9, #16
    7990:	f1b9 0f10 	cmp.w	r9, #16
    7994:	f102 0208 	add.w	r2, r2, #8
    7998:	dd18      	ble.n	79cc <_svfprintf_r+0xa8c>
    799a:	3301      	adds	r3, #1
    799c:	3110      	adds	r1, #16
    799e:	2b07      	cmp	r3, #7
    79a0:	9125      	str	r1, [sp, #148]	; 0x94
    79a2:	9324      	str	r3, [sp, #144]	; 0x90
    79a4:	f8c2 a000 	str.w	sl, [r2]
    79a8:	6055      	str	r5, [r2, #4]
    79aa:	ddef      	ble.n	798c <_svfprintf_r+0xa4c>
    79ac:	aa23      	add	r2, sp, #140	; 0x8c
    79ae:	4631      	mov	r1, r6
    79b0:	4620      	mov	r0, r4
    79b2:	f000 fe1d 	bl	85f0 <__ssprint_r>
    79b6:	2800      	cmp	r0, #0
    79b8:	f47f abbb 	bne.w	7132 <_svfprintf_r+0x1f2>
    79bc:	f1a9 0910 	sub.w	r9, r9, #16
    79c0:	f1b9 0f10 	cmp.w	r9, #16
    79c4:	9925      	ldr	r1, [sp, #148]	; 0x94
    79c6:	9b24      	ldr	r3, [sp, #144]	; 0x90
    79c8:	aa30      	add	r2, sp, #192	; 0xc0
    79ca:	dce6      	bgt.n	799a <_svfprintf_r+0xa5a>
    79cc:	463e      	mov	r6, r7
    79ce:	460c      	mov	r4, r1
    79d0:	464f      	mov	r7, r9
    79d2:	4691      	mov	r9, r2
    79d4:	3301      	adds	r3, #1
    79d6:	9a0f      	ldr	r2, [sp, #60]	; 0x3c
    79d8:	9324      	str	r3, [sp, #144]	; 0x90
    79da:	443c      	add	r4, r7
    79dc:	2b07      	cmp	r3, #7
    79de:	9425      	str	r4, [sp, #148]	; 0x94
    79e0:	e889 0084 	stmia.w	r9, {r2, r7}
    79e4:	f300 8245 	bgt.w	7e72 <_svfprintf_r+0xf32>
    79e8:	f109 0908 	add.w	r9, r9, #8
    79ec:	e4e6      	b.n	73bc <_svfprintf_r+0x47c>
    79ee:	bf00      	nop
    79f0:	00009220 	.word	0x00009220
    79f4:	000091e8 	.word	0x000091e8
    79f8:	000091ec 	.word	0x000091ec
    79fc:	9b12      	ldr	r3, [sp, #72]	; 0x48
    79fe:	9d24      	ldr	r5, [sp, #144]	; 0x90
    7a00:	2b01      	cmp	r3, #1
    7a02:	f340 8208 	ble.w	7e16 <_svfprintf_r+0xed6>
    7a06:	3501      	adds	r5, #1
    7a08:	3401      	adds	r4, #1
    7a0a:	2301      	movs	r3, #1
    7a0c:	2d07      	cmp	r5, #7
    7a0e:	9425      	str	r4, [sp, #148]	; 0x94
    7a10:	9524      	str	r5, [sp, #144]	; 0x90
    7a12:	f8c9 6000 	str.w	r6, [r9]
    7a16:	f8c9 3004 	str.w	r3, [r9, #4]
    7a1a:	f300 820d 	bgt.w	7e38 <_svfprintf_r+0xef8>
    7a1e:	f109 0908 	add.w	r9, r9, #8
    7a22:	9a16      	ldr	r2, [sp, #88]	; 0x58
    7a24:	9b17      	ldr	r3, [sp, #92]	; 0x5c
    7a26:	f8c9 3000 	str.w	r3, [r9]
    7a2a:	3501      	adds	r5, #1
    7a2c:	4414      	add	r4, r2
    7a2e:	2d07      	cmp	r5, #7
    7a30:	9425      	str	r4, [sp, #148]	; 0x94
    7a32:	9524      	str	r5, [sp, #144]	; 0x90
    7a34:	f8c9 2004 	str.w	r2, [r9, #4]
    7a38:	f300 820e 	bgt.w	7e58 <_svfprintf_r+0xf18>
    7a3c:	f109 0908 	add.w	r9, r9, #8
    7a40:	2300      	movs	r3, #0
    7a42:	9814      	ldr	r0, [sp, #80]	; 0x50
    7a44:	9915      	ldr	r1, [sp, #84]	; 0x54
    7a46:	2200      	movs	r2, #0
    7a48:	f7fc fe46 	bl	46d8 <__aeabi_dcmpeq>
    7a4c:	9b12      	ldr	r3, [sp, #72]	; 0x48
    7a4e:	2800      	cmp	r0, #0
    7a50:	f040 80c3 	bne.w	7bda <_svfprintf_r+0xc9a>
    7a54:	3b01      	subs	r3, #1
    7a56:	3501      	adds	r5, #1
    7a58:	3601      	adds	r6, #1
    7a5a:	441c      	add	r4, r3
    7a5c:	2d07      	cmp	r5, #7
    7a5e:	9524      	str	r5, [sp, #144]	; 0x90
    7a60:	9425      	str	r4, [sp, #148]	; 0x94
    7a62:	f8c9 6000 	str.w	r6, [r9]
    7a66:	f8c9 3004 	str.w	r3, [r9, #4]
    7a6a:	f300 80f5 	bgt.w	7c58 <_svfprintf_r+0xd18>
    7a6e:	f109 0908 	add.w	r9, r9, #8
    7a72:	9a19      	ldr	r2, [sp, #100]	; 0x64
    7a74:	f8c9 2004 	str.w	r2, [r9, #4]
    7a78:	3501      	adds	r5, #1
    7a7a:	4414      	add	r4, r2
    7a7c:	ab1f      	add	r3, sp, #124	; 0x7c
    7a7e:	2d07      	cmp	r5, #7
    7a80:	9425      	str	r4, [sp, #148]	; 0x94
    7a82:	9524      	str	r5, [sp, #144]	; 0x90
    7a84:	f8c9 3000 	str.w	r3, [r9]
    7a88:	f77f ace8 	ble.w	745c <_svfprintf_r+0x51c>
    7a8c:	aa23      	add	r2, sp, #140	; 0x8c
    7a8e:	9909      	ldr	r1, [sp, #36]	; 0x24
    7a90:	980a      	ldr	r0, [sp, #40]	; 0x28
    7a92:	f000 fdad 	bl	85f0 <__ssprint_r>
    7a96:	2800      	cmp	r0, #0
    7a98:	f47f ab4b 	bne.w	7132 <_svfprintf_r+0x1f2>
    7a9c:	9c25      	ldr	r4, [sp, #148]	; 0x94
    7a9e:	f10d 09c0 	add.w	r9, sp, #192	; 0xc0
    7aa2:	e4dd      	b.n	7460 <_svfprintf_r+0x520>
    7aa4:	aa23      	add	r2, sp, #140	; 0x8c
    7aa6:	9909      	ldr	r1, [sp, #36]	; 0x24
    7aa8:	980a      	ldr	r0, [sp, #40]	; 0x28
    7aaa:	f000 fda1 	bl	85f0 <__ssprint_r>
    7aae:	2800      	cmp	r0, #0
    7ab0:	f43f ad24 	beq.w	74fc <_svfprintf_r+0x5bc>
    7ab4:	f7ff bb3d 	b.w	7132 <_svfprintf_r+0x1f2>
    7ab8:	aa23      	add	r2, sp, #140	; 0x8c
    7aba:	9909      	ldr	r1, [sp, #36]	; 0x24
    7abc:	980a      	ldr	r0, [sp, #40]	; 0x28
    7abe:	f000 fd97 	bl	85f0 <__ssprint_r>
    7ac2:	2800      	cmp	r0, #0
    7ac4:	f47f ab35 	bne.w	7132 <_svfprintf_r+0x1f2>
    7ac8:	9c25      	ldr	r4, [sp, #148]	; 0x94
    7aca:	f10d 09c0 	add.w	r9, sp, #192	; 0xc0
    7ace:	e4b4      	b.n	743a <_svfprintf_r+0x4fa>
    7ad0:	aa23      	add	r2, sp, #140	; 0x8c
    7ad2:	9909      	ldr	r1, [sp, #36]	; 0x24
    7ad4:	980a      	ldr	r0, [sp, #40]	; 0x28
    7ad6:	f000 fd8b 	bl	85f0 <__ssprint_r>
    7ada:	2800      	cmp	r0, #0
    7adc:	f47f ab29 	bne.w	7132 <_svfprintf_r+0x1f2>
    7ae0:	9c25      	ldr	r4, [sp, #148]	; 0x94
    7ae2:	f10d 09c0 	add.w	r9, sp, #192	; 0xc0
    7ae6:	e455      	b.n	7394 <_svfprintf_r+0x454>
    7ae8:	aa23      	add	r2, sp, #140	; 0x8c
    7aea:	9909      	ldr	r1, [sp, #36]	; 0x24
    7aec:	980a      	ldr	r0, [sp, #40]	; 0x28
    7aee:	f000 fd7f 	bl	85f0 <__ssprint_r>
    7af2:	2800      	cmp	r0, #0
    7af4:	f47f ab1d 	bne.w	7132 <_svfprintf_r+0x1f2>
    7af8:	9c25      	ldr	r4, [sp, #148]	; 0x94
    7afa:	f10d 09c0 	add.w	r9, sp, #192	; 0xc0
    7afe:	e459      	b.n	73b4 <_svfprintf_r+0x474>
    7b00:	f1bb 0f00 	cmp.w	fp, #0
    7b04:	f88d 706f 	strb.w	r7, [sp, #111]	; 0x6f
    7b08:	f2c0 82da 	blt.w	80c0 <_svfprintf_r+0x1180>
    7b0c:	f022 0380 	bic.w	r3, r2, #128	; 0x80
    7b10:	9307      	str	r3, [sp, #28]
    7b12:	ea54 0305 	orrs.w	r3, r4, r5
    7b16:	f47f adcb 	bne.w	76b0 <_svfprintf_r+0x770>
    7b1a:	f1bb 0f00 	cmp.w	fp, #0
    7b1e:	f43f ae8d 	beq.w	783c <_svfprintf_r+0x8fc>
    7b22:	2700      	movs	r7, #0
    7b24:	e6b8      	b.n	7898 <_svfprintf_r+0x958>
    7b26:	9d1d      	ldr	r5, [sp, #116]	; 0x74
    7b28:	2d00      	cmp	r5, #0
    7b2a:	f340 82cc 	ble.w	80c6 <_svfprintf_r+0x1186>
    7b2e:	9b13      	ldr	r3, [sp, #76]	; 0x4c
    7b30:	9a12      	ldr	r2, [sp, #72]	; 0x48
    7b32:	4293      	cmp	r3, r2
    7b34:	bfa8      	it	ge
    7b36:	4613      	movge	r3, r2
    7b38:	2b00      	cmp	r3, #0
    7b3a:	461d      	mov	r5, r3
    7b3c:	dd0d      	ble.n	7b5a <_svfprintf_r+0xc1a>
    7b3e:	9b24      	ldr	r3, [sp, #144]	; 0x90
    7b40:	f8c9 6000 	str.w	r6, [r9]
    7b44:	3301      	adds	r3, #1
    7b46:	442c      	add	r4, r5
    7b48:	2b07      	cmp	r3, #7
    7b4a:	9425      	str	r4, [sp, #148]	; 0x94
    7b4c:	f8c9 5004 	str.w	r5, [r9, #4]
    7b50:	9324      	str	r3, [sp, #144]	; 0x90
    7b52:	f300 83a3 	bgt.w	829c <_svfprintf_r+0x135c>
    7b56:	f109 0908 	add.w	r9, r9, #8
    7b5a:	9b13      	ldr	r3, [sp, #76]	; 0x4c
    7b5c:	2d00      	cmp	r5, #0
    7b5e:	bfa8      	it	ge
    7b60:	1b5b      	subge	r3, r3, r5
    7b62:	2b00      	cmp	r3, #0
    7b64:	461d      	mov	r5, r3
    7b66:	f340 80f6 	ble.w	7d56 <_svfprintf_r+0xe16>
    7b6a:	4aba      	ldr	r2, [pc, #744]	; (7e54 <_svfprintf_r+0xf14>)
    7b6c:	9b24      	ldr	r3, [sp, #144]	; 0x90
    7b6e:	920f      	str	r2, [sp, #60]	; 0x3c
    7b70:	2d10      	cmp	r5, #16
    7b72:	f340 8280 	ble.w	8076 <_svfprintf_r+0x1136>
    7b76:	4622      	mov	r2, r4
    7b78:	2710      	movs	r7, #16
    7b7a:	f8dd b028 	ldr.w	fp, [sp, #40]	; 0x28
    7b7e:	9c09      	ldr	r4, [sp, #36]	; 0x24
    7b80:	e005      	b.n	7b8e <_svfprintf_r+0xc4e>
    7b82:	f109 0908 	add.w	r9, r9, #8
    7b86:	3d10      	subs	r5, #16
    7b88:	2d10      	cmp	r5, #16
    7b8a:	f340 8273 	ble.w	8074 <_svfprintf_r+0x1134>
    7b8e:	3301      	adds	r3, #1
    7b90:	3210      	adds	r2, #16
    7b92:	2b07      	cmp	r3, #7
    7b94:	9225      	str	r2, [sp, #148]	; 0x94
    7b96:	9324      	str	r3, [sp, #144]	; 0x90
    7b98:	f8c9 a000 	str.w	sl, [r9]
    7b9c:	f8c9 7004 	str.w	r7, [r9, #4]
    7ba0:	ddef      	ble.n	7b82 <_svfprintf_r+0xc42>
    7ba2:	aa23      	add	r2, sp, #140	; 0x8c
    7ba4:	4621      	mov	r1, r4
    7ba6:	4658      	mov	r0, fp
    7ba8:	f000 fd22 	bl	85f0 <__ssprint_r>
    7bac:	2800      	cmp	r0, #0
    7bae:	f47f aac0 	bne.w	7132 <_svfprintf_r+0x1f2>
    7bb2:	9a25      	ldr	r2, [sp, #148]	; 0x94
    7bb4:	9b24      	ldr	r3, [sp, #144]	; 0x90
    7bb6:	f10d 09c0 	add.w	r9, sp, #192	; 0xc0
    7bba:	e7e4      	b.n	7b86 <_svfprintf_r+0xc46>
    7bbc:	aa23      	add	r2, sp, #140	; 0x8c
    7bbe:	9909      	ldr	r1, [sp, #36]	; 0x24
    7bc0:	980a      	ldr	r0, [sp, #40]	; 0x28
    7bc2:	f000 fd15 	bl	85f0 <__ssprint_r>
    7bc6:	2800      	cmp	r0, #0
    7bc8:	f47f aab3 	bne.w	7132 <_svfprintf_r+0x1f2>
    7bcc:	f89d 706f 	ldrb.w	r7, [sp, #111]	; 0x6f
    7bd0:	9c25      	ldr	r4, [sp, #148]	; 0x94
    7bd2:	f10d 09c0 	add.w	r9, sp, #192	; 0xc0
    7bd6:	f7ff bbcd 	b.w	7374 <_svfprintf_r+0x434>
    7bda:	1e5e      	subs	r6, r3, #1
    7bdc:	2e00      	cmp	r6, #0
    7bde:	f77f af48 	ble.w	7a72 <_svfprintf_r+0xb32>
    7be2:	4b9c      	ldr	r3, [pc, #624]	; (7e54 <_svfprintf_r+0xf14>)
    7be4:	930f      	str	r3, [sp, #60]	; 0x3c
    7be6:	2e10      	cmp	r6, #16
    7be8:	dd2c      	ble.n	7c44 <_svfprintf_r+0xd04>
    7bea:	f8cd 8034 	str.w	r8, [sp, #52]	; 0x34
    7bee:	2710      	movs	r7, #16
    7bf0:	46b0      	mov	r8, r6
    7bf2:	f8dd b028 	ldr.w	fp, [sp, #40]	; 0x28
    7bf6:	9e09      	ldr	r6, [sp, #36]	; 0x24
    7bf8:	e006      	b.n	7c08 <_svfprintf_r+0xcc8>
    7bfa:	f1a8 0810 	sub.w	r8, r8, #16
    7bfe:	f1b8 0f10 	cmp.w	r8, #16
    7c02:	f109 0908 	add.w	r9, r9, #8
    7c06:	dd1a      	ble.n	7c3e <_svfprintf_r+0xcfe>
    7c08:	3501      	adds	r5, #1
    7c0a:	3410      	adds	r4, #16
    7c0c:	2d07      	cmp	r5, #7
    7c0e:	9425      	str	r4, [sp, #148]	; 0x94
    7c10:	9524      	str	r5, [sp, #144]	; 0x90
    7c12:	f8c9 a000 	str.w	sl, [r9]
    7c16:	f8c9 7004 	str.w	r7, [r9, #4]
    7c1a:	ddee      	ble.n	7bfa <_svfprintf_r+0xcba>
    7c1c:	aa23      	add	r2, sp, #140	; 0x8c
    7c1e:	4631      	mov	r1, r6
    7c20:	4658      	mov	r0, fp
    7c22:	f000 fce5 	bl	85f0 <__ssprint_r>
    7c26:	2800      	cmp	r0, #0
    7c28:	f47f aa83 	bne.w	7132 <_svfprintf_r+0x1f2>
    7c2c:	f1a8 0810 	sub.w	r8, r8, #16
    7c30:	f1b8 0f10 	cmp.w	r8, #16
    7c34:	9c25      	ldr	r4, [sp, #148]	; 0x94
    7c36:	9d24      	ldr	r5, [sp, #144]	; 0x90
    7c38:	f10d 09c0 	add.w	r9, sp, #192	; 0xc0
    7c3c:	dce4      	bgt.n	7c08 <_svfprintf_r+0xcc8>
    7c3e:	4646      	mov	r6, r8
    7c40:	f8dd 8034 	ldr.w	r8, [sp, #52]	; 0x34
    7c44:	9b0f      	ldr	r3, [sp, #60]	; 0x3c
    7c46:	3501      	adds	r5, #1
    7c48:	4434      	add	r4, r6
    7c4a:	2d07      	cmp	r5, #7
    7c4c:	9425      	str	r4, [sp, #148]	; 0x94
    7c4e:	9524      	str	r5, [sp, #144]	; 0x90
    7c50:	e889 0048 	stmia.w	r9, {r3, r6}
    7c54:	f77f af0b 	ble.w	7a6e <_svfprintf_r+0xb2e>
    7c58:	aa23      	add	r2, sp, #140	; 0x8c
    7c5a:	9909      	ldr	r1, [sp, #36]	; 0x24
    7c5c:	980a      	ldr	r0, [sp, #40]	; 0x28
    7c5e:	f000 fcc7 	bl	85f0 <__ssprint_r>
    7c62:	2800      	cmp	r0, #0
    7c64:	f47f aa65 	bne.w	7132 <_svfprintf_r+0x1f2>
    7c68:	9c25      	ldr	r4, [sp, #148]	; 0x94
    7c6a:	9d24      	ldr	r5, [sp, #144]	; 0x90
    7c6c:	f10d 09c0 	add.w	r9, sp, #192	; 0xc0
    7c70:	e6ff      	b.n	7a72 <_svfprintf_r+0xb32>
    7c72:	9907      	ldr	r1, [sp, #28]
    7c74:	f011 0210 	ands.w	r2, r1, #16
    7c78:	f000 8108 	beq.w	7e8c <_svfprintf_r+0xf4c>
    7c7c:	980e      	ldr	r0, [sp, #56]	; 0x38
    7c7e:	f88d 306f 	strb.w	r3, [sp, #111]	; 0x6f
    7c82:	f1bb 0f00 	cmp.w	fp, #0
    7c86:	6804      	ldr	r4, [r0, #0]
    7c88:	f100 0704 	add.w	r7, r0, #4
    7c8c:	f04f 0500 	mov.w	r5, #0
    7c90:	db26      	blt.n	7ce0 <_svfprintf_r+0xda0>
    7c92:	460a      	mov	r2, r1
    7c94:	f022 0280 	bic.w	r2, r2, #128	; 0x80
    7c98:	9207      	str	r2, [sp, #28]
    7c9a:	ea54 0205 	orrs.w	r2, r4, r5
    7c9e:	970e      	str	r7, [sp, #56]	; 0x38
    7ca0:	461f      	mov	r7, r3
    7ca2:	f47f aaef 	bne.w	7284 <_svfprintf_r+0x344>
    7ca6:	e4c8      	b.n	763a <_svfprintf_r+0x6fa>
    7ca8:	9b07      	ldr	r3, [sp, #28]
    7caa:	06d9      	lsls	r1, r3, #27
    7cac:	d42a      	bmi.n	7d04 <_svfprintf_r+0xdc4>
    7cae:	9b07      	ldr	r3, [sp, #28]
    7cb0:	065a      	lsls	r2, r3, #25
    7cb2:	d527      	bpl.n	7d04 <_svfprintf_r+0xdc4>
    7cb4:	990e      	ldr	r1, [sp, #56]	; 0x38
    7cb6:	f9b1 4000 	ldrsh.w	r4, [r1]
    7cba:	3104      	adds	r1, #4
    7cbc:	17e5      	asrs	r5, r4, #31
    7cbe:	4622      	mov	r2, r4
    7cc0:	462b      	mov	r3, r5
    7cc2:	910e      	str	r1, [sp, #56]	; 0x38
    7cc4:	f7ff bacb 	b.w	725e <_svfprintf_r+0x31e>
    7cc8:	990e      	ldr	r1, [sp, #56]	; 0x38
    7cca:	f88d 306f 	strb.w	r3, [sp, #111]	; 0x6f
    7cce:	f1bb 0f00 	cmp.w	fp, #0
    7cd2:	680c      	ldr	r4, [r1, #0]
    7cd4:	f101 0704 	add.w	r7, r1, #4
    7cd8:	f04f 0500 	mov.w	r5, #0
    7cdc:	f280 8245 	bge.w	816a <_svfprintf_r+0x122a>
    7ce0:	970e      	str	r7, [sp, #56]	; 0x38
    7ce2:	461f      	mov	r7, r3
    7ce4:	ea54 0305 	orrs.w	r3, r4, r5
    7ce8:	f47f aacc 	bne.w	7284 <_svfprintf_r+0x344>
    7cec:	e4aa      	b.n	7644 <_svfprintf_r+0x704>
    7cee:	3301      	adds	r3, #1
    7cf0:	9a0f      	ldr	r2, [sp, #60]	; 0x3c
    7cf2:	9324      	str	r3, [sp, #144]	; 0x90
    7cf4:	442c      	add	r4, r5
    7cf6:	2b07      	cmp	r3, #7
    7cf8:	9425      	str	r4, [sp, #148]	; 0x94
    7cfa:	e889 0024 	stmia.w	r9, {r2, r5}
    7cfe:	f77f abad 	ble.w	745c <_svfprintf_r+0x51c>
    7d02:	e6c3      	b.n	7a8c <_svfprintf_r+0xb4c>
    7d04:	9a0e      	ldr	r2, [sp, #56]	; 0x38
    7d06:	6814      	ldr	r4, [r2, #0]
    7d08:	4613      	mov	r3, r2
    7d0a:	3304      	adds	r3, #4
    7d0c:	17e5      	asrs	r5, r4, #31
    7d0e:	4622      	mov	r2, r4
    7d10:	930e      	str	r3, [sp, #56]	; 0x38
    7d12:	2a00      	cmp	r2, #0
    7d14:	462b      	mov	r3, r5
    7d16:	f173 0300 	sbcs.w	r3, r3, #0
    7d1a:	f6bf aaa5 	bge.w	7268 <_svfprintf_r+0x328>
    7d1e:	4264      	negs	r4, r4
    7d20:	f04f 072d 	mov.w	r7, #45	; 0x2d
    7d24:	eb65 0545 	sbc.w	r5, r5, r5, lsl #1
    7d28:	f1bb 0f00 	cmp.w	fp, #0
    7d2c:	f88d 706f 	strb.w	r7, [sp, #111]	; 0x6f
    7d30:	f6ff aaa8 	blt.w	7284 <_svfprintf_r+0x344>
    7d34:	9b07      	ldr	r3, [sp, #28]
    7d36:	f023 0380 	bic.w	r3, r3, #128	; 0x80
    7d3a:	9307      	str	r3, [sp, #28]
    7d3c:	f7ff baa2 	b.w	7284 <_svfprintf_r+0x344>
    7d40:	aa23      	add	r2, sp, #140	; 0x8c
    7d42:	9909      	ldr	r1, [sp, #36]	; 0x24
    7d44:	980a      	ldr	r0, [sp, #40]	; 0x28
    7d46:	f000 fc53 	bl	85f0 <__ssprint_r>
    7d4a:	2800      	cmp	r0, #0
    7d4c:	f47f a9f1 	bne.w	7132 <_svfprintf_r+0x1f2>
    7d50:	9c25      	ldr	r4, [sp, #148]	; 0x94
    7d52:	f10d 09c0 	add.w	r9, sp, #192	; 0xc0
    7d56:	9a13      	ldr	r2, [sp, #76]	; 0x4c
    7d58:	9b1d      	ldr	r3, [sp, #116]	; 0x74
    7d5a:	4432      	add	r2, r6
    7d5c:	4617      	mov	r7, r2
    7d5e:	9a12      	ldr	r2, [sp, #72]	; 0x48
    7d60:	4293      	cmp	r3, r2
    7d62:	db47      	blt.n	7df4 <_svfprintf_r+0xeb4>
    7d64:	9a07      	ldr	r2, [sp, #28]
    7d66:	07d5      	lsls	r5, r2, #31
    7d68:	d444      	bmi.n	7df4 <_svfprintf_r+0xeb4>
    7d6a:	9912      	ldr	r1, [sp, #72]	; 0x48
    7d6c:	440e      	add	r6, r1
    7d6e:	1bf5      	subs	r5, r6, r7
    7d70:	1acb      	subs	r3, r1, r3
    7d72:	429d      	cmp	r5, r3
    7d74:	bfa8      	it	ge
    7d76:	461d      	movge	r5, r3
    7d78:	2d00      	cmp	r5, #0
    7d7a:	462e      	mov	r6, r5
    7d7c:	dd0d      	ble.n	7d9a <_svfprintf_r+0xe5a>
    7d7e:	9a24      	ldr	r2, [sp, #144]	; 0x90
    7d80:	f8c9 7000 	str.w	r7, [r9]
    7d84:	3201      	adds	r2, #1
    7d86:	442c      	add	r4, r5
    7d88:	2a07      	cmp	r2, #7
    7d8a:	9425      	str	r4, [sp, #148]	; 0x94
    7d8c:	f8c9 5004 	str.w	r5, [r9, #4]
    7d90:	9224      	str	r2, [sp, #144]	; 0x90
    7d92:	f300 8312 	bgt.w	83ba <_svfprintf_r+0x147a>
    7d96:	f109 0908 	add.w	r9, r9, #8
    7d9a:	2e00      	cmp	r6, #0
    7d9c:	bfac      	ite	ge
    7d9e:	1b9d      	subge	r5, r3, r6
    7da0:	461d      	movlt	r5, r3
    7da2:	2d00      	cmp	r5, #0
    7da4:	f77f ab5c 	ble.w	7460 <_svfprintf_r+0x520>
    7da8:	4a2a      	ldr	r2, [pc, #168]	; (7e54 <_svfprintf_r+0xf14>)
    7daa:	9b24      	ldr	r3, [sp, #144]	; 0x90
    7dac:	920f      	str	r2, [sp, #60]	; 0x3c
    7dae:	2d10      	cmp	r5, #16
    7db0:	dd9d      	ble.n	7cee <_svfprintf_r+0xdae>
    7db2:	2610      	movs	r6, #16
    7db4:	9f0a      	ldr	r7, [sp, #40]	; 0x28
    7db6:	f8dd b024 	ldr.w	fp, [sp, #36]	; 0x24
    7dba:	e004      	b.n	7dc6 <_svfprintf_r+0xe86>
    7dbc:	f109 0908 	add.w	r9, r9, #8
    7dc0:	3d10      	subs	r5, #16
    7dc2:	2d10      	cmp	r5, #16
    7dc4:	dd93      	ble.n	7cee <_svfprintf_r+0xdae>
    7dc6:	3301      	adds	r3, #1
    7dc8:	3410      	adds	r4, #16
    7dca:	2b07      	cmp	r3, #7
    7dcc:	9425      	str	r4, [sp, #148]	; 0x94
    7dce:	9324      	str	r3, [sp, #144]	; 0x90
    7dd0:	f8c9 a000 	str.w	sl, [r9]
    7dd4:	f8c9 6004 	str.w	r6, [r9, #4]
    7dd8:	ddf0      	ble.n	7dbc <_svfprintf_r+0xe7c>
    7dda:	aa23      	add	r2, sp, #140	; 0x8c
    7ddc:	4659      	mov	r1, fp
    7dde:	4638      	mov	r0, r7
    7de0:	f000 fc06 	bl	85f0 <__ssprint_r>
    7de4:	2800      	cmp	r0, #0
    7de6:	f47f a9a4 	bne.w	7132 <_svfprintf_r+0x1f2>
    7dea:	9c25      	ldr	r4, [sp, #148]	; 0x94
    7dec:	9b24      	ldr	r3, [sp, #144]	; 0x90
    7dee:	f10d 09c0 	add.w	r9, sp, #192	; 0xc0
    7df2:	e7e5      	b.n	7dc0 <_svfprintf_r+0xe80>
    7df4:	9a24      	ldr	r2, [sp, #144]	; 0x90
    7df6:	9816      	ldr	r0, [sp, #88]	; 0x58
    7df8:	9917      	ldr	r1, [sp, #92]	; 0x5c
    7dfa:	f8c9 1000 	str.w	r1, [r9]
    7dfe:	3201      	adds	r2, #1
    7e00:	4404      	add	r4, r0
    7e02:	2a07      	cmp	r2, #7
    7e04:	9425      	str	r4, [sp, #148]	; 0x94
    7e06:	f8c9 0004 	str.w	r0, [r9, #4]
    7e0a:	9224      	str	r2, [sp, #144]	; 0x90
    7e0c:	f300 82a5 	bgt.w	835a <_svfprintf_r+0x141a>
    7e10:	f109 0908 	add.w	r9, r9, #8
    7e14:	e7a9      	b.n	7d6a <_svfprintf_r+0xe2a>
    7e16:	9b07      	ldr	r3, [sp, #28]
    7e18:	07d8      	lsls	r0, r3, #31
    7e1a:	f53f adf4 	bmi.w	7a06 <_svfprintf_r+0xac6>
    7e1e:	3501      	adds	r5, #1
    7e20:	3401      	adds	r4, #1
    7e22:	2301      	movs	r3, #1
    7e24:	2d07      	cmp	r5, #7
    7e26:	9425      	str	r4, [sp, #148]	; 0x94
    7e28:	9524      	str	r5, [sp, #144]	; 0x90
    7e2a:	f8c9 6000 	str.w	r6, [r9]
    7e2e:	f8c9 3004 	str.w	r3, [r9, #4]
    7e32:	f77f ae1c 	ble.w	7a6e <_svfprintf_r+0xb2e>
    7e36:	e70f      	b.n	7c58 <_svfprintf_r+0xd18>
    7e38:	aa23      	add	r2, sp, #140	; 0x8c
    7e3a:	9909      	ldr	r1, [sp, #36]	; 0x24
    7e3c:	980a      	ldr	r0, [sp, #40]	; 0x28
    7e3e:	f000 fbd7 	bl	85f0 <__ssprint_r>
    7e42:	2800      	cmp	r0, #0
    7e44:	f47f a975 	bne.w	7132 <_svfprintf_r+0x1f2>
    7e48:	9c25      	ldr	r4, [sp, #148]	; 0x94
    7e4a:	9d24      	ldr	r5, [sp, #144]	; 0x90
    7e4c:	f10d 09c0 	add.w	r9, sp, #192	; 0xc0
    7e50:	e5e7      	b.n	7a22 <_svfprintf_r+0xae2>
    7e52:	bf00      	nop
    7e54:	000091ec 	.word	0x000091ec
    7e58:	aa23      	add	r2, sp, #140	; 0x8c
    7e5a:	9909      	ldr	r1, [sp, #36]	; 0x24
    7e5c:	980a      	ldr	r0, [sp, #40]	; 0x28
    7e5e:	f000 fbc7 	bl	85f0 <__ssprint_r>
    7e62:	2800      	cmp	r0, #0
    7e64:	f47f a965 	bne.w	7132 <_svfprintf_r+0x1f2>
    7e68:	9c25      	ldr	r4, [sp, #148]	; 0x94
    7e6a:	9d24      	ldr	r5, [sp, #144]	; 0x90
    7e6c:	f10d 09c0 	add.w	r9, sp, #192	; 0xc0
    7e70:	e5e6      	b.n	7a40 <_svfprintf_r+0xb00>
    7e72:	aa23      	add	r2, sp, #140	; 0x8c
    7e74:	9909      	ldr	r1, [sp, #36]	; 0x24
    7e76:	980a      	ldr	r0, [sp, #40]	; 0x28
    7e78:	f000 fbba 	bl	85f0 <__ssprint_r>
    7e7c:	2800      	cmp	r0, #0
    7e7e:	f47f a958 	bne.w	7132 <_svfprintf_r+0x1f2>
    7e82:	9c25      	ldr	r4, [sp, #148]	; 0x94
    7e84:	f10d 09c0 	add.w	r9, sp, #192	; 0xc0
    7e88:	f7ff ba98 	b.w	73bc <_svfprintf_r+0x47c>
    7e8c:	9907      	ldr	r1, [sp, #28]
    7e8e:	f011 0340 	ands.w	r3, r1, #64	; 0x40
    7e92:	f43f af19 	beq.w	7cc8 <_svfprintf_r+0xd88>
    7e96:	980e      	ldr	r0, [sp, #56]	; 0x38
    7e98:	f88d 206f 	strb.w	r2, [sp, #111]	; 0x6f
    7e9c:	4603      	mov	r3, r0
    7e9e:	f1bb 0f00 	cmp.w	fp, #0
    7ea2:	f103 0304 	add.w	r3, r3, #4
    7ea6:	8804      	ldrh	r4, [r0, #0]
    7ea8:	f04f 0500 	mov.w	r5, #0
    7eac:	f2c0 81b9 	blt.w	8222 <_svfprintf_r+0x12e2>
    7eb0:	f021 0180 	bic.w	r1, r1, #128	; 0x80
    7eb4:	9107      	str	r1, [sp, #28]
    7eb6:	ea54 0105 	orrs.w	r1, r4, r5
    7eba:	930e      	str	r3, [sp, #56]	; 0x38
    7ebc:	4617      	mov	r7, r2
    7ebe:	f47f a9e1 	bne.w	7284 <_svfprintf_r+0x344>
    7ec2:	f7ff bbba 	b.w	763a <_svfprintf_r+0x6fa>
    7ec6:	9c14      	ldr	r4, [sp, #80]	; 0x50
    7ec8:	4622      	mov	r2, r4
    7eca:	4620      	mov	r0, r4
    7ecc:	9c15      	ldr	r4, [sp, #84]	; 0x54
    7ece:	4623      	mov	r3, r4
    7ed0:	4621      	mov	r1, r4
    7ed2:	f7fc fc33 	bl	473c <__aeabi_dcmpun>
    7ed6:	2800      	cmp	r0, #0
    7ed8:	f040 8315 	bne.w	8506 <_svfprintf_r+0x15c6>
    7edc:	9b11      	ldr	r3, [sp, #68]	; 0x44
    7ede:	f1bb 3fff 	cmp.w	fp, #4294967295	; 0xffffffff
    7ee2:	f023 0320 	bic.w	r3, r3, #32
    7ee6:	930d      	str	r3, [sp, #52]	; 0x34
    7ee8:	f000 8276 	beq.w	83d8 <_svfprintf_r+0x1498>
    7eec:	2b47      	cmp	r3, #71	; 0x47
    7eee:	f000 8192 	beq.w	8216 <_svfprintf_r+0x12d6>
    7ef2:	9b07      	ldr	r3, [sp, #28]
    7ef4:	f443 7380 	orr.w	r3, r3, #256	; 0x100
    7ef8:	9310      	str	r3, [sp, #64]	; 0x40
    7efa:	9b15      	ldr	r3, [sp, #84]	; 0x54
    7efc:	1e1f      	subs	r7, r3, #0
    7efe:	9b14      	ldr	r3, [sp, #80]	; 0x50
    7f00:	9308      	str	r3, [sp, #32]
    7f02:	bfbb      	ittet	lt
    7f04:	463b      	movlt	r3, r7
    7f06:	f103 4700 	addlt.w	r7, r3, #2147483648	; 0x80000000
    7f0a:	2300      	movge	r3, #0
    7f0c:	232d      	movlt	r3, #45	; 0x2d
    7f0e:	930f      	str	r3, [sp, #60]	; 0x3c
    7f10:	9b11      	ldr	r3, [sp, #68]	; 0x44
    7f12:	2b66      	cmp	r3, #102	; 0x66
    7f14:	f000 8263 	beq.w	83de <_svfprintf_r+0x149e>
    7f18:	2b46      	cmp	r3, #70	; 0x46
    7f1a:	f000 815e 	beq.w	81da <_svfprintf_r+0x129a>
    7f1e:	9b0d      	ldr	r3, [sp, #52]	; 0x34
    7f20:	9a08      	ldr	r2, [sp, #32]
    7f22:	2b45      	cmp	r3, #69	; 0x45
    7f24:	a821      	add	r0, sp, #132	; 0x84
    7f26:	a91e      	add	r1, sp, #120	; 0x78
    7f28:	bf0c      	ite	eq
    7f2a:	f10b 0501 	addeq.w	r5, fp, #1
    7f2e:	465d      	movne	r5, fp
    7f30:	9004      	str	r0, [sp, #16]
    7f32:	9103      	str	r1, [sp, #12]
    7f34:	a81d      	add	r0, sp, #116	; 0x74
    7f36:	2102      	movs	r1, #2
    7f38:	463b      	mov	r3, r7
    7f3a:	9002      	str	r0, [sp, #8]
    7f3c:	9501      	str	r5, [sp, #4]
    7f3e:	9100      	str	r1, [sp, #0]
    7f40:	980a      	ldr	r0, [sp, #40]	; 0x28
    7f42:	f7fe f8d1 	bl	60e8 <_dtoa_r>
    7f46:	9b11      	ldr	r3, [sp, #68]	; 0x44
    7f48:	2b67      	cmp	r3, #103	; 0x67
    7f4a:	4606      	mov	r6, r0
    7f4c:	f040 827d 	bne.w	844a <_svfprintf_r+0x150a>
    7f50:	9b07      	ldr	r3, [sp, #28]
    7f52:	07da      	lsls	r2, r3, #31
    7f54:	f140 82bf 	bpl.w	84d6 <_svfprintf_r+0x1596>
    7f58:	1974      	adds	r4, r6, r5
    7f5a:	9808      	ldr	r0, [sp, #32]
    7f5c:	4639      	mov	r1, r7
    7f5e:	2200      	movs	r2, #0
    7f60:	2300      	movs	r3, #0
    7f62:	f7fc fbb9 	bl	46d8 <__aeabi_dcmpeq>
    7f66:	2800      	cmp	r0, #0
    7f68:	f040 81a4 	bne.w	82b4 <_svfprintf_r+0x1374>
    7f6c:	9b21      	ldr	r3, [sp, #132]	; 0x84
    7f6e:	429c      	cmp	r4, r3
    7f70:	d906      	bls.n	7f80 <_svfprintf_r+0x1040>
    7f72:	2130      	movs	r1, #48	; 0x30
    7f74:	1c5a      	adds	r2, r3, #1
    7f76:	9221      	str	r2, [sp, #132]	; 0x84
    7f78:	7019      	strb	r1, [r3, #0]
    7f7a:	9b21      	ldr	r3, [sp, #132]	; 0x84
    7f7c:	429c      	cmp	r4, r3
    7f7e:	d8f9      	bhi.n	7f74 <_svfprintf_r+0x1034>
    7f80:	1b9b      	subs	r3, r3, r6
    7f82:	9312      	str	r3, [sp, #72]	; 0x48
    7f84:	9b0d      	ldr	r3, [sp, #52]	; 0x34
    7f86:	2b47      	cmp	r3, #71	; 0x47
    7f88:	f000 8181 	beq.w	828e <_svfprintf_r+0x134e>
    7f8c:	9b11      	ldr	r3, [sp, #68]	; 0x44
    7f8e:	2b65      	cmp	r3, #101	; 0x65
    7f90:	f340 826a 	ble.w	8468 <_svfprintf_r+0x1528>
    7f94:	9b11      	ldr	r3, [sp, #68]	; 0x44
    7f96:	2b66      	cmp	r3, #102	; 0x66
    7f98:	9b1d      	ldr	r3, [sp, #116]	; 0x74
    7f9a:	9313      	str	r3, [sp, #76]	; 0x4c
    7f9c:	f000 8247 	beq.w	842e <_svfprintf_r+0x14ee>
    7fa0:	9a13      	ldr	r2, [sp, #76]	; 0x4c
    7fa2:	9912      	ldr	r1, [sp, #72]	; 0x48
    7fa4:	428a      	cmp	r2, r1
    7fa6:	f2c0 8236 	blt.w	8416 <_svfprintf_r+0x14d6>
    7faa:	9b07      	ldr	r3, [sp, #28]
    7fac:	07d9      	lsls	r1, r3, #31
    7fae:	f100 8289 	bmi.w	84c4 <_svfprintf_r+0x1584>
    7fb2:	ea22 73e2 	bic.w	r3, r2, r2, asr #31
    7fb6:	920d      	str	r2, [sp, #52]	; 0x34
    7fb8:	2267      	movs	r2, #103	; 0x67
    7fba:	9211      	str	r2, [sp, #68]	; 0x44
    7fbc:	9a0f      	ldr	r2, [sp, #60]	; 0x3c
    7fbe:	2a00      	cmp	r2, #0
    7fc0:	f040 815b 	bne.w	827a <_svfprintf_r+0x133a>
    7fc4:	9308      	str	r3, [sp, #32]
    7fc6:	9b10      	ldr	r3, [sp, #64]	; 0x40
    7fc8:	9307      	str	r3, [sp, #28]
    7fca:	4693      	mov	fp, r2
    7fcc:	f89d 706f 	ldrb.w	r7, [sp, #111]	; 0x6f
    7fd0:	f7ff b97c 	b.w	72cc <_svfprintf_r+0x38c>
    7fd4:	9b07      	ldr	r3, [sp, #28]
    7fd6:	06df      	lsls	r7, r3, #27
    7fd8:	d40b      	bmi.n	7ff2 <_svfprintf_r+0x10b2>
    7fda:	9b07      	ldr	r3, [sp, #28]
    7fdc:	065e      	lsls	r6, r3, #25
    7fde:	d508      	bpl.n	7ff2 <_svfprintf_r+0x10b2>
    7fe0:	9a0e      	ldr	r2, [sp, #56]	; 0x38
    7fe2:	6813      	ldr	r3, [r2, #0]
    7fe4:	3204      	adds	r2, #4
    7fe6:	920e      	str	r2, [sp, #56]	; 0x38
    7fe8:	f8bd 202c 	ldrh.w	r2, [sp, #44]	; 0x2c
    7fec:	801a      	strh	r2, [r3, #0]
    7fee:	f7fe bfcd 	b.w	6f8c <_svfprintf_r+0x4c>
    7ff2:	9a0e      	ldr	r2, [sp, #56]	; 0x38
    7ff4:	6813      	ldr	r3, [r2, #0]
    7ff6:	3204      	adds	r2, #4
    7ff8:	920e      	str	r2, [sp, #56]	; 0x38
    7ffa:	9a0b      	ldr	r2, [sp, #44]	; 0x2c
    7ffc:	601a      	str	r2, [r3, #0]
    7ffe:	f7fe bfc5 	b.w	6f8c <_svfprintf_r+0x4c>
    8002:	9b07      	ldr	r3, [sp, #28]
    8004:	9a0e      	ldr	r2, [sp, #56]	; 0x38
    8006:	f013 0f40 	tst.w	r3, #64	; 0x40
    800a:	4613      	mov	r3, r2
    800c:	f000 810e 	beq.w	822c <_svfprintf_r+0x12ec>
    8010:	3304      	adds	r3, #4
    8012:	8814      	ldrh	r4, [r2, #0]
    8014:	930e      	str	r3, [sp, #56]	; 0x38
    8016:	2500      	movs	r5, #0
    8018:	f7ff bb2c 	b.w	7674 <_svfprintf_r+0x734>
    801c:	9907      	ldr	r1, [sp, #28]
    801e:	f011 0340 	ands.w	r3, r1, #64	; 0x40
    8022:	d017      	beq.n	8054 <_svfprintf_r+0x1114>
    8024:	980e      	ldr	r0, [sp, #56]	; 0x38
    8026:	f88d 206f 	strb.w	r2, [sp, #111]	; 0x6f
    802a:	4603      	mov	r3, r0
    802c:	f1bb 0f00 	cmp.w	fp, #0
    8030:	f103 0304 	add.w	r3, r3, #4
    8034:	8804      	ldrh	r4, [r0, #0]
    8036:	f04f 0500 	mov.w	r5, #0
    803a:	f2c0 80f5 	blt.w	8228 <_svfprintf_r+0x12e8>
    803e:	f021 0180 	bic.w	r1, r1, #128	; 0x80
    8042:	9107      	str	r1, [sp, #28]
    8044:	ea54 0105 	orrs.w	r1, r4, r5
    8048:	930e      	str	r3, [sp, #56]	; 0x38
    804a:	f43f ac13 	beq.w	7874 <_svfprintf_r+0x934>
    804e:	4617      	mov	r7, r2
    8050:	f7ff b89b 	b.w	718a <_svfprintf_r+0x24a>
    8054:	990e      	ldr	r1, [sp, #56]	; 0x38
    8056:	f88d 306f 	strb.w	r3, [sp, #111]	; 0x6f
    805a:	f1bb 0f00 	cmp.w	fp, #0
    805e:	680c      	ldr	r4, [r1, #0]
    8060:	f101 0704 	add.w	r7, r1, #4
    8064:	f04f 0500 	mov.w	r5, #0
    8068:	f280 8081 	bge.w	816e <_svfprintf_r+0x122e>
    806c:	970e      	str	r7, [sp, #56]	; 0x38
    806e:	2700      	movs	r7, #0
    8070:	f7ff b88b 	b.w	718a <_svfprintf_r+0x24a>
    8074:	4614      	mov	r4, r2
    8076:	3301      	adds	r3, #1
    8078:	9a0f      	ldr	r2, [sp, #60]	; 0x3c
    807a:	9324      	str	r3, [sp, #144]	; 0x90
    807c:	442c      	add	r4, r5
    807e:	2b07      	cmp	r3, #7
    8080:	9425      	str	r4, [sp, #148]	; 0x94
    8082:	e889 0024 	stmia.w	r9, {r2, r5}
    8086:	f73f ae5b 	bgt.w	7d40 <_svfprintf_r+0xe00>
    808a:	f109 0908 	add.w	r9, r9, #8
    808e:	e662      	b.n	7d56 <_svfprintf_r+0xe16>
    8090:	2700      	movs	r7, #0
    8092:	45bb      	cmp	fp, r7
    8094:	f88d 706f 	strb.w	r7, [sp, #111]	; 0x6f
    8098:	f6ff abfe 	blt.w	7898 <_svfprintf_r+0x958>
    809c:	9b07      	ldr	r3, [sp, #28]
    809e:	f023 0380 	bic.w	r3, r3, #128	; 0x80
    80a2:	9307      	str	r3, [sp, #28]
    80a4:	f7ff bbc6 	b.w	7834 <_svfprintf_r+0x8f4>
    80a8:	aa23      	add	r2, sp, #140	; 0x8c
    80aa:	9909      	ldr	r1, [sp, #36]	; 0x24
    80ac:	980a      	ldr	r0, [sp, #40]	; 0x28
    80ae:	f000 fa9f 	bl	85f0 <__ssprint_r>
    80b2:	2800      	cmp	r0, #0
    80b4:	f47f a83d 	bne.w	7132 <_svfprintf_r+0x1f2>
    80b8:	9c25      	ldr	r4, [sp, #148]	; 0x94
    80ba:	f10d 09c0 	add.w	r9, sp, #192	; 0xc0
    80be:	e40d      	b.n	78dc <_svfprintf_r+0x99c>
    80c0:	9f0e      	ldr	r7, [sp, #56]	; 0x38
    80c2:	f7ff bbe2 	b.w	788a <_svfprintf_r+0x94a>
    80c6:	9b24      	ldr	r3, [sp, #144]	; 0x90
    80c8:	4ab1      	ldr	r2, [pc, #708]	; (8390 <_svfprintf_r+0x1450>)
    80ca:	f8c9 2000 	str.w	r2, [r9]
    80ce:	3301      	adds	r3, #1
    80d0:	3401      	adds	r4, #1
    80d2:	2201      	movs	r2, #1
    80d4:	2b07      	cmp	r3, #7
    80d6:	9425      	str	r4, [sp, #148]	; 0x94
    80d8:	9324      	str	r3, [sp, #144]	; 0x90
    80da:	f8c9 2004 	str.w	r2, [r9, #4]
    80de:	dc6f      	bgt.n	81c0 <_svfprintf_r+0x1280>
    80e0:	f109 0908 	add.w	r9, r9, #8
    80e4:	b92d      	cbnz	r5, 80f2 <_svfprintf_r+0x11b2>
    80e6:	9b12      	ldr	r3, [sp, #72]	; 0x48
    80e8:	b91b      	cbnz	r3, 80f2 <_svfprintf_r+0x11b2>
    80ea:	9b07      	ldr	r3, [sp, #28]
    80ec:	07df      	lsls	r7, r3, #31
    80ee:	f57f a9b7 	bpl.w	7460 <_svfprintf_r+0x520>
    80f2:	9b24      	ldr	r3, [sp, #144]	; 0x90
    80f4:	9916      	ldr	r1, [sp, #88]	; 0x58
    80f6:	9a17      	ldr	r2, [sp, #92]	; 0x5c
    80f8:	f8c9 2000 	str.w	r2, [r9]
    80fc:	3301      	adds	r3, #1
    80fe:	440c      	add	r4, r1
    8100:	2b07      	cmp	r3, #7
    8102:	9425      	str	r4, [sp, #148]	; 0x94
    8104:	f8c9 1004 	str.w	r1, [r9, #4]
    8108:	9324      	str	r3, [sp, #144]	; 0x90
    810a:	f300 81c9 	bgt.w	84a0 <_svfprintf_r+0x1560>
    810e:	f109 0908 	add.w	r9, r9, #8
    8112:	426d      	negs	r5, r5
    8114:	2d00      	cmp	r5, #0
    8116:	f340 80a3 	ble.w	8260 <_svfprintf_r+0x1320>
    811a:	4a9e      	ldr	r2, [pc, #632]	; (8394 <_svfprintf_r+0x1454>)
    811c:	920f      	str	r2, [sp, #60]	; 0x3c
    811e:	2d10      	cmp	r5, #16
    8120:	f340 8129 	ble.w	8376 <_svfprintf_r+0x1436>
    8124:	4622      	mov	r2, r4
    8126:	2710      	movs	r7, #16
    8128:	f8dd b028 	ldr.w	fp, [sp, #40]	; 0x28
    812c:	9c09      	ldr	r4, [sp, #36]	; 0x24
    812e:	e005      	b.n	813c <_svfprintf_r+0x11fc>
    8130:	f109 0908 	add.w	r9, r9, #8
    8134:	3d10      	subs	r5, #16
    8136:	2d10      	cmp	r5, #16
    8138:	f340 811c 	ble.w	8374 <_svfprintf_r+0x1434>
    813c:	3301      	adds	r3, #1
    813e:	3210      	adds	r2, #16
    8140:	2b07      	cmp	r3, #7
    8142:	9225      	str	r2, [sp, #148]	; 0x94
    8144:	9324      	str	r3, [sp, #144]	; 0x90
    8146:	f8c9 a000 	str.w	sl, [r9]
    814a:	f8c9 7004 	str.w	r7, [r9, #4]
    814e:	ddef      	ble.n	8130 <_svfprintf_r+0x11f0>
    8150:	aa23      	add	r2, sp, #140	; 0x8c
    8152:	4621      	mov	r1, r4
    8154:	4658      	mov	r0, fp
    8156:	f000 fa4b 	bl	85f0 <__ssprint_r>
    815a:	2800      	cmp	r0, #0
    815c:	f47e afe9 	bne.w	7132 <_svfprintf_r+0x1f2>
    8160:	9a25      	ldr	r2, [sp, #148]	; 0x94
    8162:	9b24      	ldr	r3, [sp, #144]	; 0x90
    8164:	f10d 09c0 	add.w	r9, sp, #192	; 0xc0
    8168:	e7e4      	b.n	8134 <_svfprintf_r+0x11f4>
    816a:	9a07      	ldr	r2, [sp, #28]
    816c:	e592      	b.n	7c94 <_svfprintf_r+0xd54>
    816e:	9a07      	ldr	r2, [sp, #28]
    8170:	f7ff ba35 	b.w	75de <_svfprintf_r+0x69e>
    8174:	9b07      	ldr	r3, [sp, #28]
    8176:	f043 0320 	orr.w	r3, r3, #32
    817a:	9307      	str	r3, [sp, #28]
    817c:	f108 0801 	add.w	r8, r8, #1
    8180:	f898 3000 	ldrb.w	r3, [r8]
    8184:	f7fe bf35 	b.w	6ff2 <_svfprintf_r+0xb2>
    8188:	aa23      	add	r2, sp, #140	; 0x8c
    818a:	9909      	ldr	r1, [sp, #36]	; 0x24
    818c:	980a      	ldr	r0, [sp, #40]	; 0x28
    818e:	f000 fa2f 	bl	85f0 <__ssprint_r>
    8192:	2800      	cmp	r0, #0
    8194:	f47e afcd 	bne.w	7132 <_svfprintf_r+0x1f2>
    8198:	9c25      	ldr	r4, [sp, #148]	; 0x94
    819a:	f10d 09c0 	add.w	r9, sp, #192	; 0xc0
    819e:	f7ff bbb5 	b.w	790c <_svfprintf_r+0x9cc>
    81a2:	2140      	movs	r1, #64	; 0x40
    81a4:	980a      	ldr	r0, [sp, #40]	; 0x28
    81a6:	f7fc fb29 	bl	47fc <_malloc_r>
    81aa:	9a09      	ldr	r2, [sp, #36]	; 0x24
    81ac:	6010      	str	r0, [r2, #0]
    81ae:	6110      	str	r0, [r2, #16]
    81b0:	2800      	cmp	r0, #0
    81b2:	f000 81f3 	beq.w	859c <_svfprintf_r+0x165c>
    81b6:	9a09      	ldr	r2, [sp, #36]	; 0x24
    81b8:	2340      	movs	r3, #64	; 0x40
    81ba:	6153      	str	r3, [r2, #20]
    81bc:	f7fe bed7 	b.w	6f6e <_svfprintf_r+0x2e>
    81c0:	aa23      	add	r2, sp, #140	; 0x8c
    81c2:	9909      	ldr	r1, [sp, #36]	; 0x24
    81c4:	980a      	ldr	r0, [sp, #40]	; 0x28
    81c6:	f000 fa13 	bl	85f0 <__ssprint_r>
    81ca:	2800      	cmp	r0, #0
    81cc:	f47e afb1 	bne.w	7132 <_svfprintf_r+0x1f2>
    81d0:	9d1d      	ldr	r5, [sp, #116]	; 0x74
    81d2:	9c25      	ldr	r4, [sp, #148]	; 0x94
    81d4:	f10d 09c0 	add.w	r9, sp, #192	; 0xc0
    81d8:	e784      	b.n	80e4 <_svfprintf_r+0x11a4>
    81da:	a821      	add	r0, sp, #132	; 0x84
    81dc:	a91e      	add	r1, sp, #120	; 0x78
    81de:	9004      	str	r0, [sp, #16]
    81e0:	9103      	str	r1, [sp, #12]
    81e2:	a81d      	add	r0, sp, #116	; 0x74
    81e4:	2103      	movs	r1, #3
    81e6:	9002      	str	r0, [sp, #8]
    81e8:	9a08      	ldr	r2, [sp, #32]
    81ea:	f8cd b004 	str.w	fp, [sp, #4]
    81ee:	463b      	mov	r3, r7
    81f0:	9100      	str	r1, [sp, #0]
    81f2:	980a      	ldr	r0, [sp, #40]	; 0x28
    81f4:	f7fd ff78 	bl	60e8 <_dtoa_r>
    81f8:	465d      	mov	r5, fp
    81fa:	4606      	mov	r6, r0
    81fc:	9b11      	ldr	r3, [sp, #68]	; 0x44
    81fe:	2b46      	cmp	r3, #70	; 0x46
    8200:	eb06 0405 	add.w	r4, r6, r5
    8204:	f47f aea9 	bne.w	7f5a <_svfprintf_r+0x101a>
    8208:	7833      	ldrb	r3, [r6, #0]
    820a:	2b30      	cmp	r3, #48	; 0x30
    820c:	f000 816d 	beq.w	84ea <_svfprintf_r+0x15aa>
    8210:	9d1d      	ldr	r5, [sp, #116]	; 0x74
    8212:	442c      	add	r4, r5
    8214:	e6a1      	b.n	7f5a <_svfprintf_r+0x101a>
    8216:	f1bb 0f00 	cmp.w	fp, #0
    821a:	bf08      	it	eq
    821c:	f04f 0b01 	moveq.w	fp, #1
    8220:	e667      	b.n	7ef2 <_svfprintf_r+0xfb2>
    8222:	930e      	str	r3, [sp, #56]	; 0x38
    8224:	4617      	mov	r7, r2
    8226:	e55d      	b.n	7ce4 <_svfprintf_r+0xda4>
    8228:	930e      	str	r3, [sp, #56]	; 0x38
    822a:	e720      	b.n	806e <_svfprintf_r+0x112e>
    822c:	3304      	adds	r3, #4
    822e:	6814      	ldr	r4, [r2, #0]
    8230:	930e      	str	r3, [sp, #56]	; 0x38
    8232:	2500      	movs	r5, #0
    8234:	f7ff ba1e 	b.w	7674 <_svfprintf_r+0x734>
    8238:	4630      	mov	r0, r6
    823a:	f7fd f881 	bl	5340 <strlen>
    823e:	46a3      	mov	fp, r4
    8240:	4603      	mov	r3, r0
    8242:	900d      	str	r0, [sp, #52]	; 0x34
    8244:	f7ff baeb 	b.w	781e <_svfprintf_r+0x8de>
    8248:	aa23      	add	r2, sp, #140	; 0x8c
    824a:	9909      	ldr	r1, [sp, #36]	; 0x24
    824c:	980a      	ldr	r0, [sp, #40]	; 0x28
    824e:	f000 f9cf 	bl	85f0 <__ssprint_r>
    8252:	2800      	cmp	r0, #0
    8254:	f47e af6d 	bne.w	7132 <_svfprintf_r+0x1f2>
    8258:	9c25      	ldr	r4, [sp, #148]	; 0x94
    825a:	9b24      	ldr	r3, [sp, #144]	; 0x90
    825c:	f10d 09c0 	add.w	r9, sp, #192	; 0xc0
    8260:	9912      	ldr	r1, [sp, #72]	; 0x48
    8262:	f8c9 6000 	str.w	r6, [r9]
    8266:	3301      	adds	r3, #1
    8268:	440c      	add	r4, r1
    826a:	2b07      	cmp	r3, #7
    826c:	9425      	str	r4, [sp, #148]	; 0x94
    826e:	9324      	str	r3, [sp, #144]	; 0x90
    8270:	f8c9 1004 	str.w	r1, [r9, #4]
    8274:	f77f a8f2 	ble.w	745c <_svfprintf_r+0x51c>
    8278:	e408      	b.n	7a8c <_svfprintf_r+0xb4c>
    827a:	272d      	movs	r7, #45	; 0x2d
    827c:	9308      	str	r3, [sp, #32]
    827e:	9b10      	ldr	r3, [sp, #64]	; 0x40
    8280:	9307      	str	r3, [sp, #28]
    8282:	f88d 706f 	strb.w	r7, [sp, #111]	; 0x6f
    8286:	f04f 0b00 	mov.w	fp, #0
    828a:	f7ff b820 	b.w	72ce <_svfprintf_r+0x38e>
    828e:	9b1d      	ldr	r3, [sp, #116]	; 0x74
    8290:	1cdd      	adds	r5, r3, #3
    8292:	db11      	blt.n	82b8 <_svfprintf_r+0x1378>
    8294:	459b      	cmp	fp, r3
    8296:	db0f      	blt.n	82b8 <_svfprintf_r+0x1378>
    8298:	9313      	str	r3, [sp, #76]	; 0x4c
    829a:	e681      	b.n	7fa0 <_svfprintf_r+0x1060>
    829c:	aa23      	add	r2, sp, #140	; 0x8c
    829e:	9909      	ldr	r1, [sp, #36]	; 0x24
    82a0:	980a      	ldr	r0, [sp, #40]	; 0x28
    82a2:	f000 f9a5 	bl	85f0 <__ssprint_r>
    82a6:	2800      	cmp	r0, #0
    82a8:	f47e af43 	bne.w	7132 <_svfprintf_r+0x1f2>
    82ac:	9c25      	ldr	r4, [sp, #148]	; 0x94
    82ae:	f10d 09c0 	add.w	r9, sp, #192	; 0xc0
    82b2:	e452      	b.n	7b5a <_svfprintf_r+0xc1a>
    82b4:	4623      	mov	r3, r4
    82b6:	e663      	b.n	7f80 <_svfprintf_r+0x1040>
    82b8:	9a11      	ldr	r2, [sp, #68]	; 0x44
    82ba:	3a02      	subs	r2, #2
    82bc:	9211      	str	r2, [sp, #68]	; 0x44
    82be:	3b01      	subs	r3, #1
    82c0:	2b00      	cmp	r3, #0
    82c2:	f89d 2044 	ldrb.w	r2, [sp, #68]	; 0x44
    82c6:	931d      	str	r3, [sp, #116]	; 0x74
    82c8:	bfb8      	it	lt
    82ca:	425b      	neglt	r3, r3
    82cc:	f88d 207c 	strb.w	r2, [sp, #124]	; 0x7c
    82d0:	bfb4      	ite	lt
    82d2:	222d      	movlt	r2, #45	; 0x2d
    82d4:	222b      	movge	r2, #43	; 0x2b
    82d6:	2b09      	cmp	r3, #9
    82d8:	f88d 207d 	strb.w	r2, [sp, #125]	; 0x7d
    82dc:	f340 80fd 	ble.w	84da <_svfprintf_r+0x159a>
    82e0:	f10d 008b 	add.w	r0, sp, #139	; 0x8b
    82e4:	4604      	mov	r4, r0
    82e6:	4a2c      	ldr	r2, [pc, #176]	; (8398 <_svfprintf_r+0x1458>)
    82e8:	fb82 2103 	smull	r2, r1, r2, r3
    82ec:	17da      	asrs	r2, r3, #31
    82ee:	ebc2 02a1 	rsb	r2, r2, r1, asr #2
    82f2:	eb02 0182 	add.w	r1, r2, r2, lsl #2
    82f6:	eba3 0341 	sub.w	r3, r3, r1, lsl #1
    82fa:	f103 0130 	add.w	r1, r3, #48	; 0x30
    82fe:	2a09      	cmp	r2, #9
    8300:	4613      	mov	r3, r2
    8302:	f804 1d01 	strb.w	r1, [r4, #-1]!
    8306:	dcee      	bgt.n	82e6 <_svfprintf_r+0x13a6>
    8308:	4621      	mov	r1, r4
    830a:	3330      	adds	r3, #48	; 0x30
    830c:	b2da      	uxtb	r2, r3
    830e:	f801 2d01 	strb.w	r2, [r1, #-1]!
    8312:	4288      	cmp	r0, r1
    8314:	f240 813f 	bls.w	8596 <_svfprintf_r+0x1656>
    8318:	f10d 017e 	add.w	r1, sp, #126	; 0x7e
    831c:	4623      	mov	r3, r4
    831e:	e001      	b.n	8324 <_svfprintf_r+0x13e4>
    8320:	f813 2b01 	ldrb.w	r2, [r3], #1
    8324:	f801 2b01 	strb.w	r2, [r1], #1
    8328:	4298      	cmp	r0, r3
    832a:	d1f9      	bne.n	8320 <_svfprintf_r+0x13e0>
    832c:	1c43      	adds	r3, r0, #1
    832e:	1b1b      	subs	r3, r3, r4
    8330:	f10d 027e 	add.w	r2, sp, #126	; 0x7e
    8334:	4413      	add	r3, r2
    8336:	aa1f      	add	r2, sp, #124	; 0x7c
    8338:	1a9b      	subs	r3, r3, r2
    833a:	9a12      	ldr	r2, [sp, #72]	; 0x48
    833c:	9319      	str	r3, [sp, #100]	; 0x64
    833e:	2a01      	cmp	r2, #1
    8340:	4413      	add	r3, r2
    8342:	930d      	str	r3, [sp, #52]	; 0x34
    8344:	f340 80f6 	ble.w	8534 <_svfprintf_r+0x15f4>
    8348:	9b0d      	ldr	r3, [sp, #52]	; 0x34
    834a:	9a16      	ldr	r2, [sp, #88]	; 0x58
    834c:	4413      	add	r3, r2
    834e:	2200      	movs	r2, #0
    8350:	930d      	str	r3, [sp, #52]	; 0x34
    8352:	9213      	str	r2, [sp, #76]	; 0x4c
    8354:	ea23 73e3 	bic.w	r3, r3, r3, asr #31
    8358:	e630      	b.n	7fbc <_svfprintf_r+0x107c>
    835a:	aa23      	add	r2, sp, #140	; 0x8c
    835c:	9909      	ldr	r1, [sp, #36]	; 0x24
    835e:	980a      	ldr	r0, [sp, #40]	; 0x28
    8360:	f000 f946 	bl	85f0 <__ssprint_r>
    8364:	2800      	cmp	r0, #0
    8366:	f47e aee4 	bne.w	7132 <_svfprintf_r+0x1f2>
    836a:	9b1d      	ldr	r3, [sp, #116]	; 0x74
    836c:	9c25      	ldr	r4, [sp, #148]	; 0x94
    836e:	f10d 09c0 	add.w	r9, sp, #192	; 0xc0
    8372:	e4fa      	b.n	7d6a <_svfprintf_r+0xe2a>
    8374:	4614      	mov	r4, r2
    8376:	3301      	adds	r3, #1
    8378:	9a0f      	ldr	r2, [sp, #60]	; 0x3c
    837a:	9324      	str	r3, [sp, #144]	; 0x90
    837c:	442c      	add	r4, r5
    837e:	2b07      	cmp	r3, #7
    8380:	9425      	str	r4, [sp, #148]	; 0x94
    8382:	e889 0024 	stmia.w	r9, {r2, r5}
    8386:	f73f af5f 	bgt.w	8248 <_svfprintf_r+0x1308>
    838a:	f109 0908 	add.w	r9, r9, #8
    838e:	e767      	b.n	8260 <_svfprintf_r+0x1320>
    8390:	000091e8 	.word	0x000091e8
    8394:	000091ec 	.word	0x000091ec
    8398:	66666667 	.word	0x66666667
    839c:	2d06      	cmp	r5, #6
    839e:	462b      	mov	r3, r5
    83a0:	bf28      	it	cs
    83a2:	2306      	movcs	r3, #6
    83a4:	930d      	str	r3, [sp, #52]	; 0x34
    83a6:	ea23 73e3 	bic.w	r3, r3, r3, asr #31
    83aa:	46b3      	mov	fp, r6
    83ac:	970e      	str	r7, [sp, #56]	; 0x38
    83ae:	9613      	str	r6, [sp, #76]	; 0x4c
    83b0:	4637      	mov	r7, r6
    83b2:	9308      	str	r3, [sp, #32]
    83b4:	4e8b      	ldr	r6, [pc, #556]	; (85e4 <_svfprintf_r+0x16a4>)
    83b6:	f7fe bf89 	b.w	72cc <_svfprintf_r+0x38c>
    83ba:	aa23      	add	r2, sp, #140	; 0x8c
    83bc:	9909      	ldr	r1, [sp, #36]	; 0x24
    83be:	980a      	ldr	r0, [sp, #40]	; 0x28
    83c0:	f000 f916 	bl	85f0 <__ssprint_r>
    83c4:	2800      	cmp	r0, #0
    83c6:	f47e aeb4 	bne.w	7132 <_svfprintf_r+0x1f2>
    83ca:	9b1d      	ldr	r3, [sp, #116]	; 0x74
    83cc:	9a12      	ldr	r2, [sp, #72]	; 0x48
    83ce:	9c25      	ldr	r4, [sp, #148]	; 0x94
    83d0:	1ad3      	subs	r3, r2, r3
    83d2:	f10d 09c0 	add.w	r9, sp, #192	; 0xc0
    83d6:	e4e0      	b.n	7d9a <_svfprintf_r+0xe5a>
    83d8:	f04f 0b06 	mov.w	fp, #6
    83dc:	e589      	b.n	7ef2 <_svfprintf_r+0xfb2>
    83de:	a821      	add	r0, sp, #132	; 0x84
    83e0:	a91e      	add	r1, sp, #120	; 0x78
    83e2:	9004      	str	r0, [sp, #16]
    83e4:	9103      	str	r1, [sp, #12]
    83e6:	a81d      	add	r0, sp, #116	; 0x74
    83e8:	2103      	movs	r1, #3
    83ea:	9002      	str	r0, [sp, #8]
    83ec:	9a08      	ldr	r2, [sp, #32]
    83ee:	f8cd b004 	str.w	fp, [sp, #4]
    83f2:	463b      	mov	r3, r7
    83f4:	9100      	str	r1, [sp, #0]
    83f6:	980a      	ldr	r0, [sp, #40]	; 0x28
    83f8:	f7fd fe76 	bl	60e8 <_dtoa_r>
    83fc:	465d      	mov	r5, fp
    83fe:	4606      	mov	r6, r0
    8400:	eb00 040b 	add.w	r4, r0, fp
    8404:	e700      	b.n	8208 <_svfprintf_r+0x12c8>
    8406:	272d      	movs	r7, #45	; 0x2d
    8408:	f88d 706f 	strb.w	r7, [sp, #111]	; 0x6f
    840c:	f7ff b8ae 	b.w	756c <_svfprintf_r+0x62c>
    8410:	9307      	str	r3, [sp, #28]
    8412:	f7ff b94d 	b.w	76b0 <_svfprintf_r+0x770>
    8416:	9a16      	ldr	r2, [sp, #88]	; 0x58
    8418:	9b12      	ldr	r3, [sp, #72]	; 0x48
    841a:	4413      	add	r3, r2
    841c:	9a13      	ldr	r2, [sp, #76]	; 0x4c
    841e:	930d      	str	r3, [sp, #52]	; 0x34
    8420:	2a00      	cmp	r2, #0
    8422:	dd7f      	ble.n	8524 <_svfprintf_r+0x15e4>
    8424:	2267      	movs	r2, #103	; 0x67
    8426:	ea23 73e3 	bic.w	r3, r3, r3, asr #31
    842a:	9211      	str	r2, [sp, #68]	; 0x44
    842c:	e5c6      	b.n	7fbc <_svfprintf_r+0x107c>
    842e:	2b00      	cmp	r3, #0
    8430:	f340 8098 	ble.w	8564 <_svfprintf_r+0x1624>
    8434:	f1bb 0f00 	cmp.w	fp, #0
    8438:	d16b      	bne.n	8512 <_svfprintf_r+0x15d2>
    843a:	9a07      	ldr	r2, [sp, #28]
    843c:	07d4      	lsls	r4, r2, #31
    843e:	d468      	bmi.n	8512 <_svfprintf_r+0x15d2>
    8440:	461a      	mov	r2, r3
    8442:	920d      	str	r2, [sp, #52]	; 0x34
    8444:	ea23 73e3 	bic.w	r3, r3, r3, asr #31
    8448:	e5b8      	b.n	7fbc <_svfprintf_r+0x107c>
    844a:	9b11      	ldr	r3, [sp, #68]	; 0x44
    844c:	2b47      	cmp	r3, #71	; 0x47
    844e:	f47f ad83 	bne.w	7f58 <_svfprintf_r+0x1018>
    8452:	9b07      	ldr	r3, [sp, #28]
    8454:	07db      	lsls	r3, r3, #31
    8456:	f53f aed1 	bmi.w	81fc <_svfprintf_r+0x12bc>
    845a:	9b21      	ldr	r3, [sp, #132]	; 0x84
    845c:	1b9b      	subs	r3, r3, r6
    845e:	9312      	str	r3, [sp, #72]	; 0x48
    8460:	9b0d      	ldr	r3, [sp, #52]	; 0x34
    8462:	2b47      	cmp	r3, #71	; 0x47
    8464:	f43f af13 	beq.w	828e <_svfprintf_r+0x134e>
    8468:	9b1d      	ldr	r3, [sp, #116]	; 0x74
    846a:	e728      	b.n	82be <_svfprintf_r+0x137e>
    846c:	ea25 73e5 	bic.w	r3, r5, r5, asr #31
    8470:	970e      	str	r7, [sp, #56]	; 0x38
    8472:	9308      	str	r3, [sp, #32]
    8474:	950d      	str	r5, [sp, #52]	; 0x34
    8476:	4683      	mov	fp, r0
    8478:	9013      	str	r0, [sp, #76]	; 0x4c
    847a:	f89d 706f 	ldrb.w	r7, [sp, #111]	; 0x6f
    847e:	f7fe bf25 	b.w	72cc <_svfprintf_r+0x38c>
    8482:	9b07      	ldr	r3, [sp, #28]
    8484:	07db      	lsls	r3, r3, #31
    8486:	465f      	mov	r7, fp
    8488:	d505      	bpl.n	8496 <_svfprintf_r+0x1556>
    848a:	ae40      	add	r6, sp, #256	; 0x100
    848c:	2330      	movs	r3, #48	; 0x30
    848e:	f806 3d41 	strb.w	r3, [r6, #-65]!
    8492:	f7fe bf11 	b.w	72b8 <_svfprintf_r+0x378>
    8496:	f8cd b034 	str.w	fp, [sp, #52]	; 0x34
    849a:	ae30      	add	r6, sp, #192	; 0xc0
    849c:	f7fe bf0f 	b.w	72be <_svfprintf_r+0x37e>
    84a0:	aa23      	add	r2, sp, #140	; 0x8c
    84a2:	9909      	ldr	r1, [sp, #36]	; 0x24
    84a4:	980a      	ldr	r0, [sp, #40]	; 0x28
    84a6:	f000 f8a3 	bl	85f0 <__ssprint_r>
    84aa:	2800      	cmp	r0, #0
    84ac:	f47e ae41 	bne.w	7132 <_svfprintf_r+0x1f2>
    84b0:	9d1d      	ldr	r5, [sp, #116]	; 0x74
    84b2:	9c25      	ldr	r4, [sp, #148]	; 0x94
    84b4:	9b24      	ldr	r3, [sp, #144]	; 0x90
    84b6:	f10d 09c0 	add.w	r9, sp, #192	; 0xc0
    84ba:	e62a      	b.n	8112 <_svfprintf_r+0x11d2>
    84bc:	46a0      	mov	r8, r4
    84be:	2500      	movs	r5, #0
    84c0:	f7fe bd99 	b.w	6ff6 <_svfprintf_r+0xb6>
    84c4:	9a16      	ldr	r2, [sp, #88]	; 0x58
    84c6:	9b13      	ldr	r3, [sp, #76]	; 0x4c
    84c8:	4413      	add	r3, r2
    84ca:	2267      	movs	r2, #103	; 0x67
    84cc:	930d      	str	r3, [sp, #52]	; 0x34
    84ce:	9211      	str	r2, [sp, #68]	; 0x44
    84d0:	ea23 73e3 	bic.w	r3, r3, r3, asr #31
    84d4:	e572      	b.n	7fbc <_svfprintf_r+0x107c>
    84d6:	9b21      	ldr	r3, [sp, #132]	; 0x84
    84d8:	e552      	b.n	7f80 <_svfprintf_r+0x1040>
    84da:	3330      	adds	r3, #48	; 0x30
    84dc:	2230      	movs	r2, #48	; 0x30
    84de:	f88d 307f 	strb.w	r3, [sp, #127]	; 0x7f
    84e2:	f88d 207e 	strb.w	r2, [sp, #126]	; 0x7e
    84e6:	ab20      	add	r3, sp, #128	; 0x80
    84e8:	e725      	b.n	8336 <_svfprintf_r+0x13f6>
    84ea:	9808      	ldr	r0, [sp, #32]
    84ec:	4639      	mov	r1, r7
    84ee:	2200      	movs	r2, #0
    84f0:	2300      	movs	r3, #0
    84f2:	f7fc f8f1 	bl	46d8 <__aeabi_dcmpeq>
    84f6:	2800      	cmp	r0, #0
    84f8:	f47f ae8a 	bne.w	8210 <_svfprintf_r+0x12d0>
    84fc:	f1c5 0501 	rsb	r5, r5, #1
    8500:	951d      	str	r5, [sp, #116]	; 0x74
    8502:	442c      	add	r4, r5
    8504:	e529      	b.n	7f5a <_svfprintf_r+0x101a>
    8506:	4e38      	ldr	r6, [pc, #224]	; (85e8 <_svfprintf_r+0x16a8>)
    8508:	4b38      	ldr	r3, [pc, #224]	; (85ec <_svfprintf_r+0x16ac>)
    850a:	f89d 706f 	ldrb.w	r7, [sp, #111]	; 0x6f
    850e:	f7ff b82f 	b.w	7570 <_svfprintf_r+0x630>
    8512:	9b13      	ldr	r3, [sp, #76]	; 0x4c
    8514:	9a16      	ldr	r2, [sp, #88]	; 0x58
    8516:	189d      	adds	r5, r3, r2
    8518:	eb05 030b 	add.w	r3, r5, fp
    851c:	930d      	str	r3, [sp, #52]	; 0x34
    851e:	ea23 73e3 	bic.w	r3, r3, r3, asr #31
    8522:	e54b      	b.n	7fbc <_svfprintf_r+0x107c>
    8524:	9b13      	ldr	r3, [sp, #76]	; 0x4c
    8526:	9a0d      	ldr	r2, [sp, #52]	; 0x34
    8528:	f1c3 0301 	rsb	r3, r3, #1
    852c:	441a      	add	r2, r3
    852e:	4613      	mov	r3, r2
    8530:	920d      	str	r2, [sp, #52]	; 0x34
    8532:	e777      	b.n	8424 <_svfprintf_r+0x14e4>
    8534:	9b07      	ldr	r3, [sp, #28]
    8536:	f013 0301 	ands.w	r3, r3, #1
    853a:	f47f af05 	bne.w	8348 <_svfprintf_r+0x1408>
    853e:	9313      	str	r3, [sp, #76]	; 0x4c
    8540:	9b0d      	ldr	r3, [sp, #52]	; 0x34
    8542:	ea23 73e3 	bic.w	r3, r3, r3, asr #31
    8546:	e539      	b.n	7fbc <_svfprintf_r+0x107c>
    8548:	980e      	ldr	r0, [sp, #56]	; 0x38
    854a:	f898 3001 	ldrb.w	r3, [r8, #1]
    854e:	6805      	ldr	r5, [r0, #0]
    8550:	3004      	adds	r0, #4
    8552:	2d00      	cmp	r5, #0
    8554:	900e      	str	r0, [sp, #56]	; 0x38
    8556:	46a0      	mov	r8, r4
    8558:	f6be ad4b 	bge.w	6ff2 <_svfprintf_r+0xb2>
    855c:	f04f 35ff 	mov.w	r5, #4294967295	; 0xffffffff
    8560:	f7fe bd47 	b.w	6ff2 <_svfprintf_r+0xb2>
    8564:	f1bb 0f00 	cmp.w	fp, #0
    8568:	d102      	bne.n	8570 <_svfprintf_r+0x1630>
    856a:	9b07      	ldr	r3, [sp, #28]
    856c:	07d8      	lsls	r0, r3, #31
    856e:	d507      	bpl.n	8580 <_svfprintf_r+0x1640>
    8570:	9b16      	ldr	r3, [sp, #88]	; 0x58
    8572:	1c5d      	adds	r5, r3, #1
    8574:	eb05 030b 	add.w	r3, r5, fp
    8578:	930d      	str	r3, [sp, #52]	; 0x34
    857a:	ea23 73e3 	bic.w	r3, r3, r3, asr #31
    857e:	e51d      	b.n	7fbc <_svfprintf_r+0x107c>
    8580:	2301      	movs	r3, #1
    8582:	930d      	str	r3, [sp, #52]	; 0x34
    8584:	e51a      	b.n	7fbc <_svfprintf_r+0x107c>
    8586:	f88d 106f 	strb.w	r1, [sp, #111]	; 0x6f
    858a:	f7ff b865 	b.w	7658 <_svfprintf_r+0x718>
    858e:	f88d 106f 	strb.w	r1, [sp, #111]	; 0x6f
    8592:	f7fe be51 	b.w	7238 <_svfprintf_r+0x2f8>
    8596:	f10d 037e 	add.w	r3, sp, #126	; 0x7e
    859a:	e6cc      	b.n	8336 <_svfprintf_r+0x13f6>
    859c:	9a0a      	ldr	r2, [sp, #40]	; 0x28
    859e:	230c      	movs	r3, #12
    85a0:	6013      	str	r3, [r2, #0]
    85a2:	f04f 30ff 	mov.w	r0, #4294967295	; 0xffffffff
    85a6:	f7fe bdcd 	b.w	7144 <_svfprintf_r+0x204>
    85aa:	f88d 106f 	strb.w	r1, [sp, #111]	; 0x6f
    85ae:	f7ff b950 	b.w	7852 <_svfprintf_r+0x912>
    85b2:	f88d 106f 	strb.w	r1, [sp, #111]	; 0x6f
    85b6:	f7fe bfab 	b.w	7510 <_svfprintf_r+0x5d0>
    85ba:	f88d 106f 	strb.w	r1, [sp, #111]	; 0x6f
    85be:	f7fe bdc9 	b.w	7154 <_svfprintf_r+0x214>
    85c2:	f88d 106f 	strb.w	r1, [sp, #111]	; 0x6f
    85c6:	f7ff b819 	b.w	75fc <_svfprintf_r+0x6bc>
    85ca:	f88d 106f 	strb.w	r1, [sp, #111]	; 0x6f
    85ce:	f7fe bfeb 	b.w	75a8 <_svfprintf_r+0x668>
    85d2:	f88d 106f 	strb.w	r1, [sp, #111]	; 0x6f
    85d6:	f7ff b8f3 	b.w	77c0 <_svfprintf_r+0x880>
    85da:	f88d 106f 	strb.w	r1, [sp, #111]	; 0x6f
    85de:	f7ff b8d2 	b.w	7786 <_svfprintf_r+0x846>
    85e2:	bf00      	nop
    85e4:	00009234 	.word	0x00009234
    85e8:	00009208 	.word	0x00009208
    85ec:	00009204 	.word	0x00009204

000085f0 <__ssprint_r>:
    85f0:	e92d 4ff0 	stmdb	sp!, {r4, r5, r6, r7, r8, r9, sl, fp, lr}
    85f4:	6893      	ldr	r3, [r2, #8]
    85f6:	b083      	sub	sp, #12
    85f8:	4690      	mov	r8, r2
    85fa:	2b00      	cmp	r3, #0
    85fc:	d072      	beq.n	86e4 <__ssprint_r+0xf4>
    85fe:	4683      	mov	fp, r0
    8600:	f04f 0900 	mov.w	r9, #0
    8604:	6816      	ldr	r6, [r2, #0]
    8606:	6808      	ldr	r0, [r1, #0]
    8608:	688b      	ldr	r3, [r1, #8]
    860a:	460d      	mov	r5, r1
    860c:	464c      	mov	r4, r9
    860e:	2c00      	cmp	r4, #0
    8610:	d045      	beq.n	869e <__ssprint_r+0xae>
    8612:	429c      	cmp	r4, r3
    8614:	461f      	mov	r7, r3
    8616:	469a      	mov	sl, r3
    8618:	d346      	bcc.n	86a8 <__ssprint_r+0xb8>
    861a:	89ab      	ldrh	r3, [r5, #12]
    861c:	f413 6f90 	tst.w	r3, #1152	; 0x480
    8620:	d02d      	beq.n	867e <__ssprint_r+0x8e>
    8622:	696f      	ldr	r7, [r5, #20]
    8624:	6929      	ldr	r1, [r5, #16]
    8626:	eb07 0747 	add.w	r7, r7, r7, lsl #1
    862a:	ebc1 0a00 	rsb	sl, r1, r0
    862e:	eb07 77d7 	add.w	r7, r7, r7, lsr #31
    8632:	1c60      	adds	r0, r4, #1
    8634:	107f      	asrs	r7, r7, #1
    8636:	4450      	add	r0, sl
    8638:	42b8      	cmp	r0, r7
    863a:	463a      	mov	r2, r7
    863c:	bf84      	itt	hi
    863e:	4607      	movhi	r7, r0
    8640:	463a      	movhi	r2, r7
    8642:	055b      	lsls	r3, r3, #21
    8644:	d533      	bpl.n	86ae <__ssprint_r+0xbe>
    8646:	4611      	mov	r1, r2
    8648:	4658      	mov	r0, fp
    864a:	f7fc f8d7 	bl	47fc <_malloc_r>
    864e:	2800      	cmp	r0, #0
    8650:	d037      	beq.n	86c2 <__ssprint_r+0xd2>
    8652:	4652      	mov	r2, sl
    8654:	6929      	ldr	r1, [r5, #16]
    8656:	9001      	str	r0, [sp, #4]
    8658:	f7fb f81a 	bl	3690 <memcpy>
    865c:	89aa      	ldrh	r2, [r5, #12]
    865e:	9b01      	ldr	r3, [sp, #4]
    8660:	f422 6290 	bic.w	r2, r2, #1152	; 0x480
    8664:	f042 0280 	orr.w	r2, r2, #128	; 0x80
    8668:	81aa      	strh	r2, [r5, #12]
    866a:	ebca 0207 	rsb	r2, sl, r7
    866e:	eb03 000a 	add.w	r0, r3, sl
    8672:	616f      	str	r7, [r5, #20]
    8674:	612b      	str	r3, [r5, #16]
    8676:	6028      	str	r0, [r5, #0]
    8678:	60aa      	str	r2, [r5, #8]
    867a:	4627      	mov	r7, r4
    867c:	46a2      	mov	sl, r4
    867e:	4652      	mov	r2, sl
    8680:	4649      	mov	r1, r9
    8682:	f7fc fb89 	bl	4d98 <memmove>
    8686:	f8d8 2008 	ldr.w	r2, [r8, #8]
    868a:	68ab      	ldr	r3, [r5, #8]
    868c:	6828      	ldr	r0, [r5, #0]
    868e:	1bdb      	subs	r3, r3, r7
    8690:	4450      	add	r0, sl
    8692:	1b14      	subs	r4, r2, r4
    8694:	60ab      	str	r3, [r5, #8]
    8696:	6028      	str	r0, [r5, #0]
    8698:	f8c8 4008 	str.w	r4, [r8, #8]
    869c:	b314      	cbz	r4, 86e4 <__ssprint_r+0xf4>
    869e:	f8d6 9000 	ldr.w	r9, [r6]
    86a2:	6874      	ldr	r4, [r6, #4]
    86a4:	3608      	adds	r6, #8
    86a6:	e7b2      	b.n	860e <__ssprint_r+0x1e>
    86a8:	4627      	mov	r7, r4
    86aa:	46a2      	mov	sl, r4
    86ac:	e7e7      	b.n	867e <__ssprint_r+0x8e>
    86ae:	4658      	mov	r0, fp
    86b0:	f7fc fc28 	bl	4f04 <_realloc_r>
    86b4:	4603      	mov	r3, r0
    86b6:	2800      	cmp	r0, #0
    86b8:	d1d7      	bne.n	866a <__ssprint_r+0x7a>
    86ba:	6929      	ldr	r1, [r5, #16]
    86bc:	4658      	mov	r0, fp
    86be:	f7fc ffc7 	bl	5650 <_free_r>
    86c2:	230c      	movs	r3, #12
    86c4:	f8cb 3000 	str.w	r3, [fp]
    86c8:	89ab      	ldrh	r3, [r5, #12]
    86ca:	2200      	movs	r2, #0
    86cc:	f043 0340 	orr.w	r3, r3, #64	; 0x40
    86d0:	f04f 30ff 	mov.w	r0, #4294967295	; 0xffffffff
    86d4:	81ab      	strh	r3, [r5, #12]
    86d6:	f8c8 2008 	str.w	r2, [r8, #8]
    86da:	f8c8 2004 	str.w	r2, [r8, #4]
    86de:	b003      	add	sp, #12
    86e0:	e8bd 8ff0 	ldmia.w	sp!, {r4, r5, r6, r7, r8, r9, sl, fp, pc}
    86e4:	2000      	movs	r0, #0
    86e6:	f8c8 0004 	str.w	r0, [r8, #4]
    86ea:	b003      	add	sp, #12
    86ec:	e8bd 8ff0 	ldmia.w	sp!, {r4, r5, r6, r7, r8, r9, sl, fp, pc}

000086f0 <__aeabi_d2iz>:
    86f0:	ea4f 0241 	mov.w	r2, r1, lsl #1
    86f4:	f512 1200 	adds.w	r2, r2, #2097152	; 0x200000
    86f8:	d215      	bcs.n	8726 <__aeabi_d2iz+0x36>
    86fa:	d511      	bpl.n	8720 <__aeabi_d2iz+0x30>
    86fc:	f46f 7378 	mvn.w	r3, #992	; 0x3e0
    8700:	ebb3 5262 	subs.w	r2, r3, r2, asr #21
    8704:	d912      	bls.n	872c <__aeabi_d2iz+0x3c>
    8706:	ea4f 23c1 	mov.w	r3, r1, lsl #11
    870a:	f043 4300 	orr.w	r3, r3, #2147483648	; 0x80000000
    870e:	ea43 5350 	orr.w	r3, r3, r0, lsr #21
    8712:	f011 4f00 	tst.w	r1, #2147483648	; 0x80000000
    8716:	fa23 f002 	lsr.w	r0, r3, r2
    871a:	bf18      	it	ne
    871c:	4240      	negne	r0, r0
    871e:	4770      	bx	lr
    8720:	f04f 0000 	mov.w	r0, #0
    8724:	4770      	bx	lr
    8726:	ea50 3001 	orrs.w	r0, r0, r1, lsl #12
    872a:	d105      	bne.n	8738 <__aeabi_d2iz+0x48>
    872c:	f011 4000 	ands.w	r0, r1, #2147483648	; 0x80000000
    8730:	bf08      	it	eq
    8732:	f06f 4000 	mvneq.w	r0, #2147483648	; 0x80000000
    8736:	4770      	bx	lr
    8738:	f04f 0000 	mov.w	r0, #0
    873c:	4770      	bx	lr
    873e:	bf00      	nop

00008740 <__aeabi_uldivmod>:
    8740:	b953      	cbnz	r3, 8758 <__aeabi_uldivmod+0x18>
    8742:	b94a      	cbnz	r2, 8758 <__aeabi_uldivmod+0x18>
    8744:	2900      	cmp	r1, #0
    8746:	bf08      	it	eq
    8748:	2800      	cmpeq	r0, #0
    874a:	bf1c      	itt	ne
    874c:	f04f 31ff 	movne.w	r1, #4294967295	; 0xffffffff
    8750:	f04f 30ff 	movne.w	r0, #4294967295	; 0xffffffff
    8754:	f000 b97e 	b.w	8a54 <__aeabi_idiv0>
    8758:	f1ad 0c08 	sub.w	ip, sp, #8
    875c:	e96d ce04 	strd	ip, lr, [sp, #-16]!
    8760:	f000 f806 	bl	8770 <__udivmoddi4>
    8764:	f8dd e004 	ldr.w	lr, [sp, #4]
    8768:	e9dd 2302 	ldrd	r2, r3, [sp, #8]
    876c:	b004      	add	sp, #16
    876e:	4770      	bx	lr

00008770 <__udivmoddi4>:
    8770:	e92d 47f0 	stmdb	sp!, {r4, r5, r6, r7, r8, r9, sl, lr}
    8774:	468c      	mov	ip, r1
    8776:	460e      	mov	r6, r1
    8778:	4604      	mov	r4, r0
    877a:	9d08      	ldr	r5, [sp, #32]
    877c:	2b00      	cmp	r3, #0
    877e:	d150      	bne.n	8822 <__udivmoddi4+0xb2>
    8780:	428a      	cmp	r2, r1
    8782:	4617      	mov	r7, r2
    8784:	d96c      	bls.n	8860 <__udivmoddi4+0xf0>
    8786:	fab2 fe82 	clz	lr, r2
    878a:	f1be 0f00 	cmp.w	lr, #0
    878e:	d00b      	beq.n	87a8 <__udivmoddi4+0x38>
    8790:	f1ce 0420 	rsb	r4, lr, #32
    8794:	fa20 f404 	lsr.w	r4, r0, r4
    8798:	fa01 f60e 	lsl.w	r6, r1, lr
    879c:	ea44 0c06 	orr.w	ip, r4, r6
    87a0:	fa02 f70e 	lsl.w	r7, r2, lr
    87a4:	fa00 f40e 	lsl.w	r4, r0, lr
    87a8:	ea4f 4917 	mov.w	r9, r7, lsr #16
    87ac:	0c22      	lsrs	r2, r4, #16
    87ae:	fbbc f0f9 	udiv	r0, ip, r9
    87b2:	fa1f f887 	uxth.w	r8, r7
    87b6:	fb09 c610 	mls	r6, r9, r0, ip
    87ba:	ea42 4606 	orr.w	r6, r2, r6, lsl #16
    87be:	fb00 f308 	mul.w	r3, r0, r8
    87c2:	42b3      	cmp	r3, r6
    87c4:	d909      	bls.n	87da <__udivmoddi4+0x6a>
    87c6:	19f6      	adds	r6, r6, r7
    87c8:	f100 32ff 	add.w	r2, r0, #4294967295	; 0xffffffff
    87cc:	f080 8122 	bcs.w	8a14 <__udivmoddi4+0x2a4>
    87d0:	42b3      	cmp	r3, r6
    87d2:	f240 811f 	bls.w	8a14 <__udivmoddi4+0x2a4>
    87d6:	3802      	subs	r0, #2
    87d8:	443e      	add	r6, r7
    87da:	1af6      	subs	r6, r6, r3
    87dc:	b2a2      	uxth	r2, r4
    87de:	fbb6 f3f9 	udiv	r3, r6, r9
    87e2:	fb09 6613 	mls	r6, r9, r3, r6
    87e6:	ea42 4406 	orr.w	r4, r2, r6, lsl #16
    87ea:	fb03 f808 	mul.w	r8, r3, r8
    87ee:	45a0      	cmp	r8, r4
    87f0:	d909      	bls.n	8806 <__udivmoddi4+0x96>
    87f2:	19e4      	adds	r4, r4, r7
    87f4:	f103 32ff 	add.w	r2, r3, #4294967295	; 0xffffffff
    87f8:	f080 810a 	bcs.w	8a10 <__udivmoddi4+0x2a0>
    87fc:	45a0      	cmp	r8, r4
    87fe:	f240 8107 	bls.w	8a10 <__udivmoddi4+0x2a0>
    8802:	3b02      	subs	r3, #2
    8804:	443c      	add	r4, r7
    8806:	ebc8 0404 	rsb	r4, r8, r4
    880a:	ea43 4000 	orr.w	r0, r3, r0, lsl #16
    880e:	2100      	movs	r1, #0
    8810:	2d00      	cmp	r5, #0
    8812:	d062      	beq.n	88da <__udivmoddi4+0x16a>
    8814:	fa24 f40e 	lsr.w	r4, r4, lr
    8818:	2300      	movs	r3, #0
    881a:	602c      	str	r4, [r5, #0]
    881c:	606b      	str	r3, [r5, #4]
    881e:	e8bd 87f0 	ldmia.w	sp!, {r4, r5, r6, r7, r8, r9, sl, pc}
    8822:	428b      	cmp	r3, r1
    8824:	d907      	bls.n	8836 <__udivmoddi4+0xc6>
    8826:	2d00      	cmp	r5, #0
    8828:	d055      	beq.n	88d6 <__udivmoddi4+0x166>
    882a:	2100      	movs	r1, #0
    882c:	e885 0041 	stmia.w	r5, {r0, r6}
    8830:	4608      	mov	r0, r1
    8832:	e8bd 87f0 	ldmia.w	sp!, {r4, r5, r6, r7, r8, r9, sl, pc}
    8836:	fab3 f183 	clz	r1, r3
    883a:	2900      	cmp	r1, #0
    883c:	f040 8090 	bne.w	8960 <__udivmoddi4+0x1f0>
    8840:	42b3      	cmp	r3, r6
    8842:	d302      	bcc.n	884a <__udivmoddi4+0xda>
    8844:	4282      	cmp	r2, r0
    8846:	f200 80f8 	bhi.w	8a3a <__udivmoddi4+0x2ca>
    884a:	1a84      	subs	r4, r0, r2
    884c:	eb66 0603 	sbc.w	r6, r6, r3
    8850:	2001      	movs	r0, #1
    8852:	46b4      	mov	ip, r6
    8854:	2d00      	cmp	r5, #0
    8856:	d040      	beq.n	88da <__udivmoddi4+0x16a>
    8858:	e885 1010 	stmia.w	r5, {r4, ip}
    885c:	e8bd 87f0 	ldmia.w	sp!, {r4, r5, r6, r7, r8, r9, sl, pc}
    8860:	b912      	cbnz	r2, 8868 <__udivmoddi4+0xf8>
    8862:	2701      	movs	r7, #1
    8864:	fbb7 f7f2 	udiv	r7, r7, r2
    8868:	fab7 fe87 	clz	lr, r7
    886c:	f1be 0f00 	cmp.w	lr, #0
    8870:	d135      	bne.n	88de <__udivmoddi4+0x16e>
    8872:	1bf3      	subs	r3, r6, r7
    8874:	ea4f 4817 	mov.w	r8, r7, lsr #16
    8878:	fa1f fc87 	uxth.w	ip, r7
    887c:	2101      	movs	r1, #1
    887e:	fbb3 f0f8 	udiv	r0, r3, r8
    8882:	0c22      	lsrs	r2, r4, #16
    8884:	fb08 3610 	mls	r6, r8, r0, r3
    8888:	ea42 4606 	orr.w	r6, r2, r6, lsl #16
    888c:	fb0c f300 	mul.w	r3, ip, r0
    8890:	42b3      	cmp	r3, r6
    8892:	d907      	bls.n	88a4 <__udivmoddi4+0x134>
    8894:	19f6      	adds	r6, r6, r7
    8896:	f100 32ff 	add.w	r2, r0, #4294967295	; 0xffffffff
    889a:	d202      	bcs.n	88a2 <__udivmoddi4+0x132>
    889c:	42b3      	cmp	r3, r6
    889e:	f200 80ce 	bhi.w	8a3e <__udivmoddi4+0x2ce>
    88a2:	4610      	mov	r0, r2
    88a4:	1af6      	subs	r6, r6, r3
    88a6:	b2a2      	uxth	r2, r4
    88a8:	fbb6 f3f8 	udiv	r3, r6, r8
    88ac:	fb08 6613 	mls	r6, r8, r3, r6
    88b0:	ea42 4406 	orr.w	r4, r2, r6, lsl #16
    88b4:	fb0c fc03 	mul.w	ip, ip, r3
    88b8:	45a4      	cmp	ip, r4
    88ba:	d907      	bls.n	88cc <__udivmoddi4+0x15c>
    88bc:	19e4      	adds	r4, r4, r7
    88be:	f103 32ff 	add.w	r2, r3, #4294967295	; 0xffffffff
    88c2:	d202      	bcs.n	88ca <__udivmoddi4+0x15a>
    88c4:	45a4      	cmp	ip, r4
    88c6:	f200 80b5 	bhi.w	8a34 <__udivmoddi4+0x2c4>
    88ca:	4613      	mov	r3, r2
    88cc:	ebcc 0404 	rsb	r4, ip, r4
    88d0:	ea43 4000 	orr.w	r0, r3, r0, lsl #16
    88d4:	e79c      	b.n	8810 <__udivmoddi4+0xa0>
    88d6:	4629      	mov	r1, r5
    88d8:	4628      	mov	r0, r5
    88da:	e8bd 87f0 	ldmia.w	sp!, {r4, r5, r6, r7, r8, r9, sl, pc}
    88de:	f1ce 0120 	rsb	r1, lr, #32
    88e2:	fa06 f30e 	lsl.w	r3, r6, lr
    88e6:	fa07 f70e 	lsl.w	r7, r7, lr
    88ea:	fa20 f901 	lsr.w	r9, r0, r1
    88ee:	ea4f 4817 	mov.w	r8, r7, lsr #16
    88f2:	40ce      	lsrs	r6, r1
    88f4:	ea49 0903 	orr.w	r9, r9, r3
    88f8:	fbb6 faf8 	udiv	sl, r6, r8
    88fc:	ea4f 4419 	mov.w	r4, r9, lsr #16
    8900:	fb08 661a 	mls	r6, r8, sl, r6
    8904:	fa1f fc87 	uxth.w	ip, r7
    8908:	ea44 4306 	orr.w	r3, r4, r6, lsl #16
    890c:	fb0a f20c 	mul.w	r2, sl, ip
    8910:	429a      	cmp	r2, r3
    8912:	fa00 f40e 	lsl.w	r4, r0, lr
    8916:	d90a      	bls.n	892e <__udivmoddi4+0x1be>
    8918:	19db      	adds	r3, r3, r7
    891a:	f10a 31ff 	add.w	r1, sl, #4294967295	; 0xffffffff
    891e:	f080 8087 	bcs.w	8a30 <__udivmoddi4+0x2c0>
    8922:	429a      	cmp	r2, r3
    8924:	f240 8084 	bls.w	8a30 <__udivmoddi4+0x2c0>
    8928:	f1aa 0a02 	sub.w	sl, sl, #2
    892c:	443b      	add	r3, r7
    892e:	1a9b      	subs	r3, r3, r2
    8930:	fa1f f989 	uxth.w	r9, r9
    8934:	fbb3 f1f8 	udiv	r1, r3, r8
    8938:	fb08 3311 	mls	r3, r8, r1, r3
    893c:	ea49 4303 	orr.w	r3, r9, r3, lsl #16
    8940:	fb01 f60c 	mul.w	r6, r1, ip
    8944:	429e      	cmp	r6, r3
    8946:	d907      	bls.n	8958 <__udivmoddi4+0x1e8>
    8948:	19db      	adds	r3, r3, r7
    894a:	f101 32ff 	add.w	r2, r1, #4294967295	; 0xffffffff
    894e:	d26b      	bcs.n	8a28 <__udivmoddi4+0x2b8>
    8950:	429e      	cmp	r6, r3
    8952:	d969      	bls.n	8a28 <__udivmoddi4+0x2b8>
    8954:	3902      	subs	r1, #2
    8956:	443b      	add	r3, r7
    8958:	1b9b      	subs	r3, r3, r6
    895a:	ea41 410a 	orr.w	r1, r1, sl, lsl #16
    895e:	e78e      	b.n	887e <__udivmoddi4+0x10e>
    8960:	f1c1 0e20 	rsb	lr, r1, #32
    8964:	fa22 f40e 	lsr.w	r4, r2, lr
    8968:	408b      	lsls	r3, r1
    896a:	4323      	orrs	r3, r4
    896c:	fa20 f70e 	lsr.w	r7, r0, lr
    8970:	fa06 f401 	lsl.w	r4, r6, r1
    8974:	ea4f 4c13 	mov.w	ip, r3, lsr #16
    8978:	fa26 f60e 	lsr.w	r6, r6, lr
    897c:	433c      	orrs	r4, r7
    897e:	fbb6 f9fc 	udiv	r9, r6, ip
    8982:	0c27      	lsrs	r7, r4, #16
    8984:	fb0c 6619 	mls	r6, ip, r9, r6
    8988:	fa1f f883 	uxth.w	r8, r3
    898c:	ea47 4606 	orr.w	r6, r7, r6, lsl #16
    8990:	fb09 f708 	mul.w	r7, r9, r8
    8994:	42b7      	cmp	r7, r6
    8996:	fa02 f201 	lsl.w	r2, r2, r1
    899a:	fa00 fa01 	lsl.w	sl, r0, r1
    899e:	d908      	bls.n	89b2 <__udivmoddi4+0x242>
    89a0:	18f6      	adds	r6, r6, r3
    89a2:	f109 30ff 	add.w	r0, r9, #4294967295	; 0xffffffff
    89a6:	d241      	bcs.n	8a2c <__udivmoddi4+0x2bc>
    89a8:	42b7      	cmp	r7, r6
    89aa:	d93f      	bls.n	8a2c <__udivmoddi4+0x2bc>
    89ac:	f1a9 0902 	sub.w	r9, r9, #2
    89b0:	441e      	add	r6, r3
    89b2:	1bf6      	subs	r6, r6, r7
    89b4:	b2a0      	uxth	r0, r4
    89b6:	fbb6 f4fc 	udiv	r4, r6, ip
    89ba:	fb0c 6614 	mls	r6, ip, r4, r6
    89be:	ea40 4706 	orr.w	r7, r0, r6, lsl #16
    89c2:	fb04 f808 	mul.w	r8, r4, r8
    89c6:	45b8      	cmp	r8, r7
    89c8:	d907      	bls.n	89da <__udivmoddi4+0x26a>
    89ca:	18ff      	adds	r7, r7, r3
    89cc:	f104 30ff 	add.w	r0, r4, #4294967295	; 0xffffffff
    89d0:	d228      	bcs.n	8a24 <__udivmoddi4+0x2b4>
    89d2:	45b8      	cmp	r8, r7
    89d4:	d926      	bls.n	8a24 <__udivmoddi4+0x2b4>
    89d6:	3c02      	subs	r4, #2
    89d8:	441f      	add	r7, r3
    89da:	ea44 4009 	orr.w	r0, r4, r9, lsl #16
    89de:	ebc8 0707 	rsb	r7, r8, r7
    89e2:	fba0 8902 	umull	r8, r9, r0, r2
    89e6:	454f      	cmp	r7, r9
    89e8:	4644      	mov	r4, r8
    89ea:	464e      	mov	r6, r9
    89ec:	d314      	bcc.n	8a18 <__udivmoddi4+0x2a8>
    89ee:	d029      	beq.n	8a44 <__udivmoddi4+0x2d4>
    89f0:	b365      	cbz	r5, 8a4c <__udivmoddi4+0x2dc>
    89f2:	ebba 0304 	subs.w	r3, sl, r4
    89f6:	eb67 0706 	sbc.w	r7, r7, r6
    89fa:	fa07 fe0e 	lsl.w	lr, r7, lr
    89fe:	40cb      	lsrs	r3, r1
    8a00:	40cf      	lsrs	r7, r1
    8a02:	ea4e 0303 	orr.w	r3, lr, r3
    8a06:	e885 0088 	stmia.w	r5, {r3, r7}
    8a0a:	2100      	movs	r1, #0
    8a0c:	e8bd 87f0 	ldmia.w	sp!, {r4, r5, r6, r7, r8, r9, sl, pc}
    8a10:	4613      	mov	r3, r2
    8a12:	e6f8      	b.n	8806 <__udivmoddi4+0x96>
    8a14:	4610      	mov	r0, r2
    8a16:	e6e0      	b.n	87da <__udivmoddi4+0x6a>
    8a18:	ebb8 0402 	subs.w	r4, r8, r2
    8a1c:	eb69 0603 	sbc.w	r6, r9, r3
    8a20:	3801      	subs	r0, #1
    8a22:	e7e5      	b.n	89f0 <__udivmoddi4+0x280>
    8a24:	4604      	mov	r4, r0
    8a26:	e7d8      	b.n	89da <__udivmoddi4+0x26a>
    8a28:	4611      	mov	r1, r2
    8a2a:	e795      	b.n	8958 <__udivmoddi4+0x1e8>
    8a2c:	4681      	mov	r9, r0
    8a2e:	e7c0      	b.n	89b2 <__udivmoddi4+0x242>
    8a30:	468a      	mov	sl, r1
    8a32:	e77c      	b.n	892e <__udivmoddi4+0x1be>
    8a34:	3b02      	subs	r3, #2
    8a36:	443c      	add	r4, r7
    8a38:	e748      	b.n	88cc <__udivmoddi4+0x15c>
    8a3a:	4608      	mov	r0, r1
    8a3c:	e70a      	b.n	8854 <__udivmoddi4+0xe4>
    8a3e:	3802      	subs	r0, #2
    8a40:	443e      	add	r6, r7
    8a42:	e72f      	b.n	88a4 <__udivmoddi4+0x134>
    8a44:	45c2      	cmp	sl, r8
    8a46:	d3e7      	bcc.n	8a18 <__udivmoddi4+0x2a8>
    8a48:	463e      	mov	r6, r7
    8a4a:	e7d1      	b.n	89f0 <__udivmoddi4+0x280>
    8a4c:	4629      	mov	r1, r5
    8a4e:	e8bd 87f0 	ldmia.w	sp!, {r4, r5, r6, r7, r8, r9, sl, pc}
    8a52:	bf00      	nop

00008a54 <__aeabi_idiv0>:
    8a54:	4770      	bx	lr
    8a56:	bf00      	nop
    8a58:	65726957 	.word	0x65726957
    8a5c:	00000031 	.word	0x00000031
    8a60:	334d434c 	.word	0x334d434c
    8a64:	20513030 	.word	0x20513030
    8a68:	7262694c 	.word	0x7262694c
    8a6c:	20797261 	.word	0x20797261
    8a70:	74736554 	.word	0x74736554
    8a74:	646f4320 	.word	0x646f4320
    8a78:	74612065 	.word	0x74612065
    8a7c:	25783020 	.word	0x25783020
    8a80:	0058322e 	.word	0x0058322e
    8a84:	746e4920 	.word	0x746e4920
    8a88:	61767265 	.word	0x61767265
    8a8c:	7369206c 	.word	0x7369206c
    8a90:	00000020 	.word	0x00000020
    8a94:	63657320 	.word	0x63657320
    8a98:	0000202c 	.word	0x0000202c
    8a9c:	75746553 	.word	0x75746553
    8aa0:	6f432070 	.word	0x6f432070
    8aa4:	656c706d 	.word	0x656c706d
    8aa8:	00216574 	.word	0x00216574
    8aac:	0d752540 	.word	0x0d752540
    8ab0:	0000000a 	.word	0x0000000a
    8ab4:	75424d50 	.word	0x75424d50
    8ab8:	65722073 	.word	0x65722073
    8abc:	25203a76 	.word	0x25203a76
    8ac0:	0a0a0d73 	.word	0x0a0a0d73
    8ac4:	00000000 	.word	0x00000000
    8ac8:	74756f56 	.word	0x74756f56
    8acc:	646f4d20 	.word	0x646f4d20
    8ad0:	25203a65 	.word	0x25203a65
    8ad4:	0a0a0d73 	.word	0x0a0a0d73
    8ad8:	00000000 	.word	0x00000000
    8adc:	706d6554 	.word	0x706d6554
    8ae0:	74617265 	.word	0x74617265
    8ae4:	20657275 	.word	0x20657275
    8ae8:	25203a32 	.word	0x25203a32
    8aec:	0a0a0d73 	.word	0x0a0a0d73
    8af0:	00000000 	.word	0x00000000
    8af4:	74756f56 	.word	0x74756f56
    8af8:	74655320 	.word	0x74655320
    8afc:	6d6f4320 	.word	0x6d6f4320
    8b00:	646e616d 	.word	0x646e616d
    8b04:	7325203a 	.word	0x7325203a
    8b08:	000a0a0d 	.word	0x000a0a0d
    8b0c:	64616552 	.word	0x64616552
    8b10:	756f5620 	.word	0x756f5620
    8b14:	25203a74 	.word	0x25203a74
    8b18:	0a0a0d73 	.word	0x0a0a0d73
    8b1c:	00000000 	.word	0x00000000
    8b20:	74756f56 	.word	0x74756f56
    8b24:	6e694d20 	.word	0x6e694d20
    8b28:	7325203a 	.word	0x7325203a
    8b2c:	000a0a0d 	.word	0x000a0a0d
    8b30:	2072664d 	.word	0x2072664d
    8b34:	74756f56 	.word	0x74756f56
    8b38:	78614d20 	.word	0x78614d20
    8b3c:	7325203a 	.word	0x7325203a
    8b40:	000a0a0d 	.word	0x000a0a0d
    8b44:	49207525 	.word	0x49207525
    8b48:	2074756f 	.word	0x2074756f
    8b4c:	3a78614d 	.word	0x3a78614d
    8b50:	0d732520 	.word	0x0d732520
    8b54:	00000a0a 	.word	0x00000a0a
    8b58:	74756f49 	.word	0x74756f49
    8b5c:	7325203a 	.word	0x7325203a
    8b60:	000a0a0d 	.word	0x000a0a0d
    8b64:	74756f49 	.word	0x74756f49
    8b68:	78614d20 	.word	0x78614d20
    8b6c:	7325203a 	.word	0x7325203a
    8b70:	000a0a0d 	.word	0x000a0a0d
    8b74:	206e6146 	.word	0x206e6146
    8b78:	65657073 	.word	0x65657073
    8b7c:	25203a64 	.word	0x25203a64
    8b80:	000a0d73 	.word	0x000a0d73
    8b84:	74756f50 	.word	0x74756f50
    8b88:	6177202c 	.word	0x6177202c
    8b8c:	3a737474 	.word	0x3a737474
    8b90:	0d732520 	.word	0x0d732520
    8b94:	0000000a 	.word	0x0000000a
    8b98:	53410a0d 	.word	0x53410a0d
    8b9c:	20494943 	.word	0x20494943
    8ba0:	6d6d6f63 	.word	0x6d6d6f63
    8ba4:	73646e61 	.word	0x73646e61
    8ba8:	000a0d3a 	.word	0x000a0d3a
    8bac:	2072666d 	.word	0x2072666d
    8bb0:	203a4449 	.word	0x203a4449
    8bb4:	0a0d7325 	.word	0x0a0d7325
    8bb8:	00000000 	.word	0x00000000
    8bbc:	65646f6d 	.word	0x65646f6d
    8bc0:	25203a6c 	.word	0x25203a6c
    8bc4:	000a0d73 	.word	0x000a0d73
    8bc8:	69766572 	.word	0x69766572
    8bcc:	6e6f6973 	.word	0x6e6f6973
    8bd0:	7325203a 	.word	0x7325203a
    8bd4:	00000a0d 	.word	0x00000a0d
    8bd8:	61636f6c 	.word	0x61636f6c
    8bdc:	6e6f6974 	.word	0x6e6f6974
    8be0:	7325203a 	.word	0x7325203a
    8be4:	00000a0d 	.word	0x00000a0d
    8be8:	2067664d 	.word	0x2067664d
    8bec:	65746144 	.word	0x65746144
    8bf0:	7325203a 	.word	0x7325203a
    8bf4:	00000a0d 	.word	0x00000a0d
    8bf8:	2067664d 	.word	0x2067664d
    8bfc:	69726553 	.word	0x69726553
    8c00:	203a6c61 	.word	0x203a6c61
    8c04:	0a0d7325 	.word	0x0a0d7325
    8c08:	00000000 	.word	0x00000000
    8c0c:	74706d65 	.word	0x74706d65
    8c10:	ffff0079 	.word	0xffff0079
    8c14:	20646d63 	.word	0x20646d63
    8c18:	58257830 	.word	0x58257830
    8c1c:	0000202c 	.word	0x0000202c
    8c20:	20776172 	.word	0x20776172
    8c24:	64616572 	.word	0x64616572
    8c28:	6f727720 	.word	0x6f727720
    8c2c:	6e20676e 	.word	0x6e20676e
    8c30:	65626d75 	.word	0x65626d75
    8c34:	666f2072 	.word	0x666f2072
    8c38:	74796220 	.word	0x74796220
    8c3c:	61207365 	.word	0x61207365
    8c40:	6c696176 	.word	0x6c696176
    8c44:	656c6261 	.word	0x656c6261
    8c48:	00000000 	.word	0x00000000
    8c4c:	61657220 	.word	0x61657220
    8c50:	69252064 	.word	0x69252064
    8c54:	74796220 	.word	0x74796220
    8c58:	0a0d7365 	.word	0x0a0d7365
    8c5c:	00000000 	.word	0x00000000
    8c60:	303a7525 	.word	0x303a7525
    8c64:	32302578 	.word	0x32302578
    8c68:	63252f58 	.word	0x63252f58
    8c6c:	00000020 	.word	0x00000020
    8c70:	69637361 	.word	0x69637361
    8c74:	65722069 	.word	0x65722069
    8c78:	202c6461 	.word	0x202c6461
    8c7c:	3a646d63 	.word	0x3a646d63
    8c80:	25783020 	.word	0x25783020
    8c84:	000a0d58 	.word	0x000a0d58
    8c88:	69637361 	.word	0x69637361
    8c8c:	65722069 	.word	0x65722069
    8c90:	6f206461 	.word	0x6f206461
    8c94:	73312066 	.word	0x73312066
    8c98:	79622074 	.word	0x79622074
    8c9c:	66206574 	.word	0x66206574
    8ca0:	656c6961 	.word	0x656c6961
    8ca4:	000a0d64 	.word	0x000a0d64
    8ca8:	69637361 	.word	0x69637361
    8cac:	61642069 	.word	0x61642069
    8cb0:	63206174 	.word	0x63206174
    8cb4:	73726168 	.word	0x73726168
    8cb8:	69616620 	.word	0x69616620
    8cbc:	0064656c 	.word	0x0064656c
    8cc0:	61207525 	.word	0x61207525
    8cc4:	69696373 	.word	0x69696373
    8cc8:	61686320 	.word	0x61686320
    8ccc:	72207372 	.word	0x72207372
    8cd0:	0d646165 	.word	0x0d646165
    8cd4:	0000000a 	.word	0x0000000a
    8cd8:	69637361 	.word	0x69637361
    8cdc:	656c2069 	.word	0x656c2069
    8ce0:	6874676e 	.word	0x6874676e
    8ce4:	74796220 	.word	0x74796220
    8ce8:	203d2065 	.word	0x203d2065
    8cec:	0a0d7525 	.word	0x0a0d7525
    8cf0:	ffffff00 	.word	0xffffff00

00008cf4 <vtable for i2c_t3>:
	...
    8cfc:	00000d7d 00000da5 0000046d 00000d79     }.......m...y...
    8d0c:	00000d69 00001ae9 00001b11              i...........

00008d18 <i2c_div_num>:
    8d18:	00000014 00000016 00000018 0000001a     ................
    8d28:	0000001c 0000001e 00000020 00000022     ........ ..."...
    8d38:	00000024 00000028 0000002c 00000030     $...(...,...0...
    8d48:	00000034 00000038 0000003c 00000040     4...8...<...@...
    8d58:	00000044 00000048 00000050 00000058     D...H...P...X...
    8d68:	00000060 00000068 00000070 00000080     `...h...p.......
    8d78:	00000088 00000090 000000a0 000000b0     ................
    8d88:	000000c0 000000e0 000000f0 00000100     ................
    8d98:	00000120 00000140 00000160 00000180      ...@...`.......
    8da8:	000001c0 000001e0 00000200 00000240     ............@...
    8db8:	00000280 00000300 00000380 000003c0     ................
    8dc8:	00000400 00000480 00000500 00000600     ................
    8dd8:	00000780 00000700 00000800 00000900     ................
    8de8:	00000a00 00000c00 00000f00              ............

00008df4 <i2c_div_ratio>:
    8df4:	03020100 06090504 0d0c070a 12450e43     ............C.E.
    8e04:	1514130f 171a1619 551d1c4f 231f221e     ........O..U.".#
    8e14:	26952524 2c2b272a 2f322e2d 36353433     $%.&*'+,-.2/3456
    8e24:	3c3b3a37 ff3f3e3d                       7:;<=>?.

00008e2c <digital_pin_to_info_PGM>:
    8e2c:	43fe0840 4004a040 43fe0844 4004a044     @..C@..@D..CD..@
    8e3c:	43fe1800 4004c000 43fe0030 40049030     ...C...@0..C0..@
    8e4c:	43fe0034 40049034 43fe181c 4004c01c     4..C4..@...C...@
    8e5c:	43fe1810 4004c010 43fe1808 4004c008     ...C...@...C...@
    8e6c:	43fe180c 4004c00c 43fe100c 4004b00c     ...C...@...C...@
    8e7c:	43fe1010 4004b010 43fe1018 4004b018     ...C...@...C...@
    8e8c:	43fe101c 4004b01c 43fe1014 4004b014     ...C...@...C...@
    8e9c:	43fe1804 4004c004 43fe1000 4004b000     ...C...@...C...@
    8eac:	43fe0800 4004a000 43fe0804 4004a004     ...C...@...C...@
    8ebc:	43fe080c 4004a00c 43fe0808 4004a008     ...C...@...C...@
    8ecc:	43fe1814 4004c014 43fe1818 4004c018     ...C...@...C...@
    8edc:	43fe1004 4004b004 43fe1008 4004b008     ...C...@...C...@
    8eec:	43fe0014 40049014 43fe084c 4004a04c     ...C...@L..CL..@
    8efc:	43fe2004 4004d004 43fe1024 4004b024     . .C...@$..C$..@
    8f0c:	43fe1020 4004b020 43fe1028 4004b028      ..C ..@(..C(..@
    8f1c:	43fe102c 4004b02c 43fe2000 4004d000     ,..C,..@. .C...@
    8f2c:	43fe0848 4004a048 43fe0010 40049010     H..CH..@...C...@
    8f3c:	ffff0a0d                                ....

00008f40 <vtable for usb_serial_class>:
	...
    8f48:	000035e1 000035d5 000035cd 000035c5     .5...5...5...5..
    8f58:	000035bd 000035b5 000035ad 000035a5     .5...5...5...5..

00008f68 <usb_endpoint_config_table>:
    8f68:	15191500                                ....

00008f6c <usb_descriptor_list>:
    8f6c:	00000100 1fff8ddc 00000012 00000200     ................
    8f7c:	1fff8e08 00000043 00000300 1fff8e64     ....C.......d...
    8f8c:	00000000 04090301 1fff8df0 00000000     ................
    8f9c:	04090302 1fff8e4c 00000000 04090303     ....L...........
    8fac:	1fff8e68 00000000 00000000 00000000     h...............
    8fbc:	00000000                                ....

00008fc0 <_global_impure_ptr>:
    8fc0:	1fff8e80 00000043 49534f50 00000058     ....C...POSIX...
    8fd0:	ffff002e                                ....

00008fd4 <_ctype_>:
    8fd4:	20202000 20202020 28282020 20282828     .         ((((( 
    8fe4:	20202020 20202020 20202020 20202020                     
    8ff4:	10108820 10101010 10101010 10101010      ...............
    9004:	04040410 04040404 10040404 10101010     ................
    9014:	41411010 41414141 01010101 01010101     ..AAAAAA........
    9024:	01010101 01010101 01010101 10101010     ................
    9034:	42421010 42424242 02020202 02020202     ..BBBBBB........
    9044:	02020202 02020202 02020202 10101010     ................
    9054:	00000020 00000000 00000000 00000000      ...............
	...
    90d4:	ffffff00                                ....

000090d8 <__mprec_tens>:
    90d8:	00000000 3ff00000 00000000 40240000     .......?......$@
    90e8:	00000000 40590000 00000000 408f4000     ......Y@.....@.@
    90f8:	00000000 40c38800 00000000 40f86a00     .......@.....j.@
    9108:	00000000 412e8480 00000000 416312d0     .......A......cA
    9118:	00000000 4197d784 00000000 41cdcd65     .......A....e..A
    9128:	20000000 4202a05f e8000000 42374876     ... _..B....vH7B
    9138:	a2000000 426d1a94 e5400000 42a2309c     ......mB..@..0.B
    9148:	1e900000 42d6bcc4 26340000 430c6bf5     .......B..4&.k.C
    9158:	37e08000 4341c379 85d8a000 43763457     ...7y.AC....W4vC
    9168:	674ec800 43abc16d 60913d00 43e158e4     ..Ngm..C.=.`.X.C
    9178:	78b58c40 4415af1d d6e2ef50 444b1ae4     @..x...DP.....KD
    9188:	064dd592 4480f0cf c7e14af6 44b52d02     ..M....D.J...-.D
    9198:	79d99db4 44ea7843                       ...yCx.D

000091a0 <p05.6085>:
    91a0:	00000005 00000019 0000007d ffffffff     ........}.......

000091b0 <__mprec_bigtens>:
    91b0:	37e08000 4341c379 b5056e17 4693b8b5     ...7y.AC.n.....F
    91c0:	e93ff9f5 4d384f03 f9301d32 5a827748     ..?..O8M2.0.Hw.Z
    91d0:	7f73bf3c 75154fdd 69666e49 7974696e     <.s..O.uInfinity
    91e0:	00000000 004e614e ffff0030              ....NaN.0...

000091ec <zeroes.7256>:
    91ec:	30303030 30303030 30303030 30303030     0000000000000000
    91fc:	00464e49 00666e69 004e414e 006e616e     INF.inf.NAN.nan.
    920c:	33323130 37363534 42413938 46454443     0123456789ABCDEF
    921c:	00000000 33323130 37363534 62613938     ....0123456789ab
    922c:	66656463 00000000 6c756e28 0000296c     cdef....(null)..

0000923c <blanks.7255>:
    923c:	20202020 20202020 20202020 20202020                     

0000924c <_init>:
    924c:	b5f8      	push	{r3, r4, r5, r6, r7, lr}
    924e:	bf00      	nop
    9250:	bcf8      	pop	{r3, r4, r5, r6, r7}
    9252:	bc08      	pop	{r3}
    9254:	469e      	mov	lr, r3
    9256:	4770      	bx	lr

00009258 <__init_array_start>:
    9258:	0000556d 	.word	0x0000556d

0000925c <__frame_dummy_init_array_entry>:
    925c:	00000435 000008cd 000021f5              5........!..

Disassembly of section .fini:

00009268 <_fini>:
    9268:	b5f8      	push	{r3, r4, r5, r6, r7, lr}
    926a:	bf00      	nop

Disassembly of section .data:

1fff8720 <port_E_isr>:
#if defined(KINETISK)
PORT_ISR_FUNCTION_CLZ(A)
PORT_ISR_FUNCTION_CLZ(B)
PORT_ISR_FUNCTION_CLZ(C)
PORT_ISR_FUNCTION_CLZ(D)
PORT_ISR_FUNCTION_CLZ(E)
1fff8720:	b538      	push	{r3, r4, r5, lr}
1fff8722:	4b08      	ldr	r3, [pc, #32]	; (1fff8744 <port_E_isr+0x24>)
1fff8724:	681c      	ldr	r4, [r3, #0]
1fff8726:	601c      	str	r4, [r3, #0]
1fff8728:	b154      	cbz	r4, 1fff8740 <port_E_isr+0x20>
1fff872a:	4d07      	ldr	r5, [pc, #28]	; (1fff8748 <port_E_isr+0x28>)
1fff872c:	fa94 f3a4 	rbit	r3, r4
1fff8730:	fab3 f383 	clz	r3, r3
1fff8734:	f855 3023 	ldr.w	r3, [r5, r3, lsl #2]
1fff8738:	4798      	blx	r3
1fff873a:	1e63      	subs	r3, r4, #1
1fff873c:	401c      	ands	r4, r3
1fff873e:	d1f5      	bne.n	1fff872c <port_E_isr+0xc>
1fff8740:	bd38      	pop	{r3, r4, r5, pc}
1fff8742:	bf00      	nop
1fff8744:	4004d0a0 	.word	0x4004d0a0
1fff8748:	1fff8dbc 	.word	0x1fff8dbc

1fff874c <port_D_isr>:

#if defined(KINETISK)
PORT_ISR_FUNCTION_CLZ(A)
PORT_ISR_FUNCTION_CLZ(B)
PORT_ISR_FUNCTION_CLZ(C)
PORT_ISR_FUNCTION_CLZ(D)
1fff874c:	b538      	push	{r3, r4, r5, lr}
1fff874e:	4b08      	ldr	r3, [pc, #32]	; (1fff8770 <port_D_isr+0x24>)
1fff8750:	681c      	ldr	r4, [r3, #0]
1fff8752:	601c      	str	r4, [r3, #0]
1fff8754:	b154      	cbz	r4, 1fff876c <port_D_isr+0x20>
1fff8756:	4d07      	ldr	r5, [pc, #28]	; (1fff8774 <port_D_isr+0x28>)
1fff8758:	fa94 f3a4 	rbit	r3, r4
1fff875c:	fab3 f383 	clz	r3, r3
1fff8760:	f855 3023 	ldr.w	r3, [r5, r3, lsl #2]
1fff8764:	4798      	blx	r3
1fff8766:	1e63      	subs	r3, r4, #1
1fff8768:	401c      	ands	r4, r3
1fff876a:	d1f5      	bne.n	1fff8758 <port_D_isr+0xc>
1fff876c:	bd38      	pop	{r3, r4, r5, pc}
1fff876e:	bf00      	nop
1fff8770:	4004c0a0 	.word	0x4004c0a0
1fff8774:	1fff8d9c 	.word	0x1fff8d9c

1fff8778 <port_C_isr>:
// END PORT_ISR_FUNCTION_CLZ

#if defined(KINETISK)
PORT_ISR_FUNCTION_CLZ(A)
PORT_ISR_FUNCTION_CLZ(B)
PORT_ISR_FUNCTION_CLZ(C)
1fff8778:	b538      	push	{r3, r4, r5, lr}
1fff877a:	4b08      	ldr	r3, [pc, #32]	; (1fff879c <port_C_isr+0x24>)
1fff877c:	681c      	ldr	r4, [r3, #0]
1fff877e:	601c      	str	r4, [r3, #0]
1fff8780:	b154      	cbz	r4, 1fff8798 <port_C_isr+0x20>
1fff8782:	4d07      	ldr	r5, [pc, #28]	; (1fff87a0 <port_C_isr+0x28>)
1fff8784:	fa94 f3a4 	rbit	r3, r4
1fff8788:	fab3 f383 	clz	r3, r3
1fff878c:	f855 3023 	ldr.w	r3, [r5, r3, lsl #2]
1fff8790:	4798      	blx	r3
1fff8792:	1e63      	subs	r3, r4, #1
1fff8794:	401c      	ands	r4, r3
1fff8796:	d1f5      	bne.n	1fff8784 <port_C_isr+0xc>
1fff8798:	bd38      	pop	{r3, r4, r5, pc}
1fff879a:	bf00      	nop
1fff879c:	4004b0a0 	.word	0x4004b0a0
1fff87a0:	1fff8d6c 	.word	0x1fff8d6c

1fff87a4 <port_B_isr>:
	}
// END PORT_ISR_FUNCTION_CLZ

#if defined(KINETISK)
PORT_ISR_FUNCTION_CLZ(A)
PORT_ISR_FUNCTION_CLZ(B)
1fff87a4:	b538      	push	{r3, r4, r5, lr}
1fff87a6:	4b08      	ldr	r3, [pc, #32]	; (1fff87c8 <port_B_isr+0x24>)
1fff87a8:	681c      	ldr	r4, [r3, #0]
1fff87aa:	601c      	str	r4, [r3, #0]
1fff87ac:	b154      	cbz	r4, 1fff87c4 <port_B_isr+0x20>
1fff87ae:	4d07      	ldr	r5, [pc, #28]	; (1fff87cc <port_B_isr+0x28>)
1fff87b0:	fa94 f3a4 	rbit	r3, r4
1fff87b4:	fab3 f383 	clz	r3, r3
1fff87b8:	f855 3023 	ldr.w	r3, [r5, r3, lsl #2]
1fff87bc:	4798      	blx	r3
1fff87be:	1e63      	subs	r3, r4, #1
1fff87c0:	401c      	ands	r4, r3
1fff87c2:	d1f5      	bne.n	1fff87b0 <port_B_isr+0xc>
1fff87c4:	bd38      	pop	{r3, r4, r5, pc}
1fff87c6:	bf00      	nop
1fff87c8:	4004a0a0 	.word	0x4004a0a0
1fff87cc:	1fff8d1c 	.word	0x1fff8d1c

1fff87d0 <port_A_isr>:
		}                                                     \
	}
// END PORT_ISR_FUNCTION_CLZ

#if defined(KINETISK)
PORT_ISR_FUNCTION_CLZ(A)
1fff87d0:	b538      	push	{r3, r4, r5, lr}
1fff87d2:	4b08      	ldr	r3, [pc, #32]	; (1fff87f4 <port_A_isr+0x24>)
1fff87d4:	681c      	ldr	r4, [r3, #0]
1fff87d6:	601c      	str	r4, [r3, #0]
1fff87d8:	b154      	cbz	r4, 1fff87f0 <port_A_isr+0x20>
1fff87da:	4d07      	ldr	r5, [pc, #28]	; (1fff87f8 <port_A_isr+0x28>)
1fff87dc:	fa94 f3a4 	rbit	r3, r4
1fff87e0:	fab3 f383 	clz	r3, r3
1fff87e4:	f855 3023 	ldr.w	r3, [r5, r3, lsl #2]
1fff87e8:	4798      	blx	r3
1fff87ea:	1e63      	subs	r3, r4, #1
1fff87ec:	401c      	ands	r4, r3
1fff87ee:	d1f5      	bne.n	1fff87dc <port_A_isr+0xc>
1fff87f0:	bd38      	pop	{r3, r4, r5, pc}
1fff87f2:	bf00      	nop
1fff87f4:	400490a0 	.word	0x400490a0
1fff87f8:	1fff8ce4 	.word	0x1fff8ce4

1fff87fc <__dso_handle>:
1fff87fc:	00000000                                ....

1fff8800 <i2c_t3::i2cData>:
1fff8800:	40066000 40066001 40066002 40066003     .`.@.`.@.`.@.`.@
1fff8810:	40066004 40066005 40066006 40066007     .`.@.`.@.`.@.`.@
1fff8820:	40066008 40066009 4006600a 4006600b     .`.@.`.@.`.@.`.@
	...
1fff8a48:	00010001 000186a0 00000001 00000000     ................
	...
1fff8a70:	40067000 40067001 40067002 40067003     .p.@.p.@.p.@.p.@
1fff8a80:	40067004 40067005 40067006 40067007     .p.@.p.@.p.@.p.@
1fff8a90:	40067008 40067009 4006700a 4006700b     .p.@.p.@.p.@.p.@
	...
1fff8cb8:	00020001 000186a0 00000001 00000000     ................
	...

1fff8ce0 <__brkval>:
1fff8ce0:	1fff9c00                                ....

1fff8ce4 <isr_table_portA>:
1fff8ce4:	000022fd 000022fd 000022fd 000022fd     ."..."..."..."..
1fff8cf4:	000022fd 000022fd 000022fd 000022fd     ."..."..."..."..
1fff8d04:	000022fd 000022fd 000022fd 000022fd     ."..."..."..."..
1fff8d14:	000022fd 000022fd                       ."..."..

1fff8d1c <isr_table_portB>:
1fff8d1c:	000022fd 000022fd 000022fd 000022fd     ."..."..."..."..
1fff8d2c:	000022fd 000022fd 000022fd 000022fd     ."..."..."..."..
1fff8d3c:	000022fd 000022fd 000022fd 000022fd     ."..."..."..."..
1fff8d4c:	000022fd 000022fd 000022fd 000022fd     ."..."..."..."..
1fff8d5c:	000022fd 000022fd 000022fd 000022fd     ."..."..."..."..

1fff8d6c <isr_table_portC>:
1fff8d6c:	000022fd 000022fd 000022fd 000022fd     ."..."..."..."..
1fff8d7c:	000022fd 000022fd 000022fd 000022fd     ."..."..."..."..
1fff8d8c:	000022fd 000022fd 000022fd 000022fd     ."..."..."..."..

1fff8d9c <isr_table_portD>:
1fff8d9c:	000022fd 000022fd 000022fd 000022fd     ."..."..."..."..
1fff8dac:	000022fd 000022fd 000022fd 000022fd     ."..."..."..."..

1fff8dbc <isr_table_portE>:
1fff8dbc:	000022fd 000022fd                       ."..."..

1fff8dc4 <usb_buffer_available>:
1fff8dc4:	ffffffff                                ....

1fff8dc8 <Serial>:
1fff8dc8:	00008f48 00000000 000003e8 00000000     H...............

1fff8dd8 <analog_config_bits>:
1fff8dd8:	0000040a                                         .

1fff8dd9 <analog_num_average>:
1fff8dd9:	12000004                                         ...

1fff8ddc <device_descriptor>:
1fff8ddc:	01010112 40000002 048316c0 02010200     .......@........
1fff8dec:	00000103                                ....

1fff8df0 <usb_string_manufacturer_name_default>:
1fff8df0:	00540318 00650065 0073006e 00640079     ..T.e.e.n.s.y.d.
1fff8e00:	00690075 006f006e                       u.i.n.o.

1fff8e08 <config_descriptor>:
1fff8e08:	00430209 c0000102 00040932 02020100     ..C.....2.......
1fff8e18:	24050001 05011000 01010124 06022404     ...$....$....$..
1fff8e28:	00062405 82050701 40001003 00010409     .$.........@....
1fff8e38:	00000a02 03050700 00004002 02840507     .........@......
1fff8e48:	00000040                                @...

1fff8e4c <usb_string_product_name_default>:
1fff8e4c:	00550316 00420053 00530020 00720065     ..U.S.B. .S.e.r.
1fff8e5c:	00610069 0000006c                       i.a.l...

1fff8e64 <string0>:
1fff8e64:	04090304                                ....

1fff8e68 <usb_string_serial_number_default>:
1fff8e68:	0000030c 00000000 00000000 00000000     ................
	...

1fff8e80 <impure_data>:
1fff8e80:	00000000 1fff916c 1fff91d4 1fff923c     ....l.......<...
	...
1fff8f28:	00000001 00000000 abcd330e e66d1234     .........3..4.m.
1fff8f38:	0005deec 0000000b 00000000 00000000     ................
	...

1fff92a8 <_impure_ptr>:
1fff92a8:	1fff8e80                                ....

1fff92ac <__global_locale>:
1fff92ac:	00000043 00000000 00000000 00000000     C...............
	...
1fff92cc:	00000043 00000000 00000000 00000000     C...............
	...
1fff92ec:	00000043 00000000 00000000 00000000     C...............
	...
1fff930c:	00000043 00000000 00000000 00000000     C...............
	...
1fff932c:	00000043 00000000 00000000 00000000     C...............
	...
1fff934c:	00000043 00000000 00000000 00000000     C...............
	...
1fff936c:	00000043 00000000 00000000 00000000     C...............
	...
1fff938c:	00005481 00004d6d 00000000 00008fd4     .T..mM..........
1fff939c:	00008fd0 00008af0 00008af0 00008af0     ................
1fff93ac:	00008af0 00008af0 00008af0 00008af0     ................
1fff93bc:	00008af0 00008af0 ffffffff ffffffff     ................
1fff93cc:	ffffffff 0000ffff 53410001 00494943     ..........ASCII.
	...
1fff93f4:	53410000 00494943 00000000 00000000     ..ASCII.........
	...

1fff9418 <__malloc_av_>:
	...
1fff9420:	1fff9418 1fff9418 1fff9420 1fff9420     ........ ... ...
1fff9430:	1fff9428 1fff9428 1fff9430 1fff9430     (...(...0...0...
1fff9440:	1fff9438 1fff9438 1fff9440 1fff9440     8...8...@...@...
1fff9450:	1fff9448 1fff9448 1fff9450 1fff9450     H...H...P...P...
1fff9460:	1fff9458 1fff9458 1fff9460 1fff9460     X...X...`...`...
1fff9470:	1fff9468 1fff9468 1fff9470 1fff9470     h...h...p...p...
1fff9480:	1fff9478 1fff9478 1fff9480 1fff9480     x...x...........
1fff9490:	1fff9488 1fff9488 1fff9490 1fff9490     ................
1fff94a0:	1fff9498 1fff9498 1fff94a0 1fff94a0     ................
1fff94b0:	1fff94a8 1fff94a8 1fff94b0 1fff94b0     ................
1fff94c0:	1fff94b8 1fff94b8 1fff94c0 1fff94c0     ................
1fff94d0:	1fff94c8 1fff94c8 1fff94d0 1fff94d0     ................
1fff94e0:	1fff94d8 1fff94d8 1fff94e0 1fff94e0     ................
1fff94f0:	1fff94e8 1fff94e8 1fff94f0 1fff94f0     ................
1fff9500:	1fff94f8 1fff94f8 1fff9500 1fff9500     ................
1fff9510:	1fff9508 1fff9508 1fff9510 1fff9510     ................
1fff9520:	1fff9518 1fff9518 1fff9520 1fff9520     ........ ... ...
1fff9530:	1fff9528 1fff9528 1fff9530 1fff9530     (...(...0...0...
1fff9540:	1fff9538 1fff9538 1fff9540 1fff9540     8...8...@...@...
1fff9550:	1fff9548 1fff9548 1fff9550 1fff9550     H...H...P...P...
1fff9560:	1fff9558 1fff9558 1fff9560 1fff9560     X...X...`...`...
1fff9570:	1fff9568 1fff9568 1fff9570 1fff9570     h...h...p...p...
1fff9580:	1fff9578 1fff9578 1fff9580 1fff9580     x...x...........
1fff9590:	1fff9588 1fff9588 1fff9590 1fff9590     ................
1fff95a0:	1fff9598 1fff9598 1fff95a0 1fff95a0     ................
1fff95b0:	1fff95a8 1fff95a8 1fff95b0 1fff95b0     ................
1fff95c0:	1fff95b8 1fff95b8 1fff95c0 1fff95c0     ................
1fff95d0:	1fff95c8 1fff95c8 1fff95d0 1fff95d0     ................
1fff95e0:	1fff95d8 1fff95d8 1fff95e0 1fff95e0     ................
1fff95f0:	1fff95e8 1fff95e8 1fff95f0 1fff95f0     ................
1fff9600:	1fff95f8 1fff95f8 1fff9600 1fff9600     ................
1fff9610:	1fff9608 1fff9608 1fff9610 1fff9610     ................
1fff9620:	1fff9618 1fff9618 1fff9620 1fff9620     ........ ... ...
1fff9630:	1fff9628 1fff9628 1fff9630 1fff9630     (...(...0...0...
1fff9640:	1fff9638 1fff9638 1fff9640 1fff9640     8...8...@...@...
1fff9650:	1fff9648 1fff9648 1fff9650 1fff9650     H...H...P...P...
1fff9660:	1fff9658 1fff9658 1fff9660 1fff9660     X...X...`...`...
1fff9670:	1fff9668 1fff9668 1fff9670 1fff9670     h...h...p...p...
1fff9680:	1fff9678 1fff9678 1fff9680 1fff9680     x...x...........
1fff9690:	1fff9688 1fff9688 1fff9690 1fff9690     ................
1fff96a0:	1fff9698 1fff9698 1fff96a0 1fff96a0     ................
1fff96b0:	1fff96a8 1fff96a8 1fff96b0 1fff96b0     ................
1fff96c0:	1fff96b8 1fff96b8 1fff96c0 1fff96c0     ................
1fff96d0:	1fff96c8 1fff96c8 1fff96d0 1fff96d0     ................
1fff96e0:	1fff96d8 1fff96d8 1fff96e0 1fff96e0     ................
1fff96f0:	1fff96e8 1fff96e8 1fff96f0 1fff96f0     ................
1fff9700:	1fff96f8 1fff96f8 1fff9700 1fff9700     ................
1fff9710:	1fff9708 1fff9708 1fff9710 1fff9710     ................
1fff9720:	1fff9718 1fff9718 1fff9720 1fff9720     ........ ... ...
1fff9730:	1fff9728 1fff9728 1fff9730 1fff9730     (...(...0...0...
1fff9740:	1fff9738 1fff9738 1fff9740 1fff9740     8...8...@...@...
1fff9750:	1fff9748 1fff9748 1fff9750 1fff9750     H...H...P...P...
1fff9760:	1fff9758 1fff9758 1fff9760 1fff9760     X...X...`...`...
1fff9770:	1fff9768 1fff9768 1fff9770 1fff9770     h...h...p...p...
1fff9780:	1fff9778 1fff9778 1fff9780 1fff9780     x...x...........
1fff9790:	1fff9788 1fff9788 1fff9790 1fff9790     ................
1fff97a0:	1fff9798 1fff9798 1fff97a0 1fff97a0     ................
1fff97b0:	1fff97a8 1fff97a8 1fff97b0 1fff97b0     ................
1fff97c0:	1fff97b8 1fff97b8 1fff97c0 1fff97c0     ................
1fff97d0:	1fff97c8 1fff97c8 1fff97d0 1fff97d0     ................
1fff97e0:	1fff97d8 1fff97d8 1fff97e0 1fff97e0     ................
1fff97f0:	1fff97e8 1fff97e8 1fff97f0 1fff97f0     ................
1fff9800:	1fff97f8 1fff97f8 1fff9800 1fff9800     ................
1fff9810:	1fff9808 1fff9808 1fff9810 1fff9810     ................

1fff9820 <__malloc_trim_threshold>:
1fff9820:	00020000                                ....

1fff9824 <__malloc_sbrk_base>:
1fff9824:	ffffffff                                ....
